ARM GAS  C:\Users\CHAIYA~1\AppData\Local\Temp\ccAUhM9F.s 			page 1


   1              		.syntax unified
   2              		.cpu cortex-m3
   3              		.fpu softvfp
   4              		.eabi_attribute 20, 1
   5              		.eabi_attribute 21, 1
   6              		.eabi_attribute 23, 3
   7              		.eabi_attribute 24, 1
   8              		.eabi_attribute 25, 1
   9              		.eabi_attribute 26, 1
  10              		.eabi_attribute 30, 6
  11              		.eabi_attribute 34, 1
  12              		.eabi_attribute 18, 4
  13              		.thumb
  14              		.file	"main.c"
  15              		.text
  16              	.Ltext0:
  17              		.cfi_sections	.debug_frame
  18              		.section	.text.main,"ax",%progbits
  19              		.align	2
  20              		.global	main
  21              		.thumb
  22              		.thumb_func
  23              		.type	main, %function
  24              	main:
  25              	.LFB56:
  26              		.file 1 ".\\main.c"
   1:.\main.c      **** /* ========================================
   2:.\main.c      ****  *
   3:.\main.c      ****  * Copyright YOUR COMPANY, THE YEAR
   4:.\main.c      ****  * All Rights Reserved
   5:.\main.c      ****  * UNPUBLISHED, LICENSED SOFTWARE.
   6:.\main.c      ****  *
   7:.\main.c      ****  * CONFIDENTIAL AND PROPRIETARY INFORMATION
   8:.\main.c      ****  * WHICH IS THE PROPERTY OF your company.
   9:.\main.c      ****  *
  10:.\main.c      ****  * ========================================
  11:.\main.c      **** */
  12:.\main.c      **** #include <project.h>
  13:.\main.c      **** #include "uart-terminal.h"
  14:.\main.c      **** 
  15:.\main.c      **** int main()
  16:.\main.c      **** {
  27              		.loc 1 16 0
  28              		.cfi_startproc
  29              		@ args = 0, pretend = 0, frame = 72
  30              		@ frame_needed = 1, uses_anonymous_args = 0
  31 0000 80B5     		push	{r7, lr}
  32              		.cfi_def_cfa_offset 8
  33              		.cfi_offset 7, -8
  34              		.cfi_offset 14, -4
  35 0002 92B0     		sub	sp, sp, #72
  36              		.cfi_def_cfa_offset 80
  37 0004 00AF     		add	r7, sp, #0
  38              		.cfi_def_cfa_register 7
  17:.\main.c      ****     /* Place your initialization/startup code here (e.g. MyInst_Start()) */
  18:.\main.c      ****     LCD_Start();
  39              		.loc 1 18 0
ARM GAS  C:\Users\CHAIYA~1\AppData\Local\Temp\ccAUhM9F.s 			page 2


  40 0006 FFF7FEFF 		bl	LCD_Start
  19:.\main.c      ****     ADC_SAR_Start();
  41              		.loc 1 19 0
  42 000a FFF7FEFF 		bl	ADC_SAR_Start
  20:.\main.c      ****     ADC_SAR_StartConvert();
  43              		.loc 1 20 0
  44 000e FFF7FEFF 		bl	ADC_SAR_StartConvert
  21:.\main.c      ****     USBUART_Start(0u, USBUART_3V_OPERATION);   
  45              		.loc 1 21 0
  46 0012 0020     		movs	r0, #0
  47 0014 0021     		movs	r1, #0
  48 0016 FFF7FEFF 		bl	USBUART_Start
  22:.\main.c      ****     CyGlobalIntEnable;  
  49              		.loc 1 22 0
  50              	@ 22 ".\main.c" 1
  51 001a 62B6     		CPSIE   i
  52              	@ 0 "" 2
  23:.\main.c      ****     
  24:.\main.c      ****     uint8 track = 0;
  53              		.loc 1 24 0
  54              		.thumb
  55 001c 0023     		movs	r3, #0
  56 001e 87F84730 		strb	r3, [r7, #71]
  57              	.L2:
  25:.\main.c      ****     char serial_in[BUFFER_LEN];
  26:.\main.c      ****     
  27:.\main.c      ****     for(;;)
  28:.\main.c      ****     {
  29:.\main.c      ****         /* Place your application code here. */
  30:.\main.c      ****         terminal_echo(serial_in, &track);
  58              		.loc 1 30 0 discriminator 1
  59 0022 3A1D     		adds	r2, r7, #4
  60 0024 07F14703 		add	r3, r7, #71
  61 0028 1046     		mov	r0, r2
  62 002a 1946     		mov	r1, r3
  63 002c FFF7FEFF 		bl	terminal_echo
  31:.\main.c      ****     }
  64              		.loc 1 31 0 discriminator 1
  65 0030 F7E7     		b	.L2
  66              		.cfi_endproc
  67              	.LFE56:
  68              		.size	main, .-main
  69 0032 00BF     		.text
  70              	.Letext0:
  71              		.file 2 "c:\\program files (x86)\\cypress\\psoc creator\\3.1\\psoc creator\\import\\gnu_cs\\arm\\4
  72              		.file 3 "c:\\program files (x86)\\cypress\\psoc creator\\3.1\\psoc creator\\import\\gnu_cs\\arm\\4
  73              		.file 4 ".\\Generated_Source\\PSoC5/cytypes.h"
  74              		.file 5 ".\\Generated_Source\\PSoC5/core_cm3.h"