ARM GAS  C:\Users\CHAIYA~1\AppData\Local\Temp\ccrDaNBY.s 			page 1


   1              		.syntax unified
   2              		.cpu cortex-m3
   3              		.fpu softvfp
   4              		.eabi_attribute 20, 1
   5              		.eabi_attribute 21, 1
   6              		.eabi_attribute 23, 3
   7              		.eabi_attribute 24, 1
   8              		.eabi_attribute 25, 1
   9              		.eabi_attribute 26, 1
  10              		.eabi_attribute 30, 6
  11              		.eabi_attribute 34, 1
  12              		.eabi_attribute 18, 4
  13              		.thumb
  14              		.file	"uart-terminal.c"
  15              		.text
  16              	.Ltext0:
  17              		.cfi_sections	.debug_frame
  18              		.section	.text.terminal_echo,"ax",%progbits
  19              		.align	2
  20              		.global	terminal_echo
  21              		.thumb
  22              		.thumb_func
  23              		.type	terminal_echo, %function
  24              	terminal_echo:
  25              	.LFB56:
  26              		.file 1 ".\\uart-terminal.c"
   1:.\uart-terminal.c **** /* ========================================
   2:.\uart-terminal.c ****  *
   3:.\uart-terminal.c ****  * Copyright YOUR COMPANY, THE YEAR
   4:.\uart-terminal.c ****  * All Rights Reserved
   5:.\uart-terminal.c ****  * UNPUBLISHED, LICENSED SOFTWARE.
   6:.\uart-terminal.c ****  *
   7:.\uart-terminal.c ****  * CONFIDENTIAL AND PROPRIETARY INFORMATION
   8:.\uart-terminal.c ****  * WHICH IS THE PROPERTY OF your company.
   9:.\uart-terminal.c ****  *
  10:.\uart-terminal.c ****  * ========================================
  11:.\uart-terminal.c **** */
  12:.\uart-terminal.c **** 
  13:.\uart-terminal.c **** #include "uart-terminal.h"
  14:.\uart-terminal.c **** 
  15:.\uart-terminal.c **** /****************************************************************************
  16:.\uart-terminal.c **** * Function Name: terminal_echo(char serial_in[], uint8* track)
  17:.\uart-terminal.c **** *****************************************************************************
  18:.\uart-terminal.c **** *
  19:.\uart-terminal.c **** * Summary:
  20:.\uart-terminal.c **** *  Echos back to the terminal the current key stroke. If enter key is pressed,
  21:.\uart-terminal.c **** *  this function will call terminal_parse() to get the inputed command
  22:.\uart-terminal.c **** *
  23:.\uart-terminal.c **** * Parameters:
  24:.\uart-terminal.c **** *  serial_in[]: array to store the inputs, array of chars
  25:.\uart-terminal.c **** *  track: pointer to track which keeps track of the number of inputs i.e. chars
  26:.\uart-terminal.c **** *
  27:.\uart-terminal.c **** * Return:
  28:.\uart-terminal.c **** *  None.
  29:.\uart-terminal.c **** *
  30:.\uart-terminal.c **** ****************************************************************************/
  31:.\uart-terminal.c **** void terminal_echo(char serial_in[], uint8* track)
ARM GAS  C:\Users\CHAIYA~1\AppData\Local\Temp\ccrDaNBY.s 			page 2


  32:.\uart-terminal.c **** {
  27              		.loc 1 32 0
  28              		.cfi_startproc
  29              		@ args = 0, pretend = 0, frame = 16
  30              		@ frame_needed = 1, uses_anonymous_args = 0
  31 0000 80B5     		push	{r7, lr}
  32              		.cfi_def_cfa_offset 8
  33              		.cfi_offset 7, -8
  34              		.cfi_offset 14, -4
  35 0002 84B0     		sub	sp, sp, #16
  36              		.cfi_def_cfa_offset 24
  37 0004 00AF     		add	r7, sp, #0
  38              		.cfi_def_cfa_register 7
  39 0006 7860     		str	r0, [r7, #4]
  40 0008 3960     		str	r1, [r7]
  33:.\uart-terminal.c ****     uint8 buffer = 0;
  41              		.loc 1 33 0
  42 000a 0023     		movs	r3, #0
  43 000c FB73     		strb	r3, [r7, #15]
  34:.\uart-terminal.c ****               
  35:.\uart-terminal.c ****     buffer = 0;
  44              		.loc 1 35 0
  45 000e 0023     		movs	r3, #0
  46 0010 FB73     		strb	r3, [r7, #15]
  36:.\uart-terminal.c ****     
  37:.\uart-terminal.c ****     if(USBUART_IsConfigurationChanged() != 0u) /* Host could send double SET_INTERFACE request */
  47              		.loc 1 37 0
  48 0012 FFF7FEFF 		bl	USBUART_IsConfigurationChanged
  49 0016 0346     		mov	r3, r0
  50 0018 002B     		cmp	r3, #0
  51 001a 06D0     		beq	.L2
  38:.\uart-terminal.c ****     {
  39:.\uart-terminal.c ****         if(USBUART_GetConfiguration() != 0u)   /* Init IN endpoints when device configured */
  52              		.loc 1 39 0
  53 001c FFF7FEFF 		bl	USBUART_GetConfiguration
  54 0020 0346     		mov	r3, r0
  55 0022 002B     		cmp	r3, #0
  56 0024 01D0     		beq	.L2
  40:.\uart-terminal.c ****         {
  41:.\uart-terminal.c ****             /* Enumeration is done, enable OUT endpoint for receive data from Host */
  42:.\uart-terminal.c ****             USBUART_CDC_Init();
  57              		.loc 1 42 0
  58 0026 FFF7FEFF 		bl	USBUART_CDC_Init
  59              	.L2:
  43:.\uart-terminal.c ****         }
  44:.\uart-terminal.c ****     }         
  45:.\uart-terminal.c ****     if(USBUART_GetConfiguration() != 0u)    /* Service USB CDC when device configured */
  60              		.loc 1 45 0
  61 002a FFF7FEFF 		bl	USBUART_GetConfiguration
  62 002e 0346     		mov	r3, r0
  63 0030 002B     		cmp	r3, #0
  64 0032 3ED0     		beq	.L1
  46:.\uart-terminal.c ****     {
  47:.\uart-terminal.c ****         if(USBUART_DataIsReady() != 0u)               /* Check for input data from PC */
  65              		.loc 1 47 0
  66 0034 FFF7FEFF 		bl	USBUART_DataIsReady
  67 0038 0346     		mov	r3, r0
ARM GAS  C:\Users\CHAIYA~1\AppData\Local\Temp\ccrDaNBY.s 			page 3


  68 003a 002B     		cmp	r3, #0
  69 003c 39D0     		beq	.L1
  48:.\uart-terminal.c ****         {   
  49:.\uart-terminal.c ****             buffer = USBUART_GetChar();           /* Read received data and re-enable OUT endpoint 
  70              		.loc 1 49 0
  71 003e FFF7FEFF 		bl	USBUART_GetChar
  72 0042 0346     		mov	r3, r0
  73 0044 FB73     		strb	r3, [r7, #15]
  50:.\uart-terminal.c ****             if(buffer != 0)
  74              		.loc 1 50 0
  75 0046 FB7B     		ldrb	r3, [r7, #15]	@ zero_extendqisi2
  76 0048 002B     		cmp	r3, #0
  77 004a 32D0     		beq	.L1
  51:.\uart-terminal.c ****             {
  52:.\uart-terminal.c ****                 serial_in[*track] = (char)buffer;
  78              		.loc 1 52 0
  79 004c 3B68     		ldr	r3, [r7]
  80 004e 1B78     		ldrb	r3, [r3]	@ zero_extendqisi2
  81 0050 7A68     		ldr	r2, [r7, #4]
  82 0052 1344     		add	r3, r3, r2
  83 0054 FA7B     		ldrb	r2, [r7, #15]
  84 0056 1A70     		strb	r2, [r3]
  53:.\uart-terminal.c ****                 while(USBUART_CDCIsReady() == 0u);    /* Wait till component is ready to send more 
  85              		.loc 1 53 0
  86 0058 00BF     		nop
  87              	.L4:
  88              		.loc 1 53 0 is_stmt 0 discriminator 1
  89 005a FFF7FEFF 		bl	USBUART_CDCIsReady
  90 005e 0346     		mov	r3, r0
  91 0060 002B     		cmp	r3, #0
  92 0062 FAD0     		beq	.L4
  54:.\uart-terminal.c ****                 USBUART_PutChar((char)buffer);       /* Send data back to PC */    
  93              		.loc 1 54 0 is_stmt 1
  94 0064 FB7B     		ldrb	r3, [r7, #15]	@ zero_extendqisi2
  95 0066 1846     		mov	r0, r3
  96 0068 FFF7FEFF 		bl	USBUART_PutChar
  55:.\uart-terminal.c ****                 
  56:.\uart-terminal.c ****                 if(buffer == 127)           // checks for backspace = 127
  97              		.loc 1 56 0
  98 006c FB7B     		ldrb	r3, [r7, #15]	@ zero_extendqisi2
  99 006e 7F2B     		cmp	r3, #127
 100 0070 09D1     		bne	.L5
  57:.\uart-terminal.c ****                 {
  58:.\uart-terminal.c ****                     if(track != 0)          // subtract only if not at the front of the array
 101              		.loc 1 58 0
 102 0072 3B68     		ldr	r3, [r7]
 103 0074 002B     		cmp	r3, #0
 104 0076 0CD0     		beq	.L7
  59:.\uart-terminal.c ****                         (*track)--;
 105              		.loc 1 59 0
 106 0078 3B68     		ldr	r3, [r7]
 107 007a 1B78     		ldrb	r3, [r3]	@ zero_extendqisi2
 108 007c 013B     		subs	r3, r3, #1
 109 007e DAB2     		uxtb	r2, r3
 110 0080 3B68     		ldr	r3, [r7]
 111 0082 1A70     		strb	r2, [r3]
 112 0084 05E0     		b	.L7
ARM GAS  C:\Users\CHAIYA~1\AppData\Local\Temp\ccrDaNBY.s 			page 4


 113              	.L5:
  60:.\uart-terminal.c ****                 }
  61:.\uart-terminal.c ****                 else
  62:.\uart-terminal.c ****                     (*track)++;
 114              		.loc 1 62 0
 115 0086 3B68     		ldr	r3, [r7]
 116 0088 1B78     		ldrb	r3, [r3]	@ zero_extendqisi2
 117 008a 0133     		adds	r3, r3, #1
 118 008c DAB2     		uxtb	r2, r3
 119 008e 3B68     		ldr	r3, [r7]
 120 0090 1A70     		strb	r2, [r3]
 121              	.L7:
  63:.\uart-terminal.c ****                 
  64:.\uart-terminal.c ****                 if((char)buffer == '\r')        // if enter key was pressed
 122              		.loc 1 64 0
 123 0092 FB7B     		ldrb	r3, [r7, #15]	@ zero_extendqisi2
 124 0094 0D2B     		cmp	r3, #13
 125 0096 0CD1     		bne	.L1
  65:.\uart-terminal.c ****                 {
  66:.\uart-terminal.c ****                     serial_in[*track-1] = '\0';
 126              		.loc 1 66 0
 127 0098 3B68     		ldr	r3, [r7]
 128 009a 1B78     		ldrb	r3, [r3]	@ zero_extendqisi2
 129 009c 013B     		subs	r3, r3, #1
 130 009e 7A68     		ldr	r2, [r7, #4]
 131 00a0 1344     		add	r3, r3, r2
 132 00a2 0022     		movs	r2, #0
 133 00a4 1A70     		strb	r2, [r3]
  67:.\uart-terminal.c ****                     terminal_parse(serial_in);                                      
 134              		.loc 1 67 0
 135 00a6 7868     		ldr	r0, [r7, #4]
 136 00a8 FFF7FEFF 		bl	terminal_parse
  68:.\uart-terminal.c ****                     *track = 0;
 137              		.loc 1 68 0
 138 00ac 3B68     		ldr	r3, [r7]
 139 00ae 0022     		movs	r2, #0
 140 00b0 1A70     		strb	r2, [r3]
 141              	.L1:
  69:.\uart-terminal.c ****                 }
  70:.\uart-terminal.c ****             }
  71:.\uart-terminal.c ****         }  
  72:.\uart-terminal.c ****     }   
  73:.\uart-terminal.c **** }
 142              		.loc 1 73 0
 143 00b2 1037     		adds	r7, r7, #16
 144 00b4 BD46     		mov	sp, r7
 145              		@ sp needed
 146 00b6 80BD     		pop	{r7, pc}
 147              		.cfi_endproc
 148              	.LFE56:
 149              		.size	terminal_echo, .-terminal_echo
 150              		.section	.rodata
 151              		.align	2
 152              	.LC0:
 153 0000 0D0A312E 		.ascii	"\015\0121. Help\015\0122. Print ADC\015\012        "
 153      2048656C 
 153      700D0A32 
ARM GAS  C:\Users\CHAIYA~1\AppData\Local\Temp\ccrDaNBY.s 			page 5


 153      2E205072 
 153      696E7420 
 154 0021 50726573 		.ascii	"Press ESC to stop conversions\015\0123. Something3\012"
 154      73204553 
 154      4320746F 
 154      2073746F 
 154      7020636F 
 155 004e 0D00     		.ascii	"\015\000"
 156              		.align	2
 157              	.LC1:
 158 0050 68656C70 		.ascii	"help\000"
 158      00
 159 0055 000000   		.align	2
 160              	.LC2:
 161 0058 3100     		.ascii	"1\000"
 162 005a 0000     		.align	2
 163              	.LC3:
 164 005c 5072696E 		.ascii	"Print ADC\000"
 164      74204144 
 164      4300
 165 0066 0000     		.align	2
 166              	.LC4:
 167 0068 3200     		.ascii	"2\000"
 168              		.global	__aeabi_f2d
 169 006a 0000     		.align	2
 170              	.LC5:
 171 006c 0A0D2530 		.ascii	"\012\015%0.4fv, %d\000"
 171      2E346676 
 171      2C202564 
 171      00
 172 0079 000000   		.align	2
 173              	.LC6:
 174 007c 0A0D5374 		.ascii	"\012\015Stopped\012\015\000"
 174      6F707065 
 174      640A0D00 
 175              		.align	2
 176              	.LC7:
 177 0088 0A0D4E6F 		.ascii	"\012\015Not a recognized command, please use 'help'"
 177      74206120 
 177      7265636F 
 177      676E697A 
 177      65642063 
 178 00b5 20746F20 		.ascii	" to see commands.\012\015\000"
 178      73656520 
 178      636F6D6D 
 178      616E6473 
 178      2E0A0D00 
 179 00c9 000000   		.section	.text.terminal_parse,"ax",%progbits
 180              		.align	2
 181              		.global	terminal_parse
 182              		.thumb
 183              		.thumb_func
 184              		.type	terminal_parse, %function
 185              	terminal_parse:
 186              	.LFB57:
  74:.\uart-terminal.c **** 
  75:.\uart-terminal.c **** 
ARM GAS  C:\Users\CHAIYA~1\AppData\Local\Temp\ccrDaNBY.s 			page 6


  76:.\uart-terminal.c **** /****************************************************************************
  77:.\uart-terminal.c **** * Function Name: terminal_parse(char serial_in[])
  78:.\uart-terminal.c **** *****************************************************************************
  79:.\uart-terminal.c **** *
  80:.\uart-terminal.c **** * Summary:
  81:.\uart-terminal.c **** *  Called when the user press enter. Takes the serial_in[] array and compares
  82:.\uart-terminal.c **** *  it with hard coded commands. 
  83:.\uart-terminal.c **** *
  84:.\uart-terminal.c **** * Parameters:
  85:.\uart-terminal.c **** *  serial_in[]: array of inputs
  86:.\uart-terminal.c **** *
  87:.\uart-terminal.c **** * Return:
  88:.\uart-terminal.c **** *  None.
  89:.\uart-terminal.c **** *
  90:.\uart-terminal.c **** ****************************************************************************/
  91:.\uart-terminal.c **** void terminal_parse(char serial_in[])
  92:.\uart-terminal.c **** {
 187              		.loc 1 92 0
 188              		.cfi_startproc
 189              		@ args = 0, pretend = 0, frame = 96
 190              		@ frame_needed = 1, uses_anonymous_args = 0
 191 0000 80B5     		push	{r7, lr}
 192              		.cfi_def_cfa_offset 8
 193              		.cfi_offset 7, -8
 194              		.cfi_offset 14, -4
 195 0002 9AB0     		sub	sp, sp, #104
 196              		.cfi_def_cfa_offset 112
 197 0004 02AF     		add	r7, sp, #8
 198              		.cfi_def_cfa 7, 104
 199 0006 7860     		str	r0, [r7, #4]
  93:.\uart-terminal.c ****     char* helpString = "\r\n1. Help\r\n2. Print ADC\r\n        Press ESC to stop conversions\r\n3. 
 200              		.loc 1 93 0
 201 0008 424B     		ldr	r3, .L21
 202 000a FB65     		str	r3, [r7, #92]
  94:.\uart-terminal.c ****     double volts;           //used to store adc value
  95:.\uart-terminal.c ****     char adc_val[BUFFER_LEN];       //used to print adc value
  96:.\uart-terminal.c ****     uint8 buffer;
  97:.\uart-terminal.c ****     
  98:.\uart-terminal.c ****     if(stricmp(serial_in, "help") == 0 || stricmp(serial_in, "1") == 0)
 203              		.loc 1 98 0
 204 000c 7868     		ldr	r0, [r7, #4]
 205 000e 4249     		ldr	r1, .L21+4
 206 0010 FFF7FEFF 		bl	strcasecmp
 207 0014 0346     		mov	r3, r0
 208 0016 002B     		cmp	r3, #0
 209 0018 06D0     		beq	.L9
 210              		.loc 1 98 0 is_stmt 0 discriminator 1
 211 001a 7868     		ldr	r0, [r7, #4]
 212 001c 3F49     		ldr	r1, .L21+8
 213 001e FFF7FEFF 		bl	strcasecmp
 214 0022 0346     		mov	r3, r0
 215 0024 002B     		cmp	r3, #0
 216 0026 09D1     		bne	.L10
 217              	.L9:
  99:.\uart-terminal.c ****     {
 100:.\uart-terminal.c ****         while(USBUART_CDCIsReady() == 0u);    /* Wait till component is ready to send more data to 
 218              		.loc 1 100 0 is_stmt 1
ARM GAS  C:\Users\CHAIYA~1\AppData\Local\Temp\ccrDaNBY.s 			page 7


 219 0028 00BF     		nop
 220              	.L11:
 221              		.loc 1 100 0 is_stmt 0 discriminator 1
 222 002a FFF7FEFF 		bl	USBUART_CDCIsReady
 223 002e 0346     		mov	r3, r0
 224 0030 002B     		cmp	r3, #0
 225 0032 FAD0     		beq	.L11
 101:.\uart-terminal.c ****         USBUART_PutString(helpString);       /* Send data to PC */     
 226              		.loc 1 101 0 is_stmt 1
 227 0034 F86D     		ldr	r0, [r7, #92]
 228 0036 FFF7FEFF 		bl	USBUART_PutString
 229 003a 67E0     		b	.L8
 230              	.L10:
 102:.\uart-terminal.c ****     }
 103:.\uart-terminal.c ****     else if(stricmp(serial_in, "Print ADC") == 0 || stricmp(serial_in, "2") == 0)
 231              		.loc 1 103 0
 232 003c 7868     		ldr	r0, [r7, #4]
 233 003e 3849     		ldr	r1, .L21+12
 234 0040 FFF7FEFF 		bl	strcasecmp
 235 0044 0346     		mov	r3, r0
 236 0046 002B     		cmp	r3, #0
 237 0048 06D0     		beq	.L13
 238              		.loc 1 103 0 is_stmt 0 discriminator 1
 239 004a 7868     		ldr	r0, [r7, #4]
 240 004c 3549     		ldr	r1, .L21+16
 241 004e FFF7FEFF 		bl	strcasecmp
 242 0052 0346     		mov	r3, r0
 243 0054 002B     		cmp	r3, #0
 244 0056 50D1     		bne	.L14
 245              	.L13:
 104:.\uart-terminal.c ****     {
 105:.\uart-terminal.c ****         for(;;)     //keep printing conversions 
 106:.\uart-terminal.c ****         {
 107:.\uart-terminal.c ****             if(ADC_SAR_IsEndConversion(ADC_SAR_WAIT_FOR_RESULT))        //if ADC conversion is done
 246              		.loc 1 107 0 is_stmt 1
 247 0058 0020     		movs	r0, #0
 248 005a FFF7FEFF 		bl	ADC_SAR_IsEndConversion
 249 005e 0346     		mov	r3, r0
 250 0060 002B     		cmp	r3, #0
 251 0062 30D0     		beq	.L15
 108:.\uart-terminal.c ****             {
 109:.\uart-terminal.c ****                 volts = ADC_SAR_CountsTo_Volts(ADC_SAR_GetResult16(0));
 252              		.loc 1 109 0
 253 0064 0020     		movs	r0, #0
 254 0066 FFF7FEFF 		bl	ADC_SAR_GetResult16
 255 006a 0346     		mov	r3, r0
 256 006c 1846     		mov	r0, r3
 257 006e FFF7FEFF 		bl	ADC_SAR_CountsTo_Volts
 258 0072 0346     		mov	r3, r0
 259 0074 1846     		mov	r0, r3
 260 0076 FFF7FEFF 		bl	__aeabi_f2d
 261 007a 0246     		mov	r2, r0
 262 007c 0B46     		mov	r3, r1
 263 007e C7E91423 		strd	r2, [r7, #80]
 110:.\uart-terminal.c ****                 sprintf(adc_val, "\n\r%0.4fv, %d", volts, ADC_SAR_GetResult16(0));            //Mak
 264              		.loc 1 110 0
 265 0082 0020     		movs	r0, #0
ARM GAS  C:\Users\CHAIYA~1\AppData\Local\Temp\ccrDaNBY.s 			page 8


 266 0084 FFF7FEFF 		bl	ADC_SAR_GetResult16
 267 0088 0346     		mov	r3, r0
 268 008a 1A46     		mov	r2, r3
 269 008c 07F10C03 		add	r3, r7, #12
 270 0090 0092     		str	r2, [sp]
 271 0092 1846     		mov	r0, r3
 272 0094 2449     		ldr	r1, .L21+20
 273 0096 D7E91423 		ldrd	r2, [r7, #80]
 274 009a FFF7FEFF 		bl	sprintf
 111:.\uart-terminal.c ****                 LCD_Position(0,0);
 275              		.loc 1 111 0
 276 009e 0020     		movs	r0, #0
 277 00a0 0021     		movs	r1, #0
 278 00a2 FFF7FEFF 		bl	LCD_Position
 112:.\uart-terminal.c ****                 LCD_PrintString(adc_val);
 279              		.loc 1 112 0
 280 00a6 07F10C03 		add	r3, r7, #12
 281 00aa 1846     		mov	r0, r3
 282 00ac FFF7FEFF 		bl	LCD_PrintString
 113:.\uart-terminal.c ****                 while(USBUART_CDCIsReady() == 0u);    /* Wait till component is ready to send more 
 283              		.loc 1 113 0
 284 00b0 00BF     		nop
 285              	.L16:
 286              		.loc 1 113 0 is_stmt 0 discriminator 1
 287 00b2 FFF7FEFF 		bl	USBUART_CDCIsReady
 288 00b6 0346     		mov	r3, r0
 289 00b8 002B     		cmp	r3, #0
 290 00ba FAD0     		beq	.L16
 114:.\uart-terminal.c ****                 USBUART_PutString(adc_val);       /* Send data back to PC */  
 291              		.loc 1 114 0 is_stmt 1
 292 00bc 07F10C03 		add	r3, r7, #12
 293 00c0 1846     		mov	r0, r3
 294 00c2 FFF7FEFF 		bl	USBUART_PutString
 295              	.L15:
 115:.\uart-terminal.c ****             }
 116:.\uart-terminal.c ****        
 117:.\uart-terminal.c ****             if(USBUART_DataIsReady() != 0u)               /* Check for input data from PC */
 296              		.loc 1 117 0
 297 00c6 FFF7FEFF 		bl	USBUART_DataIsReady
 298 00ca 0346     		mov	r3, r0
 299 00cc 002B     		cmp	r3, #0
 300 00ce 13D0     		beq	.L17
 118:.\uart-terminal.c ****             {
 119:.\uart-terminal.c ****                 buffer = USBUART_GetChar();
 301              		.loc 1 119 0
 302 00d0 FFF7FEFF 		bl	USBUART_GetChar
 303 00d4 0346     		mov	r3, r0
 304 00d6 87F84F30 		strb	r3, [r7, #79]
 120:.\uart-terminal.c ****                 
 121:.\uart-terminal.c ****                 if (buffer == 27)               //if escaped pressed then exit printing
 305              		.loc 1 121 0
 306 00da 97F84F30 		ldrb	r3, [r7, #79]	@ zero_extendqisi2
 307 00de 1B2B     		cmp	r3, #27
 308 00e0 0AD1     		bne	.L17
 122:.\uart-terminal.c ****                 {
 123:.\uart-terminal.c ****                     while(USBUART_CDCIsReady() == 0u);    /* Wait till component is ready to send m
 309              		.loc 1 123 0
ARM GAS  C:\Users\CHAIYA~1\AppData\Local\Temp\ccrDaNBY.s 			page 9


 310 00e2 00BF     		nop
 311              	.L18:
 312              		.loc 1 123 0 is_stmt 0 discriminator 1
 313 00e4 FFF7FEFF 		bl	USBUART_CDCIsReady
 314 00e8 0346     		mov	r3, r0
 315 00ea 002B     		cmp	r3, #0
 316 00ec FAD0     		beq	.L18
 124:.\uart-terminal.c ****                     USBUART_PutString("\n\rStopped\n\r");       /* Send data back to PC */ 
 317              		.loc 1 124 0 is_stmt 1
 318 00ee 0F48     		ldr	r0, .L21+24
 319 00f0 FFF7FEFF 		bl	USBUART_PutString
 125:.\uart-terminal.c ****                     break;
 320              		.loc 1 125 0
 321 00f4 00BF     		nop
 103:.\uart-terminal.c ****     else if(stricmp(serial_in, "Print ADC") == 0 || stricmp(serial_in, "2") == 0)
 322              		.loc 1 103 0
 323 00f6 09E0     		b	.L8
 324              	.L17:
 126:.\uart-terminal.c ****                 }
 127:.\uart-terminal.c ****             }
 128:.\uart-terminal.c ****         }
 325              		.loc 1 128 0
 326 00f8 AEE7     		b	.L13
 327              	.L14:
 129:.\uart-terminal.c ****     }
 130:.\uart-terminal.c ****     else
 131:.\uart-terminal.c ****     {
 132:.\uart-terminal.c ****         while(USBUART_CDCIsReady() == 0u);    /* Wait till component is ready to send more data to 
 328              		.loc 1 132 0
 329 00fa 00BF     		nop
 330              	.L20:
 331              		.loc 1 132 0 is_stmt 0 discriminator 1
 332 00fc FFF7FEFF 		bl	USBUART_CDCIsReady
 333 0100 0346     		mov	r3, r0
 334 0102 002B     		cmp	r3, #0
 335 0104 FAD0     		beq	.L20
 133:.\uart-terminal.c ****         USBUART_PutString("\n\rNot a recognized command, please use 'help' to see commands.\n\r"); 
 336              		.loc 1 133 0 is_stmt 1
 337 0106 0A48     		ldr	r0, .L21+28
 338 0108 FFF7FEFF 		bl	USBUART_PutString
 339              	.L8:
 134:.\uart-terminal.c ****     }
 135:.\uart-terminal.c **** }
 340              		.loc 1 135 0
 341 010c 6037     		adds	r7, r7, #96
 342 010e BD46     		mov	sp, r7
 343              		@ sp needed
 344 0110 80BD     		pop	{r7, pc}
 345              	.L22:
 346 0112 00BF     		.align	2
 347              	.L21:
 348 0114 00000000 		.word	.LC0
 349 0118 50000000 		.word	.LC1
 350 011c 58000000 		.word	.LC2
 351 0120 5C000000 		.word	.LC3
 352 0124 68000000 		.word	.LC4
 353 0128 6C000000 		.word	.LC5
ARM GAS  C:\Users\CHAIYA~1\AppData\Local\Temp\ccrDaNBY.s 			page 10


 354 012c 7C000000 		.word	.LC6
 355 0130 88000000 		.word	.LC7
 356              		.cfi_endproc
 357              	.LFE57:
 358              		.size	terminal_parse, .-terminal_parse
 359              		.text
 360              	.Letext0:
 361              		.file 2 "c:\\program files (x86)\\cypress\\psoc creator\\3.1\\psoc creator\\import\\gnu_cs\\arm\\4
 362              		.file 3 "c:\\program files (x86)\\cypress\\psoc creator\\3.1\\psoc creator\\import\\gnu_cs\\arm\\4
 363              		.file 4 ".\\Generated_Source\\PSoC5/cytypes.h"
 364              		.file 5 ".\\Generated_Source\\PSoC5/core_cm3.h"