ARM GAS  C:\Users\CHAIYA~1\AppData\Local\Temp\cceYnCpn.s 			page 1


   1              		.syntax unified
   2              		.cpu cortex-m3
   3              		.fpu softvfp
   4              		.eabi_attribute 20, 1
   5              		.eabi_attribute 21, 1
   6              		.eabi_attribute 23, 3
   7              		.eabi_attribute 24, 1
   8              		.eabi_attribute 25, 1
   9              		.eabi_attribute 26, 1
  10              		.eabi_attribute 30, 6
  11              		.eabi_attribute 34, 1
  12              		.eabi_attribute 18, 4
  13              		.thumb
  14              		.file	"USBUART_hid.c"
  15              		.text
  16              	.Ltext0:
  17              		.cfi_sections	.debug_frame
  18              		.comm	USBUART_hidProtocol,2,4
  19              		.comm	USBUART_hidIdleRate,2,4
  20              		.comm	USBUART_hidIdleTimer,2,4
  21              		.section	.text.USBUART_UpdateHIDTimer,"ax",%progbits
  22              		.align	2
  23              		.global	USBUART_UpdateHIDTimer
  24              		.thumb
  25              		.thumb_func
  26              		.type	USBUART_UpdateHIDTimer, %function
  27              	USBUART_UpdateHIDTimer:
  28              	.LFB0:
  29              		.file 1 ".\\Generated_Source\\PSoC5\\USBUART_hid.c"
   1:.\Generated_Source\PSoC5/USBUART_hid.c **** /*******************************************************************************
   2:.\Generated_Source\PSoC5/USBUART_hid.c **** * File Name: USBUART_hid.c
   3:.\Generated_Source\PSoC5/USBUART_hid.c **** * Version 2.80
   4:.\Generated_Source\PSoC5/USBUART_hid.c **** *
   5:.\Generated_Source\PSoC5/USBUART_hid.c **** * Description:
   6:.\Generated_Source\PSoC5/USBUART_hid.c **** *  USB HID Class request handler.
   7:.\Generated_Source\PSoC5/USBUART_hid.c **** *
   8:.\Generated_Source\PSoC5/USBUART_hid.c **** * Related Document:
   9:.\Generated_Source\PSoC5/USBUART_hid.c **** *  Device Class Definition for Human Interface Devices (HID) Version 1.11
  10:.\Generated_Source\PSoC5/USBUART_hid.c **** *
  11:.\Generated_Source\PSoC5/USBUART_hid.c **** * Note:
  12:.\Generated_Source\PSoC5/USBUART_hid.c **** *
  13:.\Generated_Source\PSoC5/USBUART_hid.c **** ********************************************************************************
  14:.\Generated_Source\PSoC5/USBUART_hid.c **** * Copyright 2008-2014, Cypress Semiconductor Corporation.  All rights reserved.
  15:.\Generated_Source\PSoC5/USBUART_hid.c **** * You may use this file only in accordance with the license, terms, conditions,
  16:.\Generated_Source\PSoC5/USBUART_hid.c **** * disclaimers, and limitations in the end user license agreement accompanying
  17:.\Generated_Source\PSoC5/USBUART_hid.c **** * the software package with which this file was provided.
  18:.\Generated_Source\PSoC5/USBUART_hid.c **** *******************************************************************************/
  19:.\Generated_Source\PSoC5/USBUART_hid.c **** 
  20:.\Generated_Source\PSoC5/USBUART_hid.c **** #include "USBUART.h"
  21:.\Generated_Source\PSoC5/USBUART_hid.c **** 
  22:.\Generated_Source\PSoC5/USBUART_hid.c **** #if defined(USBUART_ENABLE_HID_CLASS)
  23:.\Generated_Source\PSoC5/USBUART_hid.c **** 
  24:.\Generated_Source\PSoC5/USBUART_hid.c **** #include "USBUART_pvt.h"
  25:.\Generated_Source\PSoC5/USBUART_hid.c **** #include "USBUART_hid.h"
  26:.\Generated_Source\PSoC5/USBUART_hid.c **** 
  27:.\Generated_Source\PSoC5/USBUART_hid.c **** 
  28:.\Generated_Source\PSoC5/USBUART_hid.c **** /***************************************
ARM GAS  C:\Users\CHAIYA~1\AppData\Local\Temp\cceYnCpn.s 			page 2


  29:.\Generated_Source\PSoC5/USBUART_hid.c **** *    HID Variables
  30:.\Generated_Source\PSoC5/USBUART_hid.c **** ***************************************/
  31:.\Generated_Source\PSoC5/USBUART_hid.c **** 
  32:.\Generated_Source\PSoC5/USBUART_hid.c **** volatile uint8 USBUART_hidProtocol[USBUART_MAX_INTERFACES_NUMBER];  /* HID device protocol status *
  33:.\Generated_Source\PSoC5/USBUART_hid.c **** volatile uint8 USBUART_hidIdleRate[USBUART_MAX_INTERFACES_NUMBER];  /* HID device idle reload value
  34:.\Generated_Source\PSoC5/USBUART_hid.c **** volatile uint8 USBUART_hidIdleTimer[USBUART_MAX_INTERFACES_NUMBER]; /* HID device idle rate value *
  35:.\Generated_Source\PSoC5/USBUART_hid.c **** 
  36:.\Generated_Source\PSoC5/USBUART_hid.c **** 
  37:.\Generated_Source\PSoC5/USBUART_hid.c **** /***************************************
  38:.\Generated_Source\PSoC5/USBUART_hid.c **** * Custom Declarations
  39:.\Generated_Source\PSoC5/USBUART_hid.c **** ***************************************/
  40:.\Generated_Source\PSoC5/USBUART_hid.c **** 
  41:.\Generated_Source\PSoC5/USBUART_hid.c **** /* `#START HID_CUSTOM_DECLARATIONS` Place your declaration here */
  42:.\Generated_Source\PSoC5/USBUART_hid.c **** 
  43:.\Generated_Source\PSoC5/USBUART_hid.c **** /* `#END` */
  44:.\Generated_Source\PSoC5/USBUART_hid.c **** 
  45:.\Generated_Source\PSoC5/USBUART_hid.c **** 
  46:.\Generated_Source\PSoC5/USBUART_hid.c **** /*******************************************************************************
  47:.\Generated_Source\PSoC5/USBUART_hid.c **** * Function Name: USBUART_UpdateHIDTimer
  48:.\Generated_Source\PSoC5/USBUART_hid.c **** ********************************************************************************
  49:.\Generated_Source\PSoC5/USBUART_hid.c **** *
  50:.\Generated_Source\PSoC5/USBUART_hid.c **** * Summary:
  51:.\Generated_Source\PSoC5/USBUART_hid.c **** *  Updates the HID report timer and reloads it if expired
  52:.\Generated_Source\PSoC5/USBUART_hid.c **** *
  53:.\Generated_Source\PSoC5/USBUART_hid.c **** * Parameters:
  54:.\Generated_Source\PSoC5/USBUART_hid.c **** *  interface:  Interface Number.
  55:.\Generated_Source\PSoC5/USBUART_hid.c **** *
  56:.\Generated_Source\PSoC5/USBUART_hid.c **** * Return:
  57:.\Generated_Source\PSoC5/USBUART_hid.c **** *  status.
  58:.\Generated_Source\PSoC5/USBUART_hid.c **** *
  59:.\Generated_Source\PSoC5/USBUART_hid.c **** * Reentrant:
  60:.\Generated_Source\PSoC5/USBUART_hid.c **** *  No.
  61:.\Generated_Source\PSoC5/USBUART_hid.c **** *
  62:.\Generated_Source\PSoC5/USBUART_hid.c **** *******************************************************************************/
  63:.\Generated_Source\PSoC5/USBUART_hid.c **** uint8 USBUART_UpdateHIDTimer(uint8 interface) 
  64:.\Generated_Source\PSoC5/USBUART_hid.c **** {
  30              		.loc 1 64 0
  31              		.cfi_startproc
  32              		@ args = 0, pretend = 0, frame = 16
  33              		@ frame_needed = 1, uses_anonymous_args = 0
  34              		@ link register save eliminated.
  35 0000 80B4     		push	{r7}
  36              		.cfi_def_cfa_offset 4
  37              		.cfi_offset 7, -4
  38 0002 85B0     		sub	sp, sp, #20
  39              		.cfi_def_cfa_offset 24
  40 0004 00AF     		add	r7, sp, #0
  41              		.cfi_def_cfa_register 7
  42 0006 0346     		mov	r3, r0
  43 0008 FB71     		strb	r3, [r7, #7]
  65:.\Generated_Source\PSoC5/USBUART_hid.c ****     uint8 stat = USBUART_IDLE_TIMER_INDEFINITE;
  44              		.loc 1 65 0
  45 000a 0023     		movs	r3, #0
  46 000c FB73     		strb	r3, [r7, #15]
  66:.\Generated_Source\PSoC5/USBUART_hid.c **** 
  67:.\Generated_Source\PSoC5/USBUART_hid.c ****     if(USBUART_hidIdleRate[interface] != 0u)
  47              		.loc 1 67 0
ARM GAS  C:\Users\CHAIYA~1\AppData\Local\Temp\cceYnCpn.s 			page 3


  48 000e FB79     		ldrb	r3, [r7, #7]	@ zero_extendqisi2
  49 0010 124A     		ldr	r2, .L5
  50 0012 D35C     		ldrb	r3, [r2, r3]
  51 0014 DBB2     		uxtb	r3, r3
  52 0016 002B     		cmp	r3, #0
  53 0018 19D0     		beq	.L2
  68:.\Generated_Source\PSoC5/USBUART_hid.c ****     {
  69:.\Generated_Source\PSoC5/USBUART_hid.c ****         if(USBUART_hidIdleTimer[interface] > 0u)
  54              		.loc 1 69 0
  55 001a FB79     		ldrb	r3, [r7, #7]	@ zero_extendqisi2
  56 001c 104A     		ldr	r2, .L5+4
  57 001e D35C     		ldrb	r3, [r2, r3]
  58 0020 DBB2     		uxtb	r3, r3
  59 0022 002B     		cmp	r3, #0
  60 0024 0AD0     		beq	.L3
  70:.\Generated_Source\PSoC5/USBUART_hid.c ****         {
  71:.\Generated_Source\PSoC5/USBUART_hid.c ****             USBUART_hidIdleTimer[interface]--;
  61              		.loc 1 71 0
  62 0026 FB79     		ldrb	r3, [r7, #7]	@ zero_extendqisi2
  63 0028 0D4A     		ldr	r2, .L5+4
  64 002a D25C     		ldrb	r2, [r2, r3]
  65 002c D2B2     		uxtb	r2, r2
  66 002e 013A     		subs	r2, r2, #1
  67 0030 D1B2     		uxtb	r1, r2
  68 0032 0B4A     		ldr	r2, .L5+4
  69 0034 D154     		strb	r1, [r2, r3]
  72:.\Generated_Source\PSoC5/USBUART_hid.c ****             stat = USBUART_IDLE_TIMER_RUNNING;
  70              		.loc 1 72 0
  71 0036 0223     		movs	r3, #2
  72 0038 FB73     		strb	r3, [r7, #15]
  73 003a 08E0     		b	.L2
  74              	.L3:
  73:.\Generated_Source\PSoC5/USBUART_hid.c ****         }
  74:.\Generated_Source\PSoC5/USBUART_hid.c ****         else
  75:.\Generated_Source\PSoC5/USBUART_hid.c ****         {
  76:.\Generated_Source\PSoC5/USBUART_hid.c ****             USBUART_hidIdleTimer[interface] = USBUART_hidIdleRate[interface];
  75              		.loc 1 76 0
  76 003c FB79     		ldrb	r3, [r7, #7]	@ zero_extendqisi2
  77 003e FA79     		ldrb	r2, [r7, #7]	@ zero_extendqisi2
  78 0040 0649     		ldr	r1, .L5
  79 0042 8A5C     		ldrb	r2, [r1, r2]
  80 0044 D1B2     		uxtb	r1, r2
  81 0046 064A     		ldr	r2, .L5+4
  82 0048 D154     		strb	r1, [r2, r3]
  77:.\Generated_Source\PSoC5/USBUART_hid.c ****             stat = USBUART_IDLE_TIMER_EXPIRED;
  83              		.loc 1 77 0
  84 004a 0123     		movs	r3, #1
  85 004c FB73     		strb	r3, [r7, #15]
  86              	.L2:
  78:.\Generated_Source\PSoC5/USBUART_hid.c ****         }
  79:.\Generated_Source\PSoC5/USBUART_hid.c ****     }
  80:.\Generated_Source\PSoC5/USBUART_hid.c **** 
  81:.\Generated_Source\PSoC5/USBUART_hid.c ****     return(stat);
  87              		.loc 1 81 0
  88 004e FB7B     		ldrb	r3, [r7, #15]	@ zero_extendqisi2
  82:.\Generated_Source\PSoC5/USBUART_hid.c **** }
  89              		.loc 1 82 0
ARM GAS  C:\Users\CHAIYA~1\AppData\Local\Temp\cceYnCpn.s 			page 4


  90 0050 1846     		mov	r0, r3
  91 0052 1437     		adds	r7, r7, #20
  92 0054 BD46     		mov	sp, r7
  93              		@ sp needed
  94 0056 5DF8047B 		ldr	r7, [sp], #4
  95 005a 7047     		bx	lr
  96              	.L6:
  97              		.align	2
  98              	.L5:
  99 005c 00000000 		.word	USBUART_hidIdleRate
 100 0060 00000000 		.word	USBUART_hidIdleTimer
 101              		.cfi_endproc
 102              	.LFE0:
 103              		.size	USBUART_UpdateHIDTimer, .-USBUART_UpdateHIDTimer
 104              		.section	.text.USBUART_GetProtocol,"ax",%progbits
 105              		.align	2
 106              		.global	USBUART_GetProtocol
 107              		.thumb
 108              		.thumb_func
 109              		.type	USBUART_GetProtocol, %function
 110              	USBUART_GetProtocol:
 111              	.LFB1:
  83:.\Generated_Source\PSoC5/USBUART_hid.c **** 
  84:.\Generated_Source\PSoC5/USBUART_hid.c **** 
  85:.\Generated_Source\PSoC5/USBUART_hid.c **** /*******************************************************************************
  86:.\Generated_Source\PSoC5/USBUART_hid.c **** * Function Name: USBUART_GetProtocol
  87:.\Generated_Source\PSoC5/USBUART_hid.c **** ********************************************************************************
  88:.\Generated_Source\PSoC5/USBUART_hid.c **** *
  89:.\Generated_Source\PSoC5/USBUART_hid.c **** * Summary:
  90:.\Generated_Source\PSoC5/USBUART_hid.c **** *  Returns the selected protocol value to the application
  91:.\Generated_Source\PSoC5/USBUART_hid.c **** *
  92:.\Generated_Source\PSoC5/USBUART_hid.c **** * Parameters:
  93:.\Generated_Source\PSoC5/USBUART_hid.c **** *  interface:  Interface Number.
  94:.\Generated_Source\PSoC5/USBUART_hid.c **** *
  95:.\Generated_Source\PSoC5/USBUART_hid.c **** * Return:
  96:.\Generated_Source\PSoC5/USBUART_hid.c **** *  Interface protocol.
  97:.\Generated_Source\PSoC5/USBUART_hid.c **** *
  98:.\Generated_Source\PSoC5/USBUART_hid.c **** *******************************************************************************/
  99:.\Generated_Source\PSoC5/USBUART_hid.c **** uint8 USBUART_GetProtocol(uint8 interface) 
 100:.\Generated_Source\PSoC5/USBUART_hid.c **** {
 112              		.loc 1 100 0
 113              		.cfi_startproc
 114              		@ args = 0, pretend = 0, frame = 8
 115              		@ frame_needed = 1, uses_anonymous_args = 0
 116              		@ link register save eliminated.
 117 0000 80B4     		push	{r7}
 118              		.cfi_def_cfa_offset 4
 119              		.cfi_offset 7, -4
 120 0002 83B0     		sub	sp, sp, #12
 121              		.cfi_def_cfa_offset 16
 122 0004 00AF     		add	r7, sp, #0
 123              		.cfi_def_cfa_register 7
 124 0006 0346     		mov	r3, r0
 125 0008 FB71     		strb	r3, [r7, #7]
 101:.\Generated_Source\PSoC5/USBUART_hid.c ****     return(USBUART_hidProtocol[interface]);
 126              		.loc 1 101 0
 127 000a FB79     		ldrb	r3, [r7, #7]	@ zero_extendqisi2
ARM GAS  C:\Users\CHAIYA~1\AppData\Local\Temp\cceYnCpn.s 			page 5


 128 000c 044A     		ldr	r2, .L9
 129 000e D35C     		ldrb	r3, [r2, r3]
 130 0010 DBB2     		uxtb	r3, r3
 102:.\Generated_Source\PSoC5/USBUART_hid.c **** }
 131              		.loc 1 102 0
 132 0012 1846     		mov	r0, r3
 133 0014 0C37     		adds	r7, r7, #12
 134 0016 BD46     		mov	sp, r7
 135              		@ sp needed
 136 0018 5DF8047B 		ldr	r7, [sp], #4
 137 001c 7047     		bx	lr
 138              	.L10:
 139 001e 00BF     		.align	2
 140              	.L9:
 141 0020 00000000 		.word	USBUART_hidProtocol
 142              		.cfi_endproc
 143              	.LFE1:
 144              		.size	USBUART_GetProtocol, .-USBUART_GetProtocol
 145              		.section	.text.USBUART_DispatchHIDClassRqst,"ax",%progbits
 146              		.align	2
 147              		.global	USBUART_DispatchHIDClassRqst
 148              		.thumb
 149              		.thumb_func
 150              		.type	USBUART_DispatchHIDClassRqst, %function
 151              	USBUART_DispatchHIDClassRqst:
 152              	.LFB2:
 103:.\Generated_Source\PSoC5/USBUART_hid.c **** 
 104:.\Generated_Source\PSoC5/USBUART_hid.c **** 
 105:.\Generated_Source\PSoC5/USBUART_hid.c **** /*******************************************************************************
 106:.\Generated_Source\PSoC5/USBUART_hid.c **** * Function Name: USBUART_DispatchHIDClassRqst
 107:.\Generated_Source\PSoC5/USBUART_hid.c **** ********************************************************************************
 108:.\Generated_Source\PSoC5/USBUART_hid.c **** *
 109:.\Generated_Source\PSoC5/USBUART_hid.c **** * Summary:
 110:.\Generated_Source\PSoC5/USBUART_hid.c **** *  This routine dispatches class requests
 111:.\Generated_Source\PSoC5/USBUART_hid.c **** *
 112:.\Generated_Source\PSoC5/USBUART_hid.c **** * Parameters:
 113:.\Generated_Source\PSoC5/USBUART_hid.c **** *  None.
 114:.\Generated_Source\PSoC5/USBUART_hid.c **** *
 115:.\Generated_Source\PSoC5/USBUART_hid.c **** * Return:
 116:.\Generated_Source\PSoC5/USBUART_hid.c **** *  requestHandled
 117:.\Generated_Source\PSoC5/USBUART_hid.c **** *
 118:.\Generated_Source\PSoC5/USBUART_hid.c **** * Reentrant:
 119:.\Generated_Source\PSoC5/USBUART_hid.c **** *  No.
 120:.\Generated_Source\PSoC5/USBUART_hid.c **** *
 121:.\Generated_Source\PSoC5/USBUART_hid.c **** *******************************************************************************/
 122:.\Generated_Source\PSoC5/USBUART_hid.c **** uint8 USBUART_DispatchHIDClassRqst(void) 
 123:.\Generated_Source\PSoC5/USBUART_hid.c **** {
 153              		.loc 1 123 0
 154              		.cfi_startproc
 155              		@ args = 0, pretend = 0, frame = 8
 156              		@ frame_needed = 1, uses_anonymous_args = 0
 157 0000 80B5     		push	{r7, lr}
 158              		.cfi_def_cfa_offset 8
 159              		.cfi_offset 7, -8
 160              		.cfi_offset 14, -4
 161 0002 82B0     		sub	sp, sp, #8
 162              		.cfi_def_cfa_offset 16
ARM GAS  C:\Users\CHAIYA~1\AppData\Local\Temp\cceYnCpn.s 			page 6


 163 0004 00AF     		add	r7, sp, #0
 164              		.cfi_def_cfa_register 7
 124:.\Generated_Source\PSoC5/USBUART_hid.c ****     uint8 requestHandled = USBUART_FALSE;
 165              		.loc 1 124 0
 166 0006 0023     		movs	r3, #0
 167 0008 FB71     		strb	r3, [r7, #7]
 125:.\Generated_Source\PSoC5/USBUART_hid.c ****     uint8 interfaceNumber;
 126:.\Generated_Source\PSoC5/USBUART_hid.c **** 
 127:.\Generated_Source\PSoC5/USBUART_hid.c ****     interfaceNumber = CY_GET_REG8(USBUART_wIndexLo);
 168              		.loc 1 127 0
 169 000a 6F4B     		ldr	r3, .L41
 170 000c 1B78     		ldrb	r3, [r3]
 171 000e BB71     		strb	r3, [r7, #6]
 128:.\Generated_Source\PSoC5/USBUART_hid.c ****     if ((CY_GET_REG8(USBUART_bmRequestType) & USBUART_RQST_DIR_MASK) == USBUART_RQST_DIR_D2H)
 172              		.loc 1 128 0
 173 0010 6E4B     		ldr	r3, .L41+4
 174 0012 1B78     		ldrb	r3, [r3]
 175 0014 DBB2     		uxtb	r3, r3
 176 0016 DBB2     		uxtb	r3, r3
 177 0018 5BB2     		sxtb	r3, r3
 178 001a 002B     		cmp	r3, #0
 179 001c 6DDA     		bge	.L12
 129:.\Generated_Source\PSoC5/USBUART_hid.c ****     {   /* Control Read */
 130:.\Generated_Source\PSoC5/USBUART_hid.c ****         switch (CY_GET_REG8(USBUART_bRequest))
 180              		.loc 1 130 0
 181 001e 6C4B     		ldr	r3, .L41+8
 182 0020 1B78     		ldrb	r3, [r3]
 183 0022 DBB2     		uxtb	r3, r3
 184 0024 013B     		subs	r3, r3, #1
 185 0026 052B     		cmp	r3, #5
 186 0028 65D8     		bhi	.L39
 187 002a 01A2     		adr	r2, .L15
 188 002c 52F823F0 		ldr	pc, [r2, r3, lsl #2]
 189              		.p2align 2
 190              	.L15:
 191 0030 8F000000 		.word	.L14+1
 192 0034 A9000000 		.word	.L16+1
 193 0038 D5000000 		.word	.L17+1
 194 003c F7000000 		.word	.L39+1
 195 0040 F7000000 		.word	.L39+1
 196 0044 49000000 		.word	.L18+1
 197              		.p2align 1
 198              	.L18:
 131:.\Generated_Source\PSoC5/USBUART_hid.c ****         {
 132:.\Generated_Source\PSoC5/USBUART_hid.c ****             case USBUART_GET_DESCRIPTOR:
 133:.\Generated_Source\PSoC5/USBUART_hid.c ****                 if (CY_GET_REG8(USBUART_wValueHi) == USBUART_DESCR_HID_CLASS)
 199              		.loc 1 133 0
 200 0048 624B     		ldr	r3, .L41+12
 201 004a 1B78     		ldrb	r3, [r3]
 202 004c DBB2     		uxtb	r3, r3
 203 004e 212B     		cmp	r3, #33
 204 0050 0BD1     		bne	.L19
 134:.\Generated_Source\PSoC5/USBUART_hid.c ****                 {
 135:.\Generated_Source\PSoC5/USBUART_hid.c ****                     USBUART_FindHidClassDecriptor();
 205              		.loc 1 135 0
 206 0052 FFF7FEFF 		bl	USBUART_FindHidClassDecriptor
 136:.\Generated_Source\PSoC5/USBUART_hid.c ****                     if (USBUART_currentTD.count != 0u)
ARM GAS  C:\Users\CHAIYA~1\AppData\Local\Temp\cceYnCpn.s 			page 7


 207              		.loc 1 136 0
 208 0056 604B     		ldr	r3, .L41+16
 209 0058 1B88     		ldrh	r3, [r3]	@ movhi
 210 005a 9BB2     		uxth	r3, r3
 211 005c 002B     		cmp	r3, #0
 212 005e 15D0     		beq	.L21
 137:.\Generated_Source\PSoC5/USBUART_hid.c ****                     {
 138:.\Generated_Source\PSoC5/USBUART_hid.c ****                         requestHandled = USBUART_InitControlRead();
 213              		.loc 1 138 0
 214 0060 FFF7FEFF 		bl	USBUART_InitControlRead
 215 0064 0346     		mov	r3, r0
 216 0066 FB71     		strb	r3, [r7, #7]
 139:.\Generated_Source\PSoC5/USBUART_hid.c ****                     }
 140:.\Generated_Source\PSoC5/USBUART_hid.c ****                 }
 141:.\Generated_Source\PSoC5/USBUART_hid.c ****                 else if (CY_GET_REG8(USBUART_wValueHi) == USBUART_DESCR_HID_REPORT)
 142:.\Generated_Source\PSoC5/USBUART_hid.c ****                 {
 143:.\Generated_Source\PSoC5/USBUART_hid.c ****                     USBUART_FindReportDescriptor();
 144:.\Generated_Source\PSoC5/USBUART_hid.c ****                     if (USBUART_currentTD.count != 0u)
 145:.\Generated_Source\PSoC5/USBUART_hid.c ****                     {
 146:.\Generated_Source\PSoC5/USBUART_hid.c ****                         requestHandled = USBUART_InitControlRead();
 147:.\Generated_Source\PSoC5/USBUART_hid.c ****                     }
 148:.\Generated_Source\PSoC5/USBUART_hid.c ****                 }
 149:.\Generated_Source\PSoC5/USBUART_hid.c ****                 else
 150:.\Generated_Source\PSoC5/USBUART_hid.c ****                 {   /* requestHandled is initialezed as FALSE by default */
 151:.\Generated_Source\PSoC5/USBUART_hid.c ****                 }
 152:.\Generated_Source\PSoC5/USBUART_hid.c ****                 break;
 217              		.loc 1 152 0
 218 0068 46E0     		b	.L23
 219              	.L19:
 141:.\Generated_Source\PSoC5/USBUART_hid.c ****                 else if (CY_GET_REG8(USBUART_wValueHi) == USBUART_DESCR_HID_REPORT)
 220              		.loc 1 141 0
 221 006a 5A4B     		ldr	r3, .L41+12
 222 006c 1B78     		ldrb	r3, [r3]
 223 006e DBB2     		uxtb	r3, r3
 224 0070 222B     		cmp	r3, #34
 225 0072 0BD1     		bne	.L21
 143:.\Generated_Source\PSoC5/USBUART_hid.c ****                     USBUART_FindReportDescriptor();
 226              		.loc 1 143 0
 227 0074 FFF7FEFF 		bl	USBUART_FindReportDescriptor
 144:.\Generated_Source\PSoC5/USBUART_hid.c ****                     if (USBUART_currentTD.count != 0u)
 228              		.loc 1 144 0
 229 0078 574B     		ldr	r3, .L41+16
 230 007a 1B88     		ldrh	r3, [r3]	@ movhi
 231 007c 9BB2     		uxth	r3, r3
 232 007e 002B     		cmp	r3, #0
 233 0080 04D0     		beq	.L21
 146:.\Generated_Source\PSoC5/USBUART_hid.c ****                         requestHandled = USBUART_InitControlRead();
 234              		.loc 1 146 0
 235 0082 FFF7FEFF 		bl	USBUART_InitControlRead
 236 0086 0346     		mov	r3, r0
 237 0088 FB71     		strb	r3, [r7, #7]
 238              		.loc 1 152 0
 239 008a 35E0     		b	.L23
 240              	.L21:
 241 008c 34E0     		b	.L23
 242              	.L14:
 153:.\Generated_Source\PSoC5/USBUART_hid.c ****             case USBUART_HID_GET_REPORT:
ARM GAS  C:\Users\CHAIYA~1\AppData\Local\Temp\cceYnCpn.s 			page 8


 154:.\Generated_Source\PSoC5/USBUART_hid.c ****                 USBUART_FindReport();
 243              		.loc 1 154 0
 244 008e FFF7FEFF 		bl	USBUART_FindReport
 155:.\Generated_Source\PSoC5/USBUART_hid.c ****                 if (USBUART_currentTD.count != 0u)
 245              		.loc 1 155 0
 246 0092 514B     		ldr	r3, .L41+16
 247 0094 1B88     		ldrh	r3, [r3]	@ movhi
 248 0096 9BB2     		uxth	r3, r3
 249 0098 002B     		cmp	r3, #0
 250 009a 04D0     		beq	.L24
 156:.\Generated_Source\PSoC5/USBUART_hid.c ****                 {
 157:.\Generated_Source\PSoC5/USBUART_hid.c ****                     requestHandled = USBUART_InitControlRead();
 251              		.loc 1 157 0
 252 009c FFF7FEFF 		bl	USBUART_InitControlRead
 253 00a0 0346     		mov	r3, r0
 254 00a2 FB71     		strb	r3, [r7, #7]
 158:.\Generated_Source\PSoC5/USBUART_hid.c ****                 }
 159:.\Generated_Source\PSoC5/USBUART_hid.c ****                 break;
 255              		.loc 1 159 0
 256 00a4 28E0     		b	.L23
 257              	.L24:
 258 00a6 27E0     		b	.L23
 259              	.L16:
 160:.\Generated_Source\PSoC5/USBUART_hid.c **** 
 161:.\Generated_Source\PSoC5/USBUART_hid.c ****             case USBUART_HID_GET_IDLE:
 162:.\Generated_Source\PSoC5/USBUART_hid.c ****                 /* This function does not support multiple reports per interface*/
 163:.\Generated_Source\PSoC5/USBUART_hid.c ****                 /* Validate interfaceNumber and Report ID (should be 0) */
 164:.\Generated_Source\PSoC5/USBUART_hid.c ****                 if( (interfaceNumber < USBUART_MAX_INTERFACES_NUMBER) &&
 260              		.loc 1 164 0
 261 00a8 BB79     		ldrb	r3, [r7, #6]	@ zero_extendqisi2
 262 00aa 012B     		cmp	r3, #1
 263 00ac 11D8     		bhi	.L25
 165:.\Generated_Source\PSoC5/USBUART_hid.c ****                     (CY_GET_REG8(USBUART_wValueLo) == 0u ) ) /* Do not support Idle per Report ID *
 264              		.loc 1 165 0 discriminator 1
 265 00ae 4B4B     		ldr	r3, .L41+20
 266 00b0 1B78     		ldrb	r3, [r3]
 267 00b2 DBB2     		uxtb	r3, r3
 164:.\Generated_Source\PSoC5/USBUART_hid.c ****                 if( (interfaceNumber < USBUART_MAX_INTERFACES_NUMBER) &&
 268              		.loc 1 164 0 discriminator 1
 269 00b4 002B     		cmp	r3, #0
 270 00b6 0CD1     		bne	.L25
 166:.\Generated_Source\PSoC5/USBUART_hid.c ****                 {
 167:.\Generated_Source\PSoC5/USBUART_hid.c ****                     USBUART_currentTD.count = 1u;
 271              		.loc 1 167 0
 272 00b8 474B     		ldr	r3, .L41+16
 273 00ba 0122     		movs	r2, #1
 274 00bc 1A80     		strh	r2, [r3]	@ movhi
 168:.\Generated_Source\PSoC5/USBUART_hid.c ****                     USBUART_currentTD.pData = &USBUART_hidIdleRate[interfaceNumber];
 275              		.loc 1 168 0
 276 00be BA79     		ldrb	r2, [r7, #6]	@ zero_extendqisi2
 277 00c0 474B     		ldr	r3, .L41+24
 278 00c2 1A44     		add	r2, r2, r3
 279 00c4 444B     		ldr	r3, .L41+16
 280 00c6 5A60     		str	r2, [r3, #4]
 169:.\Generated_Source\PSoC5/USBUART_hid.c ****                     requestHandled  = USBUART_InitControlRead();
 281              		.loc 1 169 0
 282 00c8 FFF7FEFF 		bl	USBUART_InitControlRead
ARM GAS  C:\Users\CHAIYA~1\AppData\Local\Temp\cceYnCpn.s 			page 9


 283 00cc 0346     		mov	r3, r0
 284 00ce FB71     		strb	r3, [r7, #7]
 170:.\Generated_Source\PSoC5/USBUART_hid.c ****                 }
 171:.\Generated_Source\PSoC5/USBUART_hid.c ****                 break;
 285              		.loc 1 171 0
 286 00d0 12E0     		b	.L23
 287              	.L25:
 288 00d2 11E0     		b	.L23
 289              	.L17:
 172:.\Generated_Source\PSoC5/USBUART_hid.c ****             case USBUART_HID_GET_PROTOCOL:
 173:.\Generated_Source\PSoC5/USBUART_hid.c ****                 /* Validate interfaceNumber */
 174:.\Generated_Source\PSoC5/USBUART_hid.c ****                 if( interfaceNumber < USBUART_MAX_INTERFACES_NUMBER)
 290              		.loc 1 174 0
 291 00d4 BB79     		ldrb	r3, [r7, #6]	@ zero_extendqisi2
 292 00d6 012B     		cmp	r3, #1
 293 00d8 0CD8     		bhi	.L26
 175:.\Generated_Source\PSoC5/USBUART_hid.c ****                 {
 176:.\Generated_Source\PSoC5/USBUART_hid.c ****                     USBUART_currentTD.count = 1u;
 294              		.loc 1 176 0
 295 00da 3F4B     		ldr	r3, .L41+16
 296 00dc 0122     		movs	r2, #1
 297 00de 1A80     		strh	r2, [r3]	@ movhi
 177:.\Generated_Source\PSoC5/USBUART_hid.c ****                     USBUART_currentTD.pData = &USBUART_hidProtocol[interfaceNumber];
 298              		.loc 1 177 0
 299 00e0 BA79     		ldrb	r2, [r7, #6]	@ zero_extendqisi2
 300 00e2 404B     		ldr	r3, .L41+28
 301 00e4 1A44     		add	r2, r2, r3
 302 00e6 3C4B     		ldr	r3, .L41+16
 303 00e8 5A60     		str	r2, [r3, #4]
 178:.\Generated_Source\PSoC5/USBUART_hid.c ****                     requestHandled  = USBUART_InitControlRead();
 304              		.loc 1 178 0
 305 00ea FFF7FEFF 		bl	USBUART_InitControlRead
 306 00ee 0346     		mov	r3, r0
 307 00f0 FB71     		strb	r3, [r7, #7]
 179:.\Generated_Source\PSoC5/USBUART_hid.c ****                 }
 180:.\Generated_Source\PSoC5/USBUART_hid.c ****                 break;
 308              		.loc 1 180 0
 309 00f2 01E0     		b	.L23
 310              	.L26:
 311 00f4 00E0     		b	.L23
 312              	.L39:
 181:.\Generated_Source\PSoC5/USBUART_hid.c ****             default:    /* requestHandled is initialized as FALSE by default */
 182:.\Generated_Source\PSoC5/USBUART_hid.c ****                 break;
 313              		.loc 1 182 0
 314 00f6 00BF     		nop
 315              	.L23:
 316 00f8 61E0     		b	.L27
 317              	.L12:
 183:.\Generated_Source\PSoC5/USBUART_hid.c ****         }
 184:.\Generated_Source\PSoC5/USBUART_hid.c ****     }
 185:.\Generated_Source\PSoC5/USBUART_hid.c ****     else if ((CY_GET_REG8(USBUART_bmRequestType) & USBUART_RQST_DIR_MASK) ==
 318              		.loc 1 185 0
 319 00fa 344B     		ldr	r3, .L41+4
 320 00fc 1B78     		ldrb	r3, [r3]
 321 00fe DBB2     		uxtb	r3, r3
 322 0100 DBB2     		uxtb	r3, r3
 323 0102 5BB2     		sxtb	r3, r3
ARM GAS  C:\Users\CHAIYA~1\AppData\Local\Temp\cceYnCpn.s 			page 10


 324 0104 002B     		cmp	r3, #0
 325 0106 5ADB     		blt	.L27
 186:.\Generated_Source\PSoC5/USBUART_hid.c ****                                                                             USBUART_RQST_DIR_H2D)
 187:.\Generated_Source\PSoC5/USBUART_hid.c ****     {   /* Control Write */
 188:.\Generated_Source\PSoC5/USBUART_hid.c ****         switch (CY_GET_REG8(USBUART_bRequest))
 326              		.loc 1 188 0
 327 0108 314B     		ldr	r3, .L41+8
 328 010a 1B78     		ldrb	r3, [r3]
 329 010c DBB2     		uxtb	r3, r3
 330 010e 0A2B     		cmp	r3, #10
 331 0110 11D0     		beq	.L29
 332 0112 0B2B     		cmp	r3, #11
 333 0114 3FD0     		beq	.L30
 334 0116 092B     		cmp	r3, #9
 335 0118 00D0     		beq	.L31
 189:.\Generated_Source\PSoC5/USBUART_hid.c ****         {
 190:.\Generated_Source\PSoC5/USBUART_hid.c ****             case USBUART_HID_SET_REPORT:
 191:.\Generated_Source\PSoC5/USBUART_hid.c ****                 USBUART_FindReport();
 192:.\Generated_Source\PSoC5/USBUART_hid.c ****                 if (USBUART_currentTD.count != 0u)
 193:.\Generated_Source\PSoC5/USBUART_hid.c ****                 {
 194:.\Generated_Source\PSoC5/USBUART_hid.c ****                     requestHandled = USBUART_InitControlWrite();
 195:.\Generated_Source\PSoC5/USBUART_hid.c ****                 }
 196:.\Generated_Source\PSoC5/USBUART_hid.c ****                 break;
 197:.\Generated_Source\PSoC5/USBUART_hid.c ****             case USBUART_HID_SET_IDLE:
 198:.\Generated_Source\PSoC5/USBUART_hid.c ****                 /* This function does not support multiple reports per interface */
 199:.\Generated_Source\PSoC5/USBUART_hid.c ****                 /* Validate interfaceNumber and Report ID (should be 0) */
 200:.\Generated_Source\PSoC5/USBUART_hid.c ****                 if( (interfaceNumber < USBUART_MAX_INTERFACES_NUMBER) &&
 201:.\Generated_Source\PSoC5/USBUART_hid.c ****                     (CY_GET_REG8(USBUART_wValueLo) == 0u ) ) /* Do not support Idle per Report ID *
 202:.\Generated_Source\PSoC5/USBUART_hid.c ****                 {
 203:.\Generated_Source\PSoC5/USBUART_hid.c ****                     USBUART_hidIdleRate[interfaceNumber] = CY_GET_REG8(USBUART_wValueHi);
 204:.\Generated_Source\PSoC5/USBUART_hid.c ****                     /* With regards to HID spec: "7.2.4 Set_Idle Request"
 205:.\Generated_Source\PSoC5/USBUART_hid.c ****                     *  Latency. If the current period has gone past the
 206:.\Generated_Source\PSoC5/USBUART_hid.c ****                     *  newly proscribed time duration, then a report
 207:.\Generated_Source\PSoC5/USBUART_hid.c ****                     *  will be generated immediately.
 208:.\Generated_Source\PSoC5/USBUART_hid.c ****                     */
 209:.\Generated_Source\PSoC5/USBUART_hid.c ****                     if(USBUART_hidIdleRate[interfaceNumber] <
 210:.\Generated_Source\PSoC5/USBUART_hid.c ****                        USBUART_hidIdleTimer[interfaceNumber])
 211:.\Generated_Source\PSoC5/USBUART_hid.c ****                     {
 212:.\Generated_Source\PSoC5/USBUART_hid.c ****                         /* Set the timer to zero and let the UpdateHIDTimer() API return IDLE_TIMER
 213:.\Generated_Source\PSoC5/USBUART_hid.c ****                         USBUART_hidIdleTimer[interfaceNumber] = 0u;
 214:.\Generated_Source\PSoC5/USBUART_hid.c ****                     }
 215:.\Generated_Source\PSoC5/USBUART_hid.c ****                     /* If the new request is received within 4 milliseconds
 216:.\Generated_Source\PSoC5/USBUART_hid.c ****                     *  (1 count) of the end of the current period, then the
 217:.\Generated_Source\PSoC5/USBUART_hid.c ****                     *  new request will have no effect until after the report.
 218:.\Generated_Source\PSoC5/USBUART_hid.c ****                     */
 219:.\Generated_Source\PSoC5/USBUART_hid.c ****                     else if(USBUART_hidIdleTimer[interfaceNumber] <= 1u)
 220:.\Generated_Source\PSoC5/USBUART_hid.c ****                     {
 221:.\Generated_Source\PSoC5/USBUART_hid.c ****                         /* Do nothing.
 222:.\Generated_Source\PSoC5/USBUART_hid.c ****                         *  Let the UpdateHIDTimer() API continue to work and
 223:.\Generated_Source\PSoC5/USBUART_hid.c ****                         *  return IDLE_TIMER_EXPIRED status
 224:.\Generated_Source\PSoC5/USBUART_hid.c ****                         */
 225:.\Generated_Source\PSoC5/USBUART_hid.c ****                     }
 226:.\Generated_Source\PSoC5/USBUART_hid.c ****                     else
 227:.\Generated_Source\PSoC5/USBUART_hid.c ****                     {   /* Reload the timer*/
 228:.\Generated_Source\PSoC5/USBUART_hid.c ****                         USBUART_hidIdleTimer[interfaceNumber] =
 229:.\Generated_Source\PSoC5/USBUART_hid.c ****                         USBUART_hidIdleRate[interfaceNumber];
 230:.\Generated_Source\PSoC5/USBUART_hid.c ****                     }
ARM GAS  C:\Users\CHAIYA~1\AppData\Local\Temp\cceYnCpn.s 			page 11


 231:.\Generated_Source\PSoC5/USBUART_hid.c ****                     requestHandled = USBUART_InitNoDataControlTransfer();
 232:.\Generated_Source\PSoC5/USBUART_hid.c ****                 }
 233:.\Generated_Source\PSoC5/USBUART_hid.c ****                 break;
 234:.\Generated_Source\PSoC5/USBUART_hid.c **** 
 235:.\Generated_Source\PSoC5/USBUART_hid.c ****             case USBUART_HID_SET_PROTOCOL:
 236:.\Generated_Source\PSoC5/USBUART_hid.c ****                 /* Validate interfaceNumber and protocol (must be 0 or 1) */
 237:.\Generated_Source\PSoC5/USBUART_hid.c ****                 if( (interfaceNumber < USBUART_MAX_INTERFACES_NUMBER) &&
 238:.\Generated_Source\PSoC5/USBUART_hid.c ****                     (CY_GET_REG8(USBUART_wValueLo) <= 1u) )
 239:.\Generated_Source\PSoC5/USBUART_hid.c ****                 {
 240:.\Generated_Source\PSoC5/USBUART_hid.c ****                     USBUART_hidProtocol[interfaceNumber] = CY_GET_REG8(USBUART_wValueLo);
 241:.\Generated_Source\PSoC5/USBUART_hid.c ****                     requestHandled = USBUART_InitNoDataControlTransfer();
 242:.\Generated_Source\PSoC5/USBUART_hid.c ****                 }
 243:.\Generated_Source\PSoC5/USBUART_hid.c ****                 break;
 244:.\Generated_Source\PSoC5/USBUART_hid.c ****             default:    /* requestHandled is initialized as FALSE by default */
 245:.\Generated_Source\PSoC5/USBUART_hid.c ****                 break;
 336              		.loc 1 245 0
 337 011a 50E0     		b	.L33
 338              	.L31:
 191:.\Generated_Source\PSoC5/USBUART_hid.c ****                 USBUART_FindReport();
 339              		.loc 1 191 0
 340 011c FFF7FEFF 		bl	USBUART_FindReport
 192:.\Generated_Source\PSoC5/USBUART_hid.c ****                 if (USBUART_currentTD.count != 0u)
 341              		.loc 1 192 0
 342 0120 2D4B     		ldr	r3, .L41+16
 343 0122 1B88     		ldrh	r3, [r3]	@ movhi
 344 0124 9BB2     		uxth	r3, r3
 345 0126 002B     		cmp	r3, #0
 346 0128 04D0     		beq	.L32
 194:.\Generated_Source\PSoC5/USBUART_hid.c ****                     requestHandled = USBUART_InitControlWrite();
 347              		.loc 1 194 0
 348 012a FFF7FEFF 		bl	USBUART_InitControlWrite
 349 012e 0346     		mov	r3, r0
 350 0130 FB71     		strb	r3, [r7, #7]
 196:.\Generated_Source\PSoC5/USBUART_hid.c ****                 break;
 351              		.loc 1 196 0
 352 0132 44E0     		b	.L33
 353              	.L32:
 354 0134 43E0     		b	.L33
 355              	.L29:
 200:.\Generated_Source\PSoC5/USBUART_hid.c ****                 if( (interfaceNumber < USBUART_MAX_INTERFACES_NUMBER) &&
 356              		.loc 1 200 0
 357 0136 BB79     		ldrb	r3, [r7, #6]	@ zero_extendqisi2
 358 0138 012B     		cmp	r3, #1
 359 013a 2BD8     		bhi	.L34
 201:.\Generated_Source\PSoC5/USBUART_hid.c ****                     (CY_GET_REG8(USBUART_wValueLo) == 0u ) ) /* Do not support Idle per Report ID *
 360              		.loc 1 201 0 discriminator 1
 361 013c 274B     		ldr	r3, .L41+20
 362 013e 1B78     		ldrb	r3, [r3]
 363 0140 DBB2     		uxtb	r3, r3
 200:.\Generated_Source\PSoC5/USBUART_hid.c ****                 if( (interfaceNumber < USBUART_MAX_INTERFACES_NUMBER) &&
 364              		.loc 1 200 0 discriminator 1
 365 0142 002B     		cmp	r3, #0
 366 0144 26D1     		bne	.L34
 203:.\Generated_Source\PSoC5/USBUART_hid.c ****                     USBUART_hidIdleRate[interfaceNumber] = CY_GET_REG8(USBUART_wValueHi);
 367              		.loc 1 203 0
 368 0146 BB79     		ldrb	r3, [r7, #6]	@ zero_extendqisi2
 369 0148 224A     		ldr	r2, .L41+12
ARM GAS  C:\Users\CHAIYA~1\AppData\Local\Temp\cceYnCpn.s 			page 12


 370 014a 1278     		ldrb	r2, [r2]
 371 014c D1B2     		uxtb	r1, r2
 372 014e 244A     		ldr	r2, .L41+24
 373 0150 D154     		strb	r1, [r2, r3]
 209:.\Generated_Source\PSoC5/USBUART_hid.c ****                     if(USBUART_hidIdleRate[interfaceNumber] <
 374              		.loc 1 209 0
 375 0152 BB79     		ldrb	r3, [r7, #6]	@ zero_extendqisi2
 376 0154 224A     		ldr	r2, .L41+24
 377 0156 D35C     		ldrb	r3, [r2, r3]
 378 0158 DAB2     		uxtb	r2, r3
 210:.\Generated_Source\PSoC5/USBUART_hid.c ****                        USBUART_hidIdleTimer[interfaceNumber])
 379              		.loc 1 210 0
 380 015a BB79     		ldrb	r3, [r7, #6]	@ zero_extendqisi2
 381 015c 2249     		ldr	r1, .L41+32
 382 015e CB5C     		ldrb	r3, [r1, r3]
 383 0160 DBB2     		uxtb	r3, r3
 209:.\Generated_Source\PSoC5/USBUART_hid.c ****                     if(USBUART_hidIdleRate[interfaceNumber] <
 384              		.loc 1 209 0
 385 0162 9A42     		cmp	r2, r3
 386 0164 04D2     		bcs	.L35
 213:.\Generated_Source\PSoC5/USBUART_hid.c ****                         USBUART_hidIdleTimer[interfaceNumber] = 0u;
 387              		.loc 1 213 0
 388 0166 BB79     		ldrb	r3, [r7, #6]	@ zero_extendqisi2
 389 0168 1F4A     		ldr	r2, .L41+32
 390 016a 0021     		movs	r1, #0
 391 016c D154     		strb	r1, [r2, r3]
 392 016e 0CE0     		b	.L36
 393              	.L35:
 219:.\Generated_Source\PSoC5/USBUART_hid.c ****                     else if(USBUART_hidIdleTimer[interfaceNumber] <= 1u)
 394              		.loc 1 219 0
 395 0170 BB79     		ldrb	r3, [r7, #6]	@ zero_extendqisi2
 396 0172 1D4A     		ldr	r2, .L41+32
 397 0174 D35C     		ldrb	r3, [r2, r3]
 398 0176 DBB2     		uxtb	r3, r3
 399 0178 012B     		cmp	r3, #1
 400 017a 06D9     		bls	.L36
 228:.\Generated_Source\PSoC5/USBUART_hid.c ****                         USBUART_hidIdleTimer[interfaceNumber] =
 401              		.loc 1 228 0
 402 017c BB79     		ldrb	r3, [r7, #6]	@ zero_extendqisi2
 229:.\Generated_Source\PSoC5/USBUART_hid.c ****                         USBUART_hidIdleRate[interfaceNumber];
 403              		.loc 1 229 0
 404 017e BA79     		ldrb	r2, [r7, #6]	@ zero_extendqisi2
 405 0180 1749     		ldr	r1, .L41+24
 406 0182 8A5C     		ldrb	r2, [r1, r2]
 407 0184 D1B2     		uxtb	r1, r2
 228:.\Generated_Source\PSoC5/USBUART_hid.c ****                         USBUART_hidIdleTimer[interfaceNumber] =
 408              		.loc 1 228 0
 409 0186 184A     		ldr	r2, .L41+32
 410 0188 D154     		strb	r1, [r2, r3]
 411              	.L36:
 231:.\Generated_Source\PSoC5/USBUART_hid.c ****                     requestHandled = USBUART_InitNoDataControlTransfer();
 412              		.loc 1 231 0
 413 018a FFF7FEFF 		bl	USBUART_InitNoDataControlTransfer
 414 018e 0346     		mov	r3, r0
 415 0190 FB71     		strb	r3, [r7, #7]
 233:.\Generated_Source\PSoC5/USBUART_hid.c ****                 break;
 416              		.loc 1 233 0
ARM GAS  C:\Users\CHAIYA~1\AppData\Local\Temp\cceYnCpn.s 			page 13


 417 0192 14E0     		b	.L33
 418              	.L34:
 419 0194 13E0     		b	.L33
 420              	.L30:
 237:.\Generated_Source\PSoC5/USBUART_hid.c ****                 if( (interfaceNumber < USBUART_MAX_INTERFACES_NUMBER) &&
 421              		.loc 1 237 0
 422 0196 BB79     		ldrb	r3, [r7, #6]	@ zero_extendqisi2
 423 0198 012B     		cmp	r3, #1
 424 019a 0FD8     		bhi	.L37
 238:.\Generated_Source\PSoC5/USBUART_hid.c ****                     (CY_GET_REG8(USBUART_wValueLo) <= 1u) )
 425              		.loc 1 238 0 discriminator 1
 426 019c 0F4B     		ldr	r3, .L41+20
 427 019e 1B78     		ldrb	r3, [r3]
 428 01a0 DBB2     		uxtb	r3, r3
 237:.\Generated_Source\PSoC5/USBUART_hid.c ****                 if( (interfaceNumber < USBUART_MAX_INTERFACES_NUMBER) &&
 429              		.loc 1 237 0 discriminator 1
 430 01a2 012B     		cmp	r3, #1
 431 01a4 0AD8     		bhi	.L37
 240:.\Generated_Source\PSoC5/USBUART_hid.c ****                     USBUART_hidProtocol[interfaceNumber] = CY_GET_REG8(USBUART_wValueLo);
 432              		.loc 1 240 0
 433 01a6 BB79     		ldrb	r3, [r7, #6]	@ zero_extendqisi2
 434 01a8 0C4A     		ldr	r2, .L41+20
 435 01aa 1278     		ldrb	r2, [r2]
 436 01ac D1B2     		uxtb	r1, r2
 437 01ae 0D4A     		ldr	r2, .L41+28
 438 01b0 D154     		strb	r1, [r2, r3]
 241:.\Generated_Source\PSoC5/USBUART_hid.c ****                     requestHandled = USBUART_InitNoDataControlTransfer();
 439              		.loc 1 241 0
 440 01b2 FFF7FEFF 		bl	USBUART_InitNoDataControlTransfer
 441 01b6 0346     		mov	r3, r0
 442 01b8 FB71     		strb	r3, [r7, #7]
 243:.\Generated_Source\PSoC5/USBUART_hid.c ****                 break;
 443              		.loc 1 243 0
 444 01ba FFE7     		b	.L40
 445              	.L37:
 446              	.L40:
 447 01bc 00BF     		nop
 448              	.L33:
 449              	.L27:
 246:.\Generated_Source\PSoC5/USBUART_hid.c ****         }
 247:.\Generated_Source\PSoC5/USBUART_hid.c ****     }
 248:.\Generated_Source\PSoC5/USBUART_hid.c ****     else
 249:.\Generated_Source\PSoC5/USBUART_hid.c ****     {   /* requestHandled is initialized as FALSE by default */
 250:.\Generated_Source\PSoC5/USBUART_hid.c ****     }
 251:.\Generated_Source\PSoC5/USBUART_hid.c **** 
 252:.\Generated_Source\PSoC5/USBUART_hid.c ****     return(requestHandled);
 450              		.loc 1 252 0
 451 01be FB79     		ldrb	r3, [r7, #7]	@ zero_extendqisi2
 253:.\Generated_Source\PSoC5/USBUART_hid.c **** }
 452              		.loc 1 253 0
 453 01c0 1846     		mov	r0, r3
 454 01c2 0837     		adds	r7, r7, #8
 455 01c4 BD46     		mov	sp, r7
 456              		@ sp needed
 457 01c6 80BD     		pop	{r7, pc}
 458              	.L42:
 459              		.align	2
ARM GAS  C:\Users\CHAIYA~1\AppData\Local\Temp\cceYnCpn.s 			page 14


 460              	.L41:
 461 01c8 04600040 		.word	1073766404
 462 01cc 00600040 		.word	1073766400
 463 01d0 01600040 		.word	1073766401
 464 01d4 03600040 		.word	1073766403
 465 01d8 00000000 		.word	USBUART_currentTD
 466 01dc 02600040 		.word	1073766402
 467 01e0 00000000 		.word	USBUART_hidIdleRate
 468 01e4 00000000 		.word	USBUART_hidProtocol
 469 01e8 00000000 		.word	USBUART_hidIdleTimer
 470              		.cfi_endproc
 471              	.LFE2:
 472              		.size	USBUART_DispatchHIDClassRqst, .-USBUART_DispatchHIDClassRqst
 473              		.section	.text.USBUART_FindHidClassDecriptor,"ax",%progbits
 474              		.align	2
 475              		.global	USBUART_FindHidClassDecriptor
 476              		.thumb
 477              		.thumb_func
 478              		.type	USBUART_FindHidClassDecriptor, %function
 479              	USBUART_FindHidClassDecriptor:
 480              	.LFB3:
 254:.\Generated_Source\PSoC5/USBUART_hid.c **** 
 255:.\Generated_Source\PSoC5/USBUART_hid.c **** 
 256:.\Generated_Source\PSoC5/USBUART_hid.c **** /*******************************************************************************
 257:.\Generated_Source\PSoC5/USBUART_hid.c **** * Function Name: USB_FindHidClassDescriptor
 258:.\Generated_Source\PSoC5/USBUART_hid.c **** ********************************************************************************
 259:.\Generated_Source\PSoC5/USBUART_hid.c **** *
 260:.\Generated_Source\PSoC5/USBUART_hid.c **** * Summary:
 261:.\Generated_Source\PSoC5/USBUART_hid.c **** *  This routine find Hid Class Descriptor pointer based on the Interface number
 262:.\Generated_Source\PSoC5/USBUART_hid.c **** *  and Alternate setting then loads the currentTD structure with the address of
 263:.\Generated_Source\PSoC5/USBUART_hid.c **** *  the buffer and the size.
 264:.\Generated_Source\PSoC5/USBUART_hid.c **** *  The HID Class Descriptor resides inside the config descriptor.
 265:.\Generated_Source\PSoC5/USBUART_hid.c **** *
 266:.\Generated_Source\PSoC5/USBUART_hid.c **** * Parameters:
 267:.\Generated_Source\PSoC5/USBUART_hid.c **** *  None.
 268:.\Generated_Source\PSoC5/USBUART_hid.c **** *
 269:.\Generated_Source\PSoC5/USBUART_hid.c **** * Return:
 270:.\Generated_Source\PSoC5/USBUART_hid.c **** *  currentTD
 271:.\Generated_Source\PSoC5/USBUART_hid.c **** *
 272:.\Generated_Source\PSoC5/USBUART_hid.c **** * Reentrant:
 273:.\Generated_Source\PSoC5/USBUART_hid.c **** *  No.
 274:.\Generated_Source\PSoC5/USBUART_hid.c **** *
 275:.\Generated_Source\PSoC5/USBUART_hid.c **** *******************************************************************************/
 276:.\Generated_Source\PSoC5/USBUART_hid.c **** void USBUART_FindHidClassDecriptor(void) 
 277:.\Generated_Source\PSoC5/USBUART_hid.c **** {
 481              		.loc 1 277 0
 482              		.cfi_startproc
 483              		@ args = 0, pretend = 0, frame = 16
 484              		@ frame_needed = 1, uses_anonymous_args = 0
 485 0000 80B5     		push	{r7, lr}
 486              		.cfi_def_cfa_offset 8
 487              		.cfi_offset 7, -8
 488              		.cfi_offset 14, -4
 489 0002 84B0     		sub	sp, sp, #16
 490              		.cfi_def_cfa_offset 24
 491 0004 00AF     		add	r7, sp, #0
 492              		.cfi_def_cfa_register 7
ARM GAS  C:\Users\CHAIYA~1\AppData\Local\Temp\cceYnCpn.s 			page 15


 278:.\Generated_Source\PSoC5/USBUART_hid.c ****     const T_USBUART_LUT CYCODE *pTmp;
 279:.\Generated_Source\PSoC5/USBUART_hid.c ****     volatile uint8 *pDescr;
 280:.\Generated_Source\PSoC5/USBUART_hid.c ****     uint8 interfaceN;
 281:.\Generated_Source\PSoC5/USBUART_hid.c **** 
 282:.\Generated_Source\PSoC5/USBUART_hid.c ****     pTmp = USBUART_GetConfigTablePtr(USBUART_configuration - 1u);
 493              		.loc 1 282 0
 494 0006 194B     		ldr	r3, .L44
 495 0008 1B78     		ldrb	r3, [r3]
 496 000a DBB2     		uxtb	r3, r3
 497 000c 013B     		subs	r3, r3, #1
 498 000e DBB2     		uxtb	r3, r3
 499 0010 1846     		mov	r0, r3
 500 0012 FFF7FEFF 		bl	USBUART_GetConfigTablePtr
 501 0016 F860     		str	r0, [r7, #12]
 283:.\Generated_Source\PSoC5/USBUART_hid.c ****     interfaceN = CY_GET_REG8(USBUART_wIndexLo);
 502              		.loc 1 283 0
 503 0018 154B     		ldr	r3, .L44+4
 504 001a 1B78     		ldrb	r3, [r3]
 505 001c FB72     		strb	r3, [r7, #11]
 284:.\Generated_Source\PSoC5/USBUART_hid.c ****     /* Third entry in the LUT starts the Interface Table pointers */
 285:.\Generated_Source\PSoC5/USBUART_hid.c ****     /* Now use the request interface number*/
 286:.\Generated_Source\PSoC5/USBUART_hid.c ****     pTmp = &pTmp[interfaceN + 2u];
 506              		.loc 1 286 0
 507 001e FB7A     		ldrb	r3, [r7, #11]	@ zero_extendqisi2
 508 0020 0233     		adds	r3, r3, #2
 509 0022 DB00     		lsls	r3, r3, #3
 510 0024 FA68     		ldr	r2, [r7, #12]
 511 0026 1344     		add	r3, r3, r2
 512 0028 FB60     		str	r3, [r7, #12]
 287:.\Generated_Source\PSoC5/USBUART_hid.c ****     /* USB_DEVICEx_CONFIGURATIONy_INTERFACEz_TABLE */
 288:.\Generated_Source\PSoC5/USBUART_hid.c ****     pTmp = (const T_USBUART_LUT CYCODE *) pTmp->p_list;
 513              		.loc 1 288 0
 514 002a FB68     		ldr	r3, [r7, #12]
 515 002c 5B68     		ldr	r3, [r3, #4]
 516 002e FB60     		str	r3, [r7, #12]
 289:.\Generated_Source\PSoC5/USBUART_hid.c ****     /* Now use Alternate setting number */
 290:.\Generated_Source\PSoC5/USBUART_hid.c ****     pTmp = &pTmp[USBUART_interfaceSetting[interfaceN]];
 517              		.loc 1 290 0
 518 0030 FB7A     		ldrb	r3, [r7, #11]	@ zero_extendqisi2
 519 0032 104A     		ldr	r2, .L44+8
 520 0034 D35C     		ldrb	r3, [r2, r3]
 521 0036 DBB2     		uxtb	r3, r3
 522 0038 DB00     		lsls	r3, r3, #3
 523 003a FA68     		ldr	r2, [r7, #12]
 524 003c 1344     		add	r3, r3, r2
 525 003e FB60     		str	r3, [r7, #12]
 291:.\Generated_Source\PSoC5/USBUART_hid.c ****     /* USB_DEVICEx_CONFIGURATIONy_INTERFACEz_ALTERNATEi_HID_TABLE */
 292:.\Generated_Source\PSoC5/USBUART_hid.c ****     pTmp = (const T_USBUART_LUT CYCODE *) pTmp->p_list;
 526              		.loc 1 292 0
 527 0040 FB68     		ldr	r3, [r7, #12]
 528 0042 5B68     		ldr	r3, [r3, #4]
 529 0044 FB60     		str	r3, [r7, #12]
 293:.\Generated_Source\PSoC5/USBUART_hid.c ****     /* Fifth entry in the LUT points to Hid Class Descriptor in Configuration Descriptor */
 294:.\Generated_Source\PSoC5/USBUART_hid.c ****     pTmp = &pTmp[4u];
 530              		.loc 1 294 0
 531 0046 FB68     		ldr	r3, [r7, #12]
 532 0048 2033     		adds	r3, r3, #32
ARM GAS  C:\Users\CHAIYA~1\AppData\Local\Temp\cceYnCpn.s 			page 16


 533 004a FB60     		str	r3, [r7, #12]
 295:.\Generated_Source\PSoC5/USBUART_hid.c ****     pDescr = (volatile uint8 *)pTmp->p_list;
 534              		.loc 1 295 0
 535 004c FB68     		ldr	r3, [r7, #12]
 536 004e 5B68     		ldr	r3, [r3, #4]
 537 0050 7B60     		str	r3, [r7, #4]
 296:.\Generated_Source\PSoC5/USBUART_hid.c ****     /* The first byte contains the descriptor length */
 297:.\Generated_Source\PSoC5/USBUART_hid.c ****     USBUART_currentTD.count = *pDescr;
 538              		.loc 1 297 0
 539 0052 7B68     		ldr	r3, [r7, #4]
 540 0054 1B78     		ldrb	r3, [r3]
 541 0056 DBB2     		uxtb	r3, r3
 542 0058 1A46     		mov	r2, r3
 543 005a 074B     		ldr	r3, .L44+12
 544 005c 1A80     		strh	r2, [r3]	@ movhi
 298:.\Generated_Source\PSoC5/USBUART_hid.c ****     USBUART_currentTD.pData = pDescr;
 545              		.loc 1 298 0
 546 005e 064B     		ldr	r3, .L44+12
 547 0060 7A68     		ldr	r2, [r7, #4]
 548 0062 5A60     		str	r2, [r3, #4]
 299:.\Generated_Source\PSoC5/USBUART_hid.c **** }
 549              		.loc 1 299 0
 550 0064 1037     		adds	r7, r7, #16
 551 0066 BD46     		mov	sp, r7
 552              		@ sp needed
 553 0068 80BD     		pop	{r7, pc}
 554              	.L45:
 555 006a 00BF     		.align	2
 556              	.L44:
 557 006c 00000000 		.word	USBUART_configuration
 558 0070 04600040 		.word	1073766404
 559 0074 00000000 		.word	USBUART_interfaceSetting
 560 0078 00000000 		.word	USBUART_currentTD
 561              		.cfi_endproc
 562              	.LFE3:
 563              		.size	USBUART_FindHidClassDecriptor, .-USBUART_FindHidClassDecriptor
 564              		.section	.text.USBUART_FindReportDescriptor,"ax",%progbits
 565              		.align	2
 566              		.global	USBUART_FindReportDescriptor
 567              		.thumb
 568              		.thumb_func
 569              		.type	USBUART_FindReportDescriptor, %function
 570              	USBUART_FindReportDescriptor:
 571              	.LFB4:
 300:.\Generated_Source\PSoC5/USBUART_hid.c **** 
 301:.\Generated_Source\PSoC5/USBUART_hid.c **** 
 302:.\Generated_Source\PSoC5/USBUART_hid.c **** /*******************************************************************************
 303:.\Generated_Source\PSoC5/USBUART_hid.c **** * Function Name: USB_FindReportDescriptor
 304:.\Generated_Source\PSoC5/USBUART_hid.c **** ********************************************************************************
 305:.\Generated_Source\PSoC5/USBUART_hid.c **** *
 306:.\Generated_Source\PSoC5/USBUART_hid.c **** * Summary:
 307:.\Generated_Source\PSoC5/USBUART_hid.c **** *  This routine find Hid Report Descriptor pointer based on the Interface
 308:.\Generated_Source\PSoC5/USBUART_hid.c **** *  number, then loads the currentTD structure with the address of the buffer
 309:.\Generated_Source\PSoC5/USBUART_hid.c **** *  and the size.
 310:.\Generated_Source\PSoC5/USBUART_hid.c **** *  Hid Report Descriptor is located after IN/OUT/FEATURE reports.
 311:.\Generated_Source\PSoC5/USBUART_hid.c **** *
 312:.\Generated_Source\PSoC5/USBUART_hid.c **** * Parameters:
ARM GAS  C:\Users\CHAIYA~1\AppData\Local\Temp\cceYnCpn.s 			page 17


 313:.\Generated_Source\PSoC5/USBUART_hid.c **** *   void
 314:.\Generated_Source\PSoC5/USBUART_hid.c **** *
 315:.\Generated_Source\PSoC5/USBUART_hid.c **** * Return:
 316:.\Generated_Source\PSoC5/USBUART_hid.c **** *  currentTD
 317:.\Generated_Source\PSoC5/USBUART_hid.c **** *
 318:.\Generated_Source\PSoC5/USBUART_hid.c **** * Reentrant:
 319:.\Generated_Source\PSoC5/USBUART_hid.c **** *  No.
 320:.\Generated_Source\PSoC5/USBUART_hid.c **** *
 321:.\Generated_Source\PSoC5/USBUART_hid.c **** *******************************************************************************/
 322:.\Generated_Source\PSoC5/USBUART_hid.c **** void USBUART_FindReportDescriptor(void) 
 323:.\Generated_Source\PSoC5/USBUART_hid.c **** {
 572              		.loc 1 323 0
 573              		.cfi_startproc
 574              		@ args = 0, pretend = 0, frame = 16
 575              		@ frame_needed = 1, uses_anonymous_args = 0
 576 0000 80B5     		push	{r7, lr}
 577              		.cfi_def_cfa_offset 8
 578              		.cfi_offset 7, -8
 579              		.cfi_offset 14, -4
 580 0002 84B0     		sub	sp, sp, #16
 581              		.cfi_def_cfa_offset 24
 582 0004 00AF     		add	r7, sp, #0
 583              		.cfi_def_cfa_register 7
 324:.\Generated_Source\PSoC5/USBUART_hid.c ****     const T_USBUART_LUT CYCODE *pTmp;
 325:.\Generated_Source\PSoC5/USBUART_hid.c ****     volatile uint8 *pDescr;
 326:.\Generated_Source\PSoC5/USBUART_hid.c ****     uint8 interfaceN;
 327:.\Generated_Source\PSoC5/USBUART_hid.c **** 
 328:.\Generated_Source\PSoC5/USBUART_hid.c ****     pTmp = USBUART_GetConfigTablePtr(USBUART_configuration - 1u);
 584              		.loc 1 328 0
 585 0006 1D4B     		ldr	r3, .L47
 586 0008 1B78     		ldrb	r3, [r3]
 587 000a DBB2     		uxtb	r3, r3
 588 000c 013B     		subs	r3, r3, #1
 589 000e DBB2     		uxtb	r3, r3
 590 0010 1846     		mov	r0, r3
 591 0012 FFF7FEFF 		bl	USBUART_GetConfigTablePtr
 592 0016 F860     		str	r0, [r7, #12]
 329:.\Generated_Source\PSoC5/USBUART_hid.c ****     interfaceN = CY_GET_REG8(USBUART_wIndexLo);
 593              		.loc 1 329 0
 594 0018 194B     		ldr	r3, .L47+4
 595 001a 1B78     		ldrb	r3, [r3]
 596 001c FB72     		strb	r3, [r7, #11]
 330:.\Generated_Source\PSoC5/USBUART_hid.c ****     /* Third entry in the LUT starts the Interface Table pointers */
 331:.\Generated_Source\PSoC5/USBUART_hid.c ****     /* Now use the request interface number */
 332:.\Generated_Source\PSoC5/USBUART_hid.c ****     pTmp = &pTmp[interfaceN + 2u];
 597              		.loc 1 332 0
 598 001e FB7A     		ldrb	r3, [r7, #11]	@ zero_extendqisi2
 599 0020 0233     		adds	r3, r3, #2
 600 0022 DB00     		lsls	r3, r3, #3
 601 0024 FA68     		ldr	r2, [r7, #12]
 602 0026 1344     		add	r3, r3, r2
 603 0028 FB60     		str	r3, [r7, #12]
 333:.\Generated_Source\PSoC5/USBUART_hid.c ****     /* USB_DEVICEx_CONFIGURATIONy_INTERFACEz_TABLE */
 334:.\Generated_Source\PSoC5/USBUART_hid.c ****     pTmp = (const T_USBUART_LUT CYCODE *) pTmp->p_list;
 604              		.loc 1 334 0
 605 002a FB68     		ldr	r3, [r7, #12]
 606 002c 5B68     		ldr	r3, [r3, #4]
ARM GAS  C:\Users\CHAIYA~1\AppData\Local\Temp\cceYnCpn.s 			page 18


 607 002e FB60     		str	r3, [r7, #12]
 335:.\Generated_Source\PSoC5/USBUART_hid.c ****     /* Now use Alternate setting number */
 336:.\Generated_Source\PSoC5/USBUART_hid.c ****     pTmp = &pTmp[USBUART_interfaceSetting[interfaceN]];
 608              		.loc 1 336 0
 609 0030 FB7A     		ldrb	r3, [r7, #11]	@ zero_extendqisi2
 610 0032 144A     		ldr	r2, .L47+8
 611 0034 D35C     		ldrb	r3, [r2, r3]
 612 0036 DBB2     		uxtb	r3, r3
 613 0038 DB00     		lsls	r3, r3, #3
 614 003a FA68     		ldr	r2, [r7, #12]
 615 003c 1344     		add	r3, r3, r2
 616 003e FB60     		str	r3, [r7, #12]
 337:.\Generated_Source\PSoC5/USBUART_hid.c ****     /* USB_DEVICEx_CONFIGURATIONy_INTERFACEz_ALTERNATEi_HID_TABLE */
 338:.\Generated_Source\PSoC5/USBUART_hid.c ****     pTmp = (const T_USBUART_LUT CYCODE *) pTmp->p_list;
 617              		.loc 1 338 0
 618 0040 FB68     		ldr	r3, [r7, #12]
 619 0042 5B68     		ldr	r3, [r3, #4]
 620 0044 FB60     		str	r3, [r7, #12]
 339:.\Generated_Source\PSoC5/USBUART_hid.c ****     /* Fourth entry in the LUT starts the Hid Report Descriptor */
 340:.\Generated_Source\PSoC5/USBUART_hid.c ****     pTmp = &pTmp[3u];
 621              		.loc 1 340 0
 622 0046 FB68     		ldr	r3, [r7, #12]
 623 0048 1833     		adds	r3, r3, #24
 624 004a FB60     		str	r3, [r7, #12]
 341:.\Generated_Source\PSoC5/USBUART_hid.c ****     pDescr = (volatile uint8 *)pTmp->p_list;
 625              		.loc 1 341 0
 626 004c FB68     		ldr	r3, [r7, #12]
 627 004e 5B68     		ldr	r3, [r3, #4]
 628 0050 7B60     		str	r3, [r7, #4]
 342:.\Generated_Source\PSoC5/USBUART_hid.c ****     /* The 1st and 2nd bytes of descriptor contain its length. LSB is 1st. */
 343:.\Generated_Source\PSoC5/USBUART_hid.c ****     USBUART_currentTD.count =  (((uint16)pDescr[1u] << 8u) | pDescr[0u]);
 629              		.loc 1 343 0
 630 0052 7B68     		ldr	r3, [r7, #4]
 631 0054 0133     		adds	r3, r3, #1
 632 0056 1B78     		ldrb	r3, [r3]
 633 0058 DBB2     		uxtb	r3, r3
 634 005a 1B02     		lsls	r3, r3, #8
 635 005c 9AB2     		uxth	r2, r3
 636 005e 7B68     		ldr	r3, [r7, #4]
 637 0060 1B78     		ldrb	r3, [r3]
 638 0062 DBB2     		uxtb	r3, r3
 639 0064 1343     		orrs	r3, r3, r2
 640 0066 9BB2     		uxth	r3, r3
 641 0068 9AB2     		uxth	r2, r3
 642 006a 074B     		ldr	r3, .L47+12
 643 006c 1A80     		strh	r2, [r3]	@ movhi
 344:.\Generated_Source\PSoC5/USBUART_hid.c ****     USBUART_currentTD.pData = &pDescr[2u];
 644              		.loc 1 344 0
 645 006e 7B68     		ldr	r3, [r7, #4]
 646 0070 9A1C     		adds	r2, r3, #2
 647 0072 054B     		ldr	r3, .L47+12
 648 0074 5A60     		str	r2, [r3, #4]
 345:.\Generated_Source\PSoC5/USBUART_hid.c **** }
 649              		.loc 1 345 0
 650 0076 1037     		adds	r7, r7, #16
 651 0078 BD46     		mov	sp, r7
 652              		@ sp needed
ARM GAS  C:\Users\CHAIYA~1\AppData\Local\Temp\cceYnCpn.s 			page 19


 653 007a 80BD     		pop	{r7, pc}
 654              	.L48:
 655              		.align	2
 656              	.L47:
 657 007c 00000000 		.word	USBUART_configuration
 658 0080 04600040 		.word	1073766404
 659 0084 00000000 		.word	USBUART_interfaceSetting
 660 0088 00000000 		.word	USBUART_currentTD
 661              		.cfi_endproc
 662              	.LFE4:
 663              		.size	USBUART_FindReportDescriptor, .-USBUART_FindReportDescriptor
 664              		.section	.text.USBUART_FindReport,"ax",%progbits
 665              		.align	2
 666              		.global	USBUART_FindReport
 667              		.thumb
 668              		.thumb_func
 669              		.type	USBUART_FindReport, %function
 670              	USBUART_FindReport:
 671              	.LFB5:
 346:.\Generated_Source\PSoC5/USBUART_hid.c **** 
 347:.\Generated_Source\PSoC5/USBUART_hid.c **** 
 348:.\Generated_Source\PSoC5/USBUART_hid.c **** /*******************************************************************************
 349:.\Generated_Source\PSoC5/USBUART_hid.c **** * Function Name: USBUART_FindReport
 350:.\Generated_Source\PSoC5/USBUART_hid.c **** ********************************************************************************
 351:.\Generated_Source\PSoC5/USBUART_hid.c **** *
 352:.\Generated_Source\PSoC5/USBUART_hid.c **** * Summary:
 353:.\Generated_Source\PSoC5/USBUART_hid.c **** *  This routine sets up a transfer based on the Interface number, Report Type
 354:.\Generated_Source\PSoC5/USBUART_hid.c **** *  and Report ID, then loads the currentTD structure with the address of the
 355:.\Generated_Source\PSoC5/USBUART_hid.c **** *  buffer and the size.  The caller has to decide if it is a control read or
 356:.\Generated_Source\PSoC5/USBUART_hid.c **** *  control write.
 357:.\Generated_Source\PSoC5/USBUART_hid.c **** *
 358:.\Generated_Source\PSoC5/USBUART_hid.c **** * Parameters:
 359:.\Generated_Source\PSoC5/USBUART_hid.c **** *  None.
 360:.\Generated_Source\PSoC5/USBUART_hid.c **** *
 361:.\Generated_Source\PSoC5/USBUART_hid.c **** * Return:
 362:.\Generated_Source\PSoC5/USBUART_hid.c **** *  currentTD
 363:.\Generated_Source\PSoC5/USBUART_hid.c **** *
 364:.\Generated_Source\PSoC5/USBUART_hid.c **** * Reentrant:
 365:.\Generated_Source\PSoC5/USBUART_hid.c **** *  No.
 366:.\Generated_Source\PSoC5/USBUART_hid.c **** *
 367:.\Generated_Source\PSoC5/USBUART_hid.c **** *******************************************************************************/
 368:.\Generated_Source\PSoC5/USBUART_hid.c **** void USBUART_FindReport(void) 
 369:.\Generated_Source\PSoC5/USBUART_hid.c **** {
 672              		.loc 1 369 0
 673              		.cfi_startproc
 674              		@ args = 0, pretend = 0, frame = 16
 675              		@ frame_needed = 1, uses_anonymous_args = 0
 676 0000 80B5     		push	{r7, lr}
 677              		.cfi_def_cfa_offset 8
 678              		.cfi_offset 7, -8
 679              		.cfi_offset 14, -4
 680 0002 84B0     		sub	sp, sp, #16
 681              		.cfi_def_cfa_offset 24
 682 0004 00AF     		add	r7, sp, #0
 683              		.cfi_def_cfa_register 7
 370:.\Generated_Source\PSoC5/USBUART_hid.c ****     const T_USBUART_LUT CYCODE *pTmp;
 371:.\Generated_Source\PSoC5/USBUART_hid.c ****     T_USBUART_TD *pTD;
ARM GAS  C:\Users\CHAIYA~1\AppData\Local\Temp\cceYnCpn.s 			page 20


 372:.\Generated_Source\PSoC5/USBUART_hid.c ****     uint8 interfaceN;
 373:.\Generated_Source\PSoC5/USBUART_hid.c ****     uint8 reportType;
 374:.\Generated_Source\PSoC5/USBUART_hid.c **** 
 375:.\Generated_Source\PSoC5/USBUART_hid.c ****     /* `#START HID_FINDREPORT` Place custom handling here */
 376:.\Generated_Source\PSoC5/USBUART_hid.c **** 
 377:.\Generated_Source\PSoC5/USBUART_hid.c ****     /* `#END` */
 378:.\Generated_Source\PSoC5/USBUART_hid.c ****     USBUART_currentTD.count = 0u;   /* Init not supported condition */
 684              		.loc 1 378 0
 685 0006 2C4B     		ldr	r3, .L51
 686 0008 0022     		movs	r2, #0
 687 000a 1A80     		strh	r2, [r3]	@ movhi
 379:.\Generated_Source\PSoC5/USBUART_hid.c ****     pTmp = USBUART_GetConfigTablePtr(USBUART_configuration - 1u);
 688              		.loc 1 379 0
 689 000c 2B4B     		ldr	r3, .L51+4
 690 000e 1B78     		ldrb	r3, [r3]
 691 0010 DBB2     		uxtb	r3, r3
 692 0012 013B     		subs	r3, r3, #1
 693 0014 DBB2     		uxtb	r3, r3
 694 0016 1846     		mov	r0, r3
 695 0018 FFF7FEFF 		bl	USBUART_GetConfigTablePtr
 696 001c F860     		str	r0, [r7, #12]
 380:.\Generated_Source\PSoC5/USBUART_hid.c ****     reportType = CY_GET_REG8(USBUART_wValueHi);
 697              		.loc 1 380 0
 698 001e 284B     		ldr	r3, .L51+8
 699 0020 1B78     		ldrb	r3, [r3]
 700 0022 FB72     		strb	r3, [r7, #11]
 381:.\Generated_Source\PSoC5/USBUART_hid.c ****     interfaceN = CY_GET_REG8(USBUART_wIndexLo);
 701              		.loc 1 381 0
 702 0024 274B     		ldr	r3, .L51+12
 703 0026 1B78     		ldrb	r3, [r3]
 704 0028 BB72     		strb	r3, [r7, #10]
 382:.\Generated_Source\PSoC5/USBUART_hid.c ****     /* Third entry in the LUT COnfiguration Table starts the Interface Table pointers */
 383:.\Generated_Source\PSoC5/USBUART_hid.c ****     /* Now use the request interface number */
 384:.\Generated_Source\PSoC5/USBUART_hid.c ****     pTmp = &pTmp[interfaceN + 2u];
 705              		.loc 1 384 0
 706 002a BB7A     		ldrb	r3, [r7, #10]	@ zero_extendqisi2
 707 002c 0233     		adds	r3, r3, #2
 708 002e DB00     		lsls	r3, r3, #3
 709 0030 FA68     		ldr	r2, [r7, #12]
 710 0032 1344     		add	r3, r3, r2
 711 0034 FB60     		str	r3, [r7, #12]
 385:.\Generated_Source\PSoC5/USBUART_hid.c ****     /* USB_DEVICEx_CONFIGURATIONy_INTERFACEz_TABLE*/
 386:.\Generated_Source\PSoC5/USBUART_hid.c ****     pTmp = (const T_USBUART_LUT CYCODE *) pTmp->p_list;
 712              		.loc 1 386 0
 713 0036 FB68     		ldr	r3, [r7, #12]
 714 0038 5B68     		ldr	r3, [r3, #4]
 715 003a FB60     		str	r3, [r7, #12]
 387:.\Generated_Source\PSoC5/USBUART_hid.c ****     if(interfaceN < USBUART_MAX_INTERFACES_NUMBER)
 716              		.loc 1 387 0
 717 003c BB7A     		ldrb	r3, [r7, #10]	@ zero_extendqisi2
 718 003e 012B     		cmp	r3, #1
 719 0040 37D8     		bhi	.L49
 388:.\Generated_Source\PSoC5/USBUART_hid.c ****     {
 389:.\Generated_Source\PSoC5/USBUART_hid.c ****         /* Now use Alternate setting number */
 390:.\Generated_Source\PSoC5/USBUART_hid.c ****         pTmp = &pTmp[USBUART_interfaceSetting[interfaceN]];
 720              		.loc 1 390 0
 721 0042 BB7A     		ldrb	r3, [r7, #10]	@ zero_extendqisi2
ARM GAS  C:\Users\CHAIYA~1\AppData\Local\Temp\cceYnCpn.s 			page 21


 722 0044 204A     		ldr	r2, .L51+16
 723 0046 D35C     		ldrb	r3, [r2, r3]
 724 0048 DBB2     		uxtb	r3, r3
 725 004a DB00     		lsls	r3, r3, #3
 726 004c FA68     		ldr	r2, [r7, #12]
 727 004e 1344     		add	r3, r3, r2
 728 0050 FB60     		str	r3, [r7, #12]
 391:.\Generated_Source\PSoC5/USBUART_hid.c ****         /* USB_DEVICEx_CONFIGURATIONy_INTERFACEz_ALTERNATEi_HID_TABLE */
 392:.\Generated_Source\PSoC5/USBUART_hid.c ****         pTmp = (const T_USBUART_LUT CYCODE *) pTmp->p_list;
 729              		.loc 1 392 0
 730 0052 FB68     		ldr	r3, [r7, #12]
 731 0054 5B68     		ldr	r3, [r3, #4]
 732 0056 FB60     		str	r3, [r7, #12]
 393:.\Generated_Source\PSoC5/USBUART_hid.c ****         /* Validate reportType to comply with "7.2.1 Get_Report Request" */
 394:.\Generated_Source\PSoC5/USBUART_hid.c ****         if((reportType >= USBUART_HID_GET_REPORT_INPUT) &&
 733              		.loc 1 394 0
 734 0058 FB7A     		ldrb	r3, [r7, #11]	@ zero_extendqisi2
 735 005a 002B     		cmp	r3, #0
 736 005c 29D0     		beq	.L49
 737              		.loc 1 394 0 is_stmt 0 discriminator 1
 738 005e FB7A     		ldrb	r3, [r7, #11]	@ zero_extendqisi2
 739 0060 032B     		cmp	r3, #3
 740 0062 26D8     		bhi	.L49
 395:.\Generated_Source\PSoC5/USBUART_hid.c ****            (reportType <= USBUART_HID_GET_REPORT_FEATURE))
 396:.\Generated_Source\PSoC5/USBUART_hid.c ****         {
 397:.\Generated_Source\PSoC5/USBUART_hid.c ****             /* Get the entry proper TD (IN, OUT or Feature Report Table)*/
 398:.\Generated_Source\PSoC5/USBUART_hid.c ****             pTmp = &pTmp[reportType - 1u];
 741              		.loc 1 398 0 is_stmt 1
 742 0064 FB7A     		ldrb	r3, [r7, #11]	@ zero_extendqisi2
 743 0066 03F10053 		add	r3, r3, #536870912
 744 006a 013B     		subs	r3, r3, #1
 745 006c DB00     		lsls	r3, r3, #3
 746 006e FA68     		ldr	r2, [r7, #12]
 747 0070 1344     		add	r3, r3, r2
 748 0072 FB60     		str	r3, [r7, #12]
 399:.\Generated_Source\PSoC5/USBUART_hid.c ****             reportType = CY_GET_REG8(USBUART_wValueLo);    /* Get reportID */
 749              		.loc 1 399 0
 750 0074 154B     		ldr	r3, .L51+20
 751 0076 1B78     		ldrb	r3, [r3]
 752 0078 FB72     		strb	r3, [r7, #11]
 400:.\Generated_Source\PSoC5/USBUART_hid.c ****             /* Validate table support by the HID descriptor, compare table count with reportID */
 401:.\Generated_Source\PSoC5/USBUART_hid.c ****             if(pTmp->c >= reportType)
 753              		.loc 1 401 0
 754 007a FB68     		ldr	r3, [r7, #12]
 755 007c 1B78     		ldrb	r3, [r3]	@ zero_extendqisi2
 756 007e FA7A     		ldrb	r2, [r7, #11]	@ zero_extendqisi2
 757 0080 9A42     		cmp	r2, r3
 758 0082 16D8     		bhi	.L49
 402:.\Generated_Source\PSoC5/USBUART_hid.c ****             {
 403:.\Generated_Source\PSoC5/USBUART_hid.c ****                 pTD = (T_USBUART_TD *) pTmp->p_list;
 759              		.loc 1 403 0
 760 0084 FB68     		ldr	r3, [r7, #12]
 761 0086 5B68     		ldr	r3, [r3, #4]
 762 0088 7B60     		str	r3, [r7, #4]
 404:.\Generated_Source\PSoC5/USBUART_hid.c ****                 pTD = &pTD[reportType];                          /* select entry depend on report I
 763              		.loc 1 404 0
 764 008a FA7A     		ldrb	r2, [r7, #11]	@ zero_extendqisi2
ARM GAS  C:\Users\CHAIYA~1\AppData\Local\Temp\cceYnCpn.s 			page 22


 765 008c 1346     		mov	r3, r2
 766 008e 5B00     		lsls	r3, r3, #1
 767 0090 1344     		add	r3, r3, r2
 768 0092 9B00     		lsls	r3, r3, #2
 769 0094 7A68     		ldr	r2, [r7, #4]
 770 0096 1344     		add	r3, r3, r2
 771 0098 7B60     		str	r3, [r7, #4]
 405:.\Generated_Source\PSoC5/USBUART_hid.c ****                 USBUART_currentTD.pData = pTD->pData;   /* Buffer pointer */
 772              		.loc 1 405 0
 773 009a 7B68     		ldr	r3, [r7, #4]
 774 009c 5A68     		ldr	r2, [r3, #4]
 775 009e 064B     		ldr	r3, .L51
 776 00a0 5A60     		str	r2, [r3, #4]
 406:.\Generated_Source\PSoC5/USBUART_hid.c ****                 USBUART_currentTD.count = pTD->count;   /* Buffer Size */
 777              		.loc 1 406 0
 778 00a2 7B68     		ldr	r3, [r7, #4]
 779 00a4 1A88     		ldrh	r2, [r3]
 780 00a6 044B     		ldr	r3, .L51
 781 00a8 1A80     		strh	r2, [r3]	@ movhi
 407:.\Generated_Source\PSoC5/USBUART_hid.c ****                 USBUART_currentTD.pStatusBlock = pTD->pStatusBlock;
 782              		.loc 1 407 0
 783 00aa 7B68     		ldr	r3, [r7, #4]
 784 00ac 9A68     		ldr	r2, [r3, #8]
 785 00ae 024B     		ldr	r3, .L51
 786 00b0 9A60     		str	r2, [r3, #8]
 787              	.L49:
 408:.\Generated_Source\PSoC5/USBUART_hid.c ****             }
 409:.\Generated_Source\PSoC5/USBUART_hid.c ****         }
 410:.\Generated_Source\PSoC5/USBUART_hid.c ****     }
 411:.\Generated_Source\PSoC5/USBUART_hid.c **** }
 788              		.loc 1 411 0
 789 00b2 1037     		adds	r7, r7, #16
 790 00b4 BD46     		mov	sp, r7
 791              		@ sp needed
 792 00b6 80BD     		pop	{r7, pc}
 793              	.L52:
 794              		.align	2
 795              	.L51:
 796 00b8 00000000 		.word	USBUART_currentTD
 797 00bc 00000000 		.word	USBUART_configuration
 798 00c0 03600040 		.word	1073766403
 799 00c4 04600040 		.word	1073766404
 800 00c8 00000000 		.word	USBUART_interfaceSetting
 801 00cc 02600040 		.word	1073766402
 802              		.cfi_endproc
 803              	.LFE5:
 804              		.size	USBUART_FindReport, .-USBUART_FindReport
 805              		.text
 806              	.Letext0:
 807              		.file 2 ".\\Generated_Source\\PSoC5\\cytypes.h"
 808              		.file 3 ".\\Generated_Source\\PSoC5\\USBUART.h"
 809              		.file 4 ".\\Generated_Source\\PSoC5\\USBUART_pvt.h"