ARM GAS  C:\Users\CHAIYA~1\AppData\Local\Temp\cceYnCpn.s 			page 1


   1              		.syntax unified
   2              		.cpu cortex-m3
   3              		.fpu softvfp
   4              		.eabi_attribute 20, 1
   5              		.eabi_attribute 21, 1
   6              		.eabi_attribute 23, 3
   7              		.eabi_attribute 24, 1
   8              		.eabi_attribute 25, 1
   9              		.eabi_attribute 26, 1
  10              		.eabi_attribute 30, 6
  11              		.eabi_attribute 34, 1
  12              		.eabi_attribute 18, 4
  13              		.thumb
  14              		.file	"USBUART_hid.c"
  15              		.text
  16              	.Ltext0:
  17              		.cfi_sections	.debug_frame
  18              		.comm	USBUART_hidProtocol,2,4
  19              		.comm	USBUART_hidIdleRate,2,4
  20              		.comm	USBUART_hidIdleTimer,2,4
  21              		.section	.text.USBUART_UpdateHIDTimer,"ax",%progbits
  22              		.align	2
  23              		.global	USBUART_UpdateHIDTimer
  24              		.thumb
  25              		.thumb_func
  26              		.type	USBUART_UpdateHIDTimer, %function
  27              	USBUART_UpdateHIDTimer:
  28              	.LFB0:
  29              		.file 1 ".\\Generated_Source\\PSoC5\\USBUART_hid.c"
   1:.\Generated_Source\PSoC5/USBUART_hid.c **** /*******************************************************************************
   2:.\Generated_Source\PSoC5/USBUART_hid.c **** * File Name: USBUART_hid.c
   3:.\Generated_Source\PSoC5/USBUART_hid.c **** * Version 2.80
   4:.\Generated_Source\PSoC5/USBUART_hid.c **** *
   5:.\Generated_Source\PSoC5/USBUART_hid.c **** * Description:
   6:.\Generated_Source\PSoC5/USBUART_hid.c **** *  USB HID Class request handler.
   7:.\Generated_Source\PSoC5/USBUART_hid.c **** *
   8:.\Generated_Source\PSoC5/USBUART_hid.c **** * Related Document:
   9:.\Generated_Source\PSoC5/USBUART_hid.c **** *  Device Class Definition for Human Interface Devices (HID) Version 1.11
  10:.\Generated_Source\PSoC5/USBUART_hid.c **** *
  11:.\Generated_Source\PSoC5/USBUART_hid.c **** * Note:
  12:.\Generated_Source\PSoC5/USBUART_hid.c **** *
  13:.\Generated_Source\PSoC5/USBUART_hid.c **** ********************************************************************************
  14:.\Generated_Source\PSoC5/USBUART_hid.c **** * Copyright 2008-2014, Cypress Semiconductor Corporation.  All rights reserved.
  15:.\Generated_Source\PSoC5/USBUART_hid.c **** * You may use this file only in accordance with the license, terms, conditions,
  16:.\Generated_Source\PSoC5/USBUART_hid.c **** * disclaimers, and limitations in the end user license agreement accompanying
  17:.\Generated_Source\PSoC5/USBUART_hid.c **** * the software package with which this file was provided.
  18:.\Generated_Source\PSoC5/USBUART_hid.c **** *******************************************************************************/
  19:.\Generated_Source\PSoC5/USBUART_hid.c **** 
  20:.\Generated_Source\PSoC5/USBUART_hid.c **** #include "USBUART.h"
  21:.\Generated_Source\PSoC5/USBUART_hid.c **** 
  22:.\Generated_Source\PSoC5/USBUART_hid.c **** #if defined(USBUART_ENABLE_HID_CLASS)
  23:.\Generated_Source\PSoC5/USBUART_hid.c **** 
  24:.\Generated_Source\PSoC5/USBUART_hid.c **** #include "USBUART_pvt.h"
  25:.\Generated_Source\PSoC5/USBUART_hid.c **** #include "USBUART_hid.h"
  26:.\Generated_Source\PSoC5/USBUART_hid.c **** 
  27:.\Generated_Source\PSoC5/USBUART_hid.c **** 
  28:.\Generated_Source\PSoC5/USBUART_hid.c **** /***************************************
ARM GAS  C:\Users\CHAIYA~1\AppData\Local\Temp\cceYnCpn.s 			page 2


  29:.\Generated_Source\PSoC5/USBUART_hid.c **** *    HID Variables
  30:.\Generated_Source\PSoC5/USBUART_hid.c **** ***************************************/
  31:.\Generated_Source\PSoC5/USBUART_hid.c **** 
  32:.\Generated_Source\PSoC5/USBUART_hid.c **** volatile uint8 USBUART_hidProtocol[USBUART_MAX_INTERFACES_NUMBER];  /* HID device protocol status *
  33:.\Generated_Source\PSoC5/USBUART_hid.c **** volatile uint8 USBUART_hidIdleRate[USBUART_MAX_INTERFACES_NUMBER];  /* HID device idle reload value
  34:.\Generated_Source\PSoC5/USBUART_hid.c **** volatile uint8 USBUART_hidIdleTimer[USBUART_MAX_INTERFACES_NUMBER]; /* HID device idle rate value *
  35:.\Generated_Source\PSoC5/USBUART_hid.c **** 
  36:.\Generated_Source\PSoC5/USBUART_hid.c **** 
  37:.\Generated_Source\PSoC5/USBUART_hid.c **** /***************************************
  38:.\Generated_Source\PSoC5/USBUART_hid.c **** * Custom Declarations
  39:.\Generated_Source\PSoC5/USBUART_hid.c **** ***************************************/
  40:.\Generated_Source\PSoC5/USBUART_hid.c **** 
  41:.\Generated_Source\PSoC5/USBUART_hid.c **** /* `#START HID_CUSTOM_DECLARATIONS` Place your declaration here */
  42:.\Generated_Source\PSoC5/USBUART_hid.c **** 
  43:.\Generated_Source\PSoC5/USBUART_hid.c **** /* `#END` */
  44:.\Generated_Source\PSoC5/USBUART_hid.c **** 
  45:.\Generated_Source\PSoC5/USBUART_hid.c **** 
  46:.\Generated_Source\PSoC5/USBUART_hid.c **** /*******************************************************************************
  47:.\Generated_Source\PSoC5/USBUART_hid.c **** * Function Name: USBUART_UpdateHIDTimer
  48:.\Generated_Source\PSoC5/USBUART_hid.c **** ********************************************************************************
  49:.\Generated_Source\PSoC5/USBUART_hid.c **** *
  50:.\Generated_Source\PSoC5/USBUART_hid.c **** * Summary:
  51:.\Generated_Source\PSoC5/USBUART_hid.c **** *  Updates the HID report timer and reloads it if expired
  52:.\Generated_Source\PSoC5/USBUART_hid.c **** *
  53:.\Generated_Source\PSoC5/USBUART_hid.c **** * Parameters:
  54:.\Generated_Source\PSoC5/USBUART_hid.c **** *  interface:  Interface Number.
  55:.\Generated_Source\PSoC5/USBUART_hid.c **** *
  56:.\Generated_Source\PSoC5/USBUART_hid.c **** * Return:
  57:.\Generated_Source\PSoC5/USBUART_hid.c **** *  status.
  58:.\Generated_Source\PSoC5/USBUART_hid.c **** *
  59:.\Generated_Source\PSoC5/USBUART_hid.c **** * Reentrant:
  60:.\Generated_Source\PSoC5/USBUART_hid.c **** *  No.
  61:.\Generated_Source\PSoC5/USBUART_hid.c **** *
  62:.\Generated_Source\PSoC5/USBUART_hid.c **** *******************************************************************************/
  63:.\Generated_Source\PSoC5/USBUART_hid.c **** uint8 USBUART_UpdateHIDTimer(uint8 interface) 
  64:.\Generated_Source\PSoC5/USBUART_hid.c **** {
  30              		.loc 1 64 0
  31              		.cfi_startproc
  32              		@ args = 0, pretend = 0, frame = 16
  33              		@ frame_needed = 1, uses_anonymous_args = 0
  34              		@ link register save eliminated.
  35 0000 80B4     		push	{r7}
  36              		.cfi_def_cfa_offset 4
  37              		.cfi_offset 7, -4
  38 0002 85B0     		sub	sp, sp, #20
  39              		.cfi_def_cfa_offset 24
  40 0004 00AF     		add	r7, sp, #0
  41              		.cfi_def_cfa_register 7
  42 0006 0346     		mov	r3, r0
  43 0008 FB71     		strb	r3, [r7, #7]
  65:.\Generated_Source\PSoC5/USBUART_hid.c ****     uint8 stat = USBUART_IDLE_TIMER_INDEFINITE;
  44              		.loc 1 65 0
  45 000a 0023     		movs	r3, #0
  46 000c FB73     		strb	r3, [r7, #15]
  66:.\Generated_Source\PSoC5/USBUART_hid.c **** 
  67:.\Generated_Source\PSoC5/USBUART_hid.c ****     if(USBUART_hidIdleRate[interface] != 0u)
  47              		.loc 1 67 0
ARM GAS  C:\Users\CHAIYA~1\AppData\Local\Temp\cceYnCpn.s 			page 3


  48 000e FB79     		ldrb	r3, [r7, #7]	@ zero_extendqisi2
  49 0010 124A     		ldr	r2, .L5
  50 0012 D35C     		ldrb	r3, [r2, r3]
  51 0014 DBB2     		uxtb	r3, r3
  52 0016 002B     		cmp	r3, #0
  53 0018 19D0     		beq	.L2
  68:.\Generated_Source\PSoC5/USBUART_hid.c ****     {
  69:.\Generated_Source\PSoC5/USBUART_hid.c ****         if(USBUART_hidIdleTimer[interface] > 0u)
  54              		.loc 1 69 0
  55 001a FB79     		ldrb	r3, [r7, #7]	@ zero_extendqisi2
  56 001c 104A     		ldr	r2, .L5+4
  57 001e D35C     		ldrb	r3, [r2, r3]
  58 0020 DBB2     		uxtb	r3, r3
  59 0022 002B     		cmp	r3, #0
  60 0024 0AD0     		beq	.L3
  70:.\Generated_Source\PSoC5/USBUART_hid.c ****         {
  71:.\Generated_Source\PSoC5/USBUART_hid.c ****             USBUART_hidIdleTimer[interface]--;
  61              		.loc 1 71 0
  62 0026 FB79     		ldrb	r3, [r7, #7]	@ zero_extendqisi2
  63 0028 0D4A     		ldr	r2, .L5+4
  64 002a D25C     		ldrb	r2, [r2, r3]
  65 002c D2B2     		uxtb	r2, r2
  66 002e 013A     		subs	r2, r2, #1
  67 0030 D1B2     		uxtb	r1, r2
  68 0032 0B4A     		ldr	r2, .L5+4
  69 0034 D154     		strb	r1, [r2, r3]
  72:.\Generated_Source\PSoC5/USBUART_hid.c ****             stat = USBUART_IDLE_TIMER_RUNNING;
  70              		.loc 1 72 0
  71 0036 0223     		movs	r3, #2
  72 0038 FB73     		strb	r3, [r7, #15]
  73 003a 08E0     		b	.L2
  74              	.L3:
  73:.\Generated_Source\PSoC5/USBUART_hid.c ****         }
  74:.\Generated_Source\PSoC5/USBUART_hid.c ****         else
  75:.\Generated_Source\PSoC5/USBUART_hid.c ****         {
  76:.\Generated_Source\PSoC5/USBUART_hid.c ****             USBUART_hidIdleTimer[interface] = USBUART_hidIdleRate[interface];
  75              		.loc 1 76 0
  76 003c FB79     		ldrb	r3, [r7, #7]	@ zero_extendqisi2
  77 003e FA79     		ldrb	r2, [r7, #7]	@ zero_extendqisi2
  78 0040 0649     		ldr	r1, .L5
  79 0042 8A5C     		ldrb	r2, [r1, r2]
  80 0044 D1B2     		uxtb	r1, r2
  81 0046 064A     		ldr	r2, .L5+4
  82 0048 D154     		strb	r1, [r2, r3]
  77:.\Generated_Source\PSoC5/USBUART_hid.c ****             stat = USBUART_IDLE_TIMER_EXPIRED;
  83              		.loc 1 77 0
  84 004a 0123     		movs	r3, #1
  85 004c FB73     		strb	r3, [r7, #15]
  86              	.L2:
  78:.\Generated_Source\PSoC5/USBUART_hid.c ****         }
  79:.\Generated_Source\PSoC5/USBUART_hid.c ****     }
  80:.\Generated_Source\PSoC5/USBUART_hid.c **** 
  81:.\Generated_Source\PSoC5/USBUART_hid.c ****     return(stat);
  87              		.loc 1 81 0
  88 004e FB7B     		ldrb	r3, [r7, #15]	@ zero_extendqisi2
  82:.\Generated_Source\PSoC5/USBUART_hid.c **** }
  89              		.loc 1 82 0
ARM GAS  C:\Users\CHAIYA~1\AppData\Local\Temp\cceYnCpn.s 			page 4


  90 0050 1846     		mov	r0, r3
  91 0052 1437     		adds	r7, r7, #20
  92 0054 BD46     		mov	sp, r7
  93              		@ sp needed
  94 0056 5DF8047B 		ldr	r7, [sp], #4
  95 005a 7047     		bx	lr
  96              	.L6:
  97              		.align	2
  98              	.L5:
  99 005c 00000000 		.word	USBUART_hidIdleRate
 100 0060 00000000 		.word	USBUART_hidIdleTimer
 101              		.cfi_endproc
 102              	.LFE0:
 103              		.size	USBUART_UpdateHIDTimer, .-USBUART_UpdateHIDTimer
 104              		.section	.text.USBUART_GetProtocol,"ax",%progbits
 105              		.align	2
 106              		.global	USBUART_GetProtocol
 107              		.thumb
 108              		.thumb_func
 109              		.type	USBUART_GetProtocol, %function
 110              	USBUART_GetProtocol:
 111              	.LFB1:
  83:.\Generated_Source\PSoC5/USBUART_hid.c **** 
  84:.\Generated_Source\PSoC5/USBUART_hid.c **** 
  85:.\Generated_Source\PSoC5/USBUART_hid.c **** /*******************************************************************************
  86:.\Generated_Source\PSoC5/USBUART_hid.c **** * Function Name: USBUART_GetProtocol
  87:.\Generated_Source\PSoC5/USBUART_hid.c **** ********************************************************************************
  88:.\Generated_Source\PSoC5/USBUART_hid.c **** *
  89:.\Generated_Source\PSoC5/USBUART_hid.c **** * Summary:
  90:.\Generated_Source\PSoC5/USBUART_hid.c **** *  Returns the selected protocol value to the application
  91:.\Generated_Source\PSoC5/USBUART_hid.c **** *
  92:.\Generated_Source\PSoC5/USBUART_hid.c **** * Parameters:
  93:.\Generated_Source\PSoC5/USBUART_hid.c **** *  interface:  Interface Number.
  94:.\Generated_Source\PSoC5/USBUART_hid.c **** *
  95:.\Generated_Source\PSoC5/USBUART_hid.c **** * Return:
  96:.\Generated_Source\PSoC5/USBUART_hid.c **** *  Interface protocol.
  97:.\Generated_Source\PSoC5/USBUART_hid.c **** *
  98:.\Generated_Source\PSoC5/USBUART_hid.c **** *******************************************************************************/
  99:.\Generated_Source\PSoC5/USBUART_hid.c **** uint8 USBUART_GetProtocol(uint8 interface) 
 100:.\Generated_Source\PSoC5/USBUART_hid.c **** {
 112              		.loc 1 100 0
 113              		.cfi_startproc
 114              		@ args = 0, pretend = 0, frame = 8
 115              		@ frame_needed = 1, uses_anonymous_args = 0
 116              		@ link register save eliminated.
 117 0000 80B4     		push	{r7}
 118              		.cfi_def_cfa_offset 4
 119              		.cfi_offset 7, -4
 120 0002 83B0     		sub	sp, sp, #12
 121              		.cfi_def_cfa_offset 16
 122 0004 00AF     		add	r7, sp, #0
 123              		.cfi_def_cfa_register 7
 124 0006 0346     		mov	r3, r0
 125 0008 FB71     		strb	r3, [r7, #7]
 101:.\Generated_Source\PSoC5/USBUART_hid.c ****     return(USBUART_hidProtocol[interface]);
 126              		.loc 1 101 0
 127 000a FB79     		ldrb	r3, [r7, #7]	@ zero_extendqisi2
ARM GAS  C:\Users\CHAIYA~1\AppData\Local\Temp\cceYnCpn.s 			page 5


 128 000c 044A     		ldr	r2, .L9
 129 000e D35C     		ldrb	r3, [r2, r3]
 130 0010 DBB2     		uxtb	r3, r3
 102:.\Generated_Source\PSoC5/USBUART_hid.c **** }
 131              		.loc 1 102 0
 132 0012 1846     		mov	r0, r3
 133 0014 0C37     		adds	r7, r7, #12
 134 0016 BD46     		mov	sp, r7
 135              		@ sp needed
 136 0018 5DF8047B 		ldr	r7, [sp], #4
 137 001c 7047     		bx	lr
 138              	.L10:
 139 001e 00BF     		.align	2
 140              	.L9:
 141 0020 00000000 		.word	USBUART_hidProtocol
 142              		.cfi_endproc
 143              	.LFE1:
 144              		.size	USBUART_GetProtocol, .-USBUART_GetProtocol
 145              		.section	.text.USBUART_DispatchHIDClassRqst,"ax",%progbits
 146              		.align	2
 147              		.global	USBUART_DispatchHIDClassRqst
 148              		.thumb
 149              		.thumb_func
 150              		.type	USBUART_DispatchHIDClassRqst, %function
 151              	USBUART_DispatchHIDClassRqst:
 152              	.LFB2:
 103:.\Generated_Source\PSoC5/USBUART_hid.c **** 
 104:.\Generated_Source\PSoC5/USBUART_hid.c **** 
 105:.\Generated_Source\PSoC5/USBUART_hid.c **** /*******************************************************************************
 106:.\Generated_Source\PSoC5/USBUART_hid.c **** * Function Name: USBUART_DispatchHIDClassRqst
 107:.\Generated_Source\PSoC5/USBUART_hid.c **** ********************************************************************************
 108:.\Generated_Source\PSoC5/USBUART_hid.c **** *
 109:.\Generated_Source\PSoC5/USBUART_hid.c **** * Summary:
 110:.\Generated_Source\PSoC5/USBUART_hid.c **** *  This routine dispatches class requests
 111:.\Generated_Source\PSoC5/USBUART_hid.c **** *
 112:.\Generated_Source\PSoC5/USBUART_hid.c **** * Parameters:
 113:.\Generated_Source\PSoC5/USBUART_hid.c **** *  None.
 114:.\Generated_Source\PSoC5/USBUART_hid.c **** *
 115:.\Generated_Source\PSoC5/USBUART_hid.c **** * Return:
 116:.\Generated_Source\PSoC5/USBUART_hid.c **** *  requestHandled
 117:.\Generated_Source\PSoC5/USBUART_hid.c **** *
 118:.\Generated_Source\PSoC5/USBUART_hid.c **** * Reentrant:
 119:.\Generated_Source\PSoC5/USBUART_hid.c **** *  No.
 120:.\Generated_Source\PSoC5/USBUART_hid.c **** *
 121:.\Generated_Source\PSoC5/USBUART_hid.c **** *******************************************************************************/
 122:.\Generated_Source\PSoC5/USBUART_hid.c **** uint8 USBUART_DispatchHIDClassRqst(void) 
 123:.\Generated_Source\PSoC5/USBUART_hid.c **** {
 153              		.loc 1 123 0
 154              		.cfi_startproc
 155              		@ args = 0, pretend = 0, frame = 8
 156              		@ frame_needed = 1, uses_anonymous_args = 0
 157 0000 80B5     		push	{r7, lr}
 158              		.cfi_def_cfa_offset 8
 159              		.cfi_offset 7, -8
 160              		.cfi_offset 14, -4
 161 0002 82B0     		sub	sp, sp, #8
 162              		.cfi_def_cfa_offset 16
ARM GAS  C:\Users\CHAIYA~1\AppData\Local\Temp\cceYnCpn.s 			page 6


 163 0004 00AF     		add	r7, sp, #0
 164              		.cfi_def_cfa_register 7
 124:.\Generated_Source\PSoC5/USBUART_hid.c ****     uint8 requestHandled = USBUART_FALSE;
 165              		.loc 1 124 0
 166 0006 0023     		movs	r3, #0
 167 0008 FB71     		strb	r3, [r7, #7]
 125:.\Generated_Source\PSoC5/USBUART_hid.c ****     uint8 interfaceNumber;
 126:.\Generated_Source\PSoC5/USBUART_hid.c **** 
 127:.\Generated_Source\PSoC5/USBUART_hid.c ****     interfaceNumber = CY_GET_REG8(USBUART_wIndexLo);
 168              		.loc 1 127 0
 169 000a 6F4B     		ldr	r3, .L41
 170 000c 1B78     		ldrb	r3, [r3]
 171 000e BB71     		strb	r3, [r7, #6]
 128:.\Generated_Source\PSoC5/USBUART_hid.c ****     if ((CY_GET_REG8(USBUART_bmRequestType) & USBUART_RQST_DIR_MASK) == USBUART_RQST_DIR_D2H)
 172              		.loc 1 128 0
 173 0010 6E4B     		ldr	r3, .L41+4
 174 0012 1B78     		ldrb	r3, [r3]
 175 0014 DBB2     		uxtb	r3, r3
 176 0016 DBB2     		uxtb	r3, r3
 177 0018 5BB2     		sxtb	r3, r3
 178 001a 002B     		cmp	r3, #0
 179 001c 6DDA     		bge	.L12
 129:.\Generated_Source\PSoC5/USBUART_hid.c ****     {   /* Control Read */
 130:.\Generated_Source\PSoC5/USBUART_hid.c ****         switch (CY_GET_REG8(USBUART_bRequest))
 180              		.loc 1 130 0
 181 001e 6C4B     		ldr	r3, .L41+8
 182 0020 1B78     		ldrb	r3, [r3]
 183 0022 DBB2     		uxtb	r3, r3
 184 0024 013B     		subs	r3, r3, #1
 185 0026 052B     		cmp	r3, #5
 186 0028 65D8     		bhi	.L39
 187 002a 01A2     		adr	r2, .L15
 188 002c 52F823F0 		ldr	pc, [r2, r3, lsl #2]
 189              		.p2align 2
 190              	.L15:
 191 0030 8F000000 		.word	.L14+1
 192 0034 A9000000 		.word	.L16+1
 193 0038 D5000000 		.word	.L17+1
 194 003c F7000000 		.word	.L39+1
 195 0040 F7000000 		.word	.L39+1
 196 0044 49000000 		.word	.L18+1
 197              		.p2align 1
 198              	.L18:
 131:.\Generated_Source\PSoC5/USBUART_hid.c ****         {
 132:.\Generated_Source\PSoC5/USBUART_hid.c ****             case USBUART_GET_DESCRIPTOR:
 133:.\Generated_Source\PSoC5/USBUART_hid.c ****                 if (CY_GET_REG8(USBUART_wValueHi) == USBUART_DESCR_HID_CLASS)
 199              		.loc 1 133 0
 200 0048 624B     		ldr	r3, .L41+12
 201 004a 1B78     		ldrb	r3, [r3]
 202 004c DBB2     		uxtb	r3, r3
 203 004e 212B     		cmp	r3, #33
 204 0050 0BD1     		bne	.L19
 134:.\Generated_Source\PSoC5/USBUART_hid.c ****                 {
 135:.\Generated_Source\PSoC5/USBUART_hid.c ****                     USBUART_FindHidClassDecriptor();
 205              		.loc 1 135 0
 206 0052 FFF7FEFF 		bl	USBUART_FindHidClassDecriptor
 136:.\Generated_Source\PSoC5/USBUART_hid.c ****                     if (USBUART_currentTD.count != 0u)
ARM GAS  C:\Users\CHAIYA~1\AppData\Local\Temp\cceYnCpn.s 			page 7


 207              		.loc 1 136 0
 208 0056 604B     		ldr	r3, .L41+16
 209 0058 1B88     		ldrh	r3, [r3]	@ movhi
 210 005a 9BB2     		uxth	r3, r3
 211 005c 002B     		cmp	r3, #0
 212 005e 15D0     		beq	.L21
 137:.\Generated_Source\PSoC5/USBUART_hid.c ****                     {
 138:.\Generated_Source\PSoC5/USBUART_hid.c ****                         requestHandled = USBUART_InitControlRead();
 213              		.loc 1 138 0
 214 0060 FFF7FEFF 		bl	USBUART_InitControlRead
 215 0064 0346     		mov	r3, r0
 216 0066 FB71     		strb	r3, [r7, #7]
 139:.\Generated_Source\PSoC5/USBUART_hid.c ****                     }
 140:.\Generated_Source\PSoC5/USBUART_hid.c ****                 }
 141:.\Generated_Source\PSoC5/USBUART_hid.c ****                 else if (CY_GET_REG8(USBUART_wValueHi) == USBUART_DESCR_HID_REPORT)
 142:.\Generated_Source\PSoC5/USBUART_hid.c ****                 {
 143:.\Generated_Source\PSoC5/USBUART_hid.c ****                     USBUART_FindReportDescriptor();
 144:.\Generated_Source\PSoC5/USBUART_hid.c ****                     if (USBUART_currentTD.count != 0u)
 145:.\Generated_Source\PSoC5/USBUART_hid.c ****                     {
 146:.\Generated_Source\PSoC5/USBUART_hid.c ****                         requestHandled = USBUART_InitControlRead();
 147:.\Generated_Source\PSoC5/USBUART_hid.c ****                     }
 148:.\Generated_Source\PSoC5/USBUART_hid.c ****                 }
 149:.\Generated_Source\PSoC5/USBUART_hid.c ****                 else
 150:.\Generated_Source\PSoC5/USBUART_hid.c ****                 {   /* requestHandled is initialezed as FALSE by default */
 151:.\Generated_Source\PSoC5/USBUART_hid.c ****                 }
 152:.\Generated_Source\PSoC5/USBUART_hid.c ****                 break;
 217              		.loc 1 152 0
 218 0068 46E0     		b	.L23
 219              	.L19:
 141:.\Generated_Source\PSoC5/USBUART_hid.c ****                 else if (CY_GET_REG8(USBUART_wValueHi) == USBUART_DESCR_HID_REPORT)
 220              		.loc 1 141 0
 221 006a 5A4B     		ldr	r3, .L41+12
 222 006c 1B78     		ldrb	r3, [r3]
 223 006e DBB2     		uxtb	r3, r3
 224 0070 222B     		cmp	r3, #34
 225 0072 0BD1     		bne	.L21
 143:.\Generated_Source\PSoC5/USBUART_hid.c ****                     USBUART_FindReportDescriptor();
 226              		.loc 1 143 0
 227 0074 FFF7FEFF 		bl	USBUART_FindReportDescriptor
 144:.\Generated_Source\PSoC5/USBUART_hid.c ****                     if (USBUART_currentTD.count != 0u)
 228              		.loc 1 144 0
 229 0078 574B     		ldr	r3, .L41+16
 230 007a 1B88     		ldrh	r3, [r3]	@ movhi
 231 007c 9BB2     		uxth	r3, r3
 232 007e 002B     		cmp	r3, #0
 233 0080 04D0     		beq	.L21
 146:.\Generated_Source\PSoC5/USBUART_hid.c ****                         requestHandled = USBUART_InitControlRead();
 234              		.loc 1 146 0
 235 0082 FFF7FEFF 		bl	USBUART_InitControlRead
 236 0086 0346     		mov	r3, r0
 237 0088 FB71     		strb	r3, [r7, #7]
 238              		.loc 1 152 0
 239 008a 35E0     		b	.L23
 240              	.L21:
 241 008c 34E0     		b	.L23
 242              	.L14:
 153:.\Generated_Source\PSoC5/USBUART_hid.c ****             case USBUART_HID_GET_REPORT:
ARM GAS  C:\Users\CHAIYA~1\AppData\Local\Temp\cceYnCpn.s 			page 8


 154:.\Generated_Source\PSoC5/USBUART_hid.c ****                 USBUART_FindReport();
 243              		.loc 1 154 0
 244 008e FFF7FEFF 		bl	USBUART_FindReport
 155:.\Generated_Source\PSoC5/USBUART_hid.c ****                 if (USBUART_currentTD.count != 0u)
 245              		.loc 1 155 0
 246 0092 514B     		ldr	r3, .L41+16
 247 0094 1B88     		ldrh	r3, [r3]	@ movhi
 248 0096 9BB2     		uxth	r3, r3
 249 0098 002B     		cmp	r3, #0
 250 009a 04D0     		beq	.L24
 156:.\Generated_Source\PSoC5/USBUART_hid.c ****                 {
 157:.\Generated_Source\PSoC5/USBUART_hid.c ****                     requestHandled = USBUART_InitControlRead();
 251              		.loc 1 157 0
 252 009c FFF7FEFF 		bl	USBUART_InitControlRead
 253 00a0 0346     		mov	r3, r0
 254 00a2 FB71     		strb	r3, [r7, #7]
 158:.\Generated_Source\PSoC5/USBUART_hid.c ****                 }
 159:.\Generated_Source\PSoC5/USBUART_hid.c ****                 break;
 255              		.loc 1 159 0
 256 00a4 28E0     		b	.L23
 257              	.L24:
 258 00a6 27E0     		b	.L23
 259              	.L16:
 160:.\Generated_Source\PSoC5/USBUART_hid.c **** 
 161:.\Generated_Source\PSoC5/USBUART_hid.c ****             case USBUART_HID_GET_IDLE:
 162:.\Generated_Source\PSoC5/USBUART_hid.c ****                 /* This function does not support multiple reports per interface*/
 163:.\Generated_Source\PSoC5/USBUART_hid.c ****                 /* Validate interfaceNumber and Report ID (should be 0) */
 164:.\Generated_Source\PSoC5/USBUART_hid.c ****                 if( (interfaceNumber < USBUART_MAX_INTERFACES_NUMBER) &&
 260              		.loc 1 164 0
 261 00a8 BB79     		ldrb	r3, [r7, #6]	@ zero_extendqisi2
 262 00aa 012B     		cmp	r3, #1
 263 00ac 11D8     		bhi	.L25
 165:.\Generated_Source\PSoC5/USBUART_hid.c ****                     (CY_GET_REG8(USBUART_wValueLo) == 0u ) ) /* Do not support Idle per Report ID *
 264              		.loc 1 165 0 discriminator 1
 265 00ae 4B4B     		ldr	r3, .L41+20
 266 00b0 1B78     		ldrb	r3, [r3]
 267 00b2 DBB2     		uxtb	r3, r3
 164:.\Generated_Source\PSoC5/USBUART_hid.c ****                 if( (interfaceNumber < USBUART_MAX_INTERFACES_NUMBER) &&
 268              		.loc 1 164 0 discriminator 1
 269 00b4 002B     		cmp	r3, #0
 270 00b6 0CD1     		bne	.L25
 166:.\Generated_Source\PSoC5/USBUART_hid.c ****                 {
 167:.\Generated_Source\PSoC5/USBUART_hid.c ****                     USBUART_currentTD.count = 1u;
 271              		.loc 1 167 0
 272 00b8 474B     		ldr	r3, .L41+16
 273 00ba 0122     		movs	r2, #1
 274 00bc 1A80     		strh	r2, [r3]	@ movhi
 168:.\Generated_Source\PSoC5/USBUART_hid.c ****                     USBUART_currentTD.pData = &USBUART_hidIdleRate[interfaceNumber];
 275              		.loc 1 168 0
 276 00be BA79     		ldrb	r2, [r7, #6]	@ zero_extendqisi2
 277 00c0 474B     		ldr	r3, .L41+24
 278 00c2 1A44     		add	r2, r2, r3
 279 00c4 444B     		ldr	r3, .L41+16
 280 00c6 5A60     		str	r2, [r3, #4]
 169:.\Generated_Source\PSoC5/USBUART_hid.c ****                     requestHandled  = USBUART_InitControlRead();
 281              		.loc 1 169 0
 282 00c8 FFF7FEFF 		bl	USBUART_InitControlRead
ARM GAS  C:\Users\CHAIYA~1\AppData\Local\Temp\cceYnCpn.s 			page 9


 283 00cc 0346     		mov	r3, r0
 284 00ce FB71     		strb	r3, [r7, #7]
 170:.\Generated_Source\PSoC5/USBUART_hid.c ****                 }
 171:.\Generated_Source\PSoC5/USBUART_hid.c ****                 break;
 285              		.loc 1 171 0
 286 00d0 12E0     		b	.L23
 287              	.L25:
 288 00d2 11E0     		b	.L23
 289              	.L17:
 172:.\Generated_Source\PSoC5/USBUART_hid.c ****             case USBUART_HID_GET_PROTOCOL:
 173:.\Generated_Source\PSoC5/USBUART_hid.c ****                 /* Validate interfaceNumber */
 174:.\Generated_Source\PSoC5/USBUART_hid.c ****                 if( interfaceNumber < USBUART_MAX_INTERFACES_NUMBER)
 290              		.loc 1 174 0
 291 00d4 BB79     		ldrb	r3, [r7, #6]	@ zero_extendqisi2
 292 00d6 012B     		cmp	r3, #1
 293 00d8 0CD8     		bhi	.L26
 175:.\Generated_Source\PSoC5/USBUART_hid.c ****                 {
 176:.\Generated_Source\PSoC5/USBUART_hid.c ****                     USBUART_currentTD.count = 1u;
 294              		.loc 1 176 0
 295 00da 3F4B     		ldr	r3, .L41+16
 296 00dc 0122     		movs	r2, #1
 297 00de 1A80     		strh	r2, [r3]	@ movhi
 177:.\Generated_Source\PSoC5/USBUART_hid.c ****                     USBUART_currentTD.pData = &USBUART_hidProtocol[interfaceNumber];
 298              		.loc 1 177 0
 299 00e0 BA79     		ldrb	r2, [r7, #6]	@ zero_extendqisi2
 300 00e2 404B     		ldr	r3, .L41+28
 301 00e4 1A44     		add	r2, r2, r3
 302 00e6 3C4B     		ldr	r3, .L41+16
 303 00e8 5A60     		str	r2, [r3, #4]
 178:.\Generated_Source\PSoC5/USBUART_hid.c ****                     requestHandled  = USBUART_InitControlRead();
 304              		.loc 1 178 0
 305 00ea FFF7FEFF 		bl	USBUART_InitControlRead
 306 00ee 0346     		mov	r3, r0
 307 00f0 FB71     		strb	r3, [r7, #7]
 179:.\Generated_Source\PSoC5/USBUART_hid.c ****                 }
 180:.\Generated_Source\PSoC5/USBUART_hid.c ****                 break;
 308              		.loc 1 180 0
 309 00f2 01E0     		b	.L23
 310              	.L26:
 311 00f4 00E0     		b	.L23
 312              	.L39:
 181:.\Generated_Source\PSoC5/USBUART_hid.c ****             default:    /* requestHandled is initialized as FALSE by default */
 182:.\Generated_Source\PSoC5/USBUART_hid.c ****                 break;
 313              		.loc 1 182 0
 314 00f6 00BF     		nop
 315              	.L23:
 316 00f8 61E0     		b	.L27
 317              	.L12:
 183:.\Generated_Source\PSoC5/USBUART_hid.c ****         }
 184:.\Generated_Source\PSoC5/USBUART_hid.c ****     }
 185:.\Generated_Source\PSoC5/USBUART_hid.c ****     else if ((CY_GET_REG8(USBUART_bmRequestType) & USBUART_RQST_DIR_MASK) ==
 318              		.loc 1 185 0
 319 00fa 344B     		ldr	r3, .L41+4
 320 00fc 1B78     		ldrb	r3, [r3]
 321 00fe DBB2     		uxtb	r3, r3
 322 0100 DBB2     		uxtb	r3, r3
 323 0102 5BB2     		sxtb	r3, r3
ARM GAS  C:\Users\CHAIYA~1\AppData\Local\Temp\cceYnCpn.s 			page 10


 324 0104 002B     		cmp	r3, #0
 325 0106 5ADB     		blt	.L27
 186:.\Generated_Source\PSoC5/USBUART_hid.c ****                                                                             USBUART_RQST_DIR_H2D)
 187:.\Generated_Source\PSoC5/USBUART_hid.c ****     {   /* Control Write */
 188:.\Generated_Source\PSoC5/USBUART_hid.c ****         switch (CY_GET_REG8(USBUART_bRequest))
 326              		.loc 1 188 0
 327 0108 314B     		ldr	r3, .L41+8
 328 010a 1B78     		ldrb	r3, [r3]
 329 010c DBB2     		uxtb	r3, r3
 330 010e 0A2B     		cmp	r3, #10
 331 0110 11D0     		beq	.L29
 332 0112 0B2B     		cmp	r3, #11
 333 0114 3FD0     		beq	.L30
 334 0116 092B     		cmp	r3, #9
 335 0118 00D0     		beq	.L31
 189:.\Generated_Source\PSoC5/USBUART_hid.c ****         {
 190:.\Generated_Source\PSoC5/USBUART_hid.c ****             case USBUART_HID_SET_REPORT:
 191:.\Generated_Source\PSoC5/USBUART_hid.c ****                 USBUART_FindReport();
 192:.\Generated_Source\PSoC5/USBUART_hid.c ****                 if (USBUART_currentTD.count != 0u)
 193:.\Generated_Source\PSoC5/USBUART_hid.c ****                 {
 194:.\Generated_Source\PSoC5/USBUART_hid.c ****                     requestHandled = USBUART_InitControlWrite();
 195:.\Generated_Source\PSoC5/USBUART_hid.c ****                 }
 196:.\Generated_Source\PSoC5/USBUART_hid.c ****                 break;
 197:.\Generated_Source\PSoC5/USBUART_hid.c ****             case USBUART_HID_SET_IDLE:
 198:.\Generated_Source\PSoC5/USBUART_hid.c ****                 /* This function does not support multiple reports per interface */
 199:.\Generated_Source\PSoC5/USBUART_hid.c ****                 /* Validate interfaceNumber and Report ID (should be 0) */
 200:.\Generated_Source\PSoC5/USBUART_hid.c ****                 if( (interfaceNumber < USBUART_MAX_INTERFACES_NUMBER) &&
 201:.\Generated_Source\PSoC5/USBUART_hid.c ****                     (CY_GET_REG8(USBUART_wValueLo) == 0u ) ) /* Do not support Idle per Report ID *
 202:.\Generated_Source\PSoC5/USBUART_hid.c ****                 {
 203:.\Generated_Source\PSoC5/USBUART_hid.c ****                     USBUART_hidIdleRate[interfaceNumber] = CY_GET_REG8(USBUART_wValueHi);
 204:.\Generated_Source\PSoC5/USBUART_hid.c ****                     /* With regards to HID spec: "7.2.4 Set_Idle Request"
 205:.\Generated_Source\PSoC5/USBUART_hid.c ****                     *  Latency. If the current period has gone past the
 206:.\Generated_Source\PSoC5/USBUART_hid.c ****                     *  newly proscribed time duration, then a report
 207:.\Generated_Source\PSoC5/USBUART_hid.c ****                     *  will be generated immediately.
 208:.\Generated_Source\PSoC5/USBUART_hid.c ****                     */
 209:.\Generated_Source\PSoC5/USBUART_hid.c ****                     if(USBUART_hidIdleRate[interfaceNumber] <
 210:.\Generated_Source\PSoC5/USBUART_hid.c ****                        USBUART_hidIdleTimer[interfaceNumber])
 211:.\Generated_Source\PSoC5/USBUART_hid.c ****                     {
 212:.\Generated_Source\PSoC5/USBUART_hid.c ****                         /* Set the timer to zero and let the UpdateHIDTimer() API return IDLE_TIMER
 213:.\Generated_Source\PSoC5/USBUART_hid.c ****                         USBUART_hidIdleTimer[interfaceNumber] = 0u;
 214:.\Generated_Source\PSoC5/USBUART_hid.c ****                     }
 215:.\Generated_Source\PSoC5/USBUART_hid.c ****                     /* If the new request is received within 4 milliseconds
 216:.\Generated_Source\PSoC5/USBUART_hid.c ****                     *  (1 count) of the end of the current period, then the
 217:.\Generated_Source\PSoC5/USBUART_hid.c ****                     *  new request will have no effect until after the report.
 218:.\Generated_Source\PSoC5/USBUART_hid.c ****                     */
 219:.\Generated_Source\PSoC5/USBUART_hid.c ****                     else if(USBUART_hidIdleTimer[interfaceNumber] <= 1u)
 220:.\Generated_Source\PSoC5/USBUART_hid.c ****                     {
 221:.\Generated_Source\PSoC5/USBUART_hid.c ****                         /* Do nothing.
 222:.\Generated_Source\PSoC5/USBUART_hid.c ****                         *  Let the UpdateHIDTimer() API continue to work and
 223:.\Generated_Source\PSoC5/USBUART_hid.c ****                         *  return IDLE_TIMER_EXPIRED status
 224:.\Generated_Source\PSoC5/USBUART_hid.c ****                         */
 225:.\Generated_Source\PSoC5/USBUART_hid.c ****                     }
 226:.\Generated_Source\PSoC5/USBUART_hid.c ****                     else
 227:.\Generated_Source\PSoC5/USBUART_hid.c ****                     {   /* Reload the timer*/
 228:.\Generated_Source\PSoC5/USBUART_hid.c ****                         USBUART_hidIdleTimer[interfaceNumber] =
 229:.\Generated_Source\PSoC5/USBUART_hid.c ****                         USBUART_hidIdleRate[interfaceNumber];
 230:.\Generated_Source\PSoC5/USBUART_hid.c ****                     }
ARM GAS  C:\Users\CHAIYA~1\AppData\Local\Temp\cceYnCpn.s 			page 11


 231:.\Generated_Source\PSoC5/USBUART_hid.c ****                     requestHandled = USBUART_InitNoDataControlTransfer();
 232:.\Generated_Source\PSoC5/USBUART_hid.c ****                 }
 233:.\Generated_Source\PSoC5/USBUART_hid.c ****                 break;
 234:.\Generated_Source\PSoC5/USBUART_hid.c **** 
 235:.\Generated_Source\PSoC5/USBUART_hid.c ****             case USBUART_HID_SET_PROTOCOL:
 236:.\Generated_Source\PSoC5/USBUART_hid.c ****                 /* Validate interfaceNumber and protocol (must be 0 or 1) */
 237:.\Generated_Source\PSoC5/USBUART_hid.c ****                 if( (interfaceNumber < USBUART_MAX_INTERFACES_NUMBER) &&
 238:.\Generated_Source\PSoC5/USBUART_hid.c ****                     (CY_GET_REG8(USBUART_wValueLo) <= 1u) )
 239:.\Generated_Source\PSoC5/USBUART_hid.c ****                 {
 240:.\Generated_Source\PSoC5/USBUART_hid.c ****                     USBUART_hidProtocol[interfaceNumber] = CY_GET_REG8(USBUART_wValueLo);
 241:.\Generated_Source\PSoC5/USBUART_hid.c ****                     requestHandled = USBUART_InitNoDataControlTransfer();
 242:.\Generated_Source\PSoC5/USBUART_hid.c ****                 }
 243:.\Generated_Source\PSoC5/USBUART_hid.c ****                 break;
 244:.\Generated_Source\PSoC5/USBUART_hid.c ****             default:    /* requestHandled is initialized as FALSE by default */
 245:.\Generated_Source\PSoC5/USBUART_hid.c ****                 break;
 336              		.loc 1 245 0
 337 011a 50E0     		b	.L33
 338              	.L31:
 191:.\Generated_Source\PSoC5/USBUART_hid.c ****                 USBUART_FindReport();
 339              		.loc 1 191 0
 340 011c FFF7FEFF 		bl	USBUART_FindReport
 192:.\Generated_Source\PSoC5/USBUART_hid.c ****                 if (USBUART_currentTD.count != 0u)
 341              		.loc 1 192 0
 342 0120 2D4B     		ldr	r3, .L41+16
 343 0122 1B88     		ldrh	r3, [r3]	@ movhi
 344 0124 9BB2     		uxth	r3, r3
 345 0126 002B     		cmp	r3, #0
 346 0128 04D0     		beq	.L32
 194:.\Generated_Source\PSoC5/USBUART_hid.c ****                     requestHandled = USBUART_InitControlWrite();
 347              		.loc 1 194 0
 348 012a FFF7FEFF 		bl	USBUART_InitControlWrite
 349 012e 0346     		mov	r3, r0
 350 0130 FB71     		strb	r3, [r7, #7]
 196:.\Generated_Source\PSoC5/USBUART_hid.c ****                 break;
 351              		.loc 1 196 0
 352 0132 44E0     		b	.L33
 353              	.L32:
 354 0134 43E0     		b	.L33
 355              	.L29:
 200:.\Generated_Source\PSoC5/USBUART_hid.c ****                 if( (interfaceNumber < USBUART_MAX_INTERFACES_NUMBER) &&
 356              		.loc 1 200 0
 357 0136 BB79     		ldrb	r3, [r7, #6]	@ zero_extendqisi2
 358 0138 012B     		cmp	r3, #1
 359 013a 2BD8     		bhi	.L34
 201:.\Generated_Source\PSoC5/USBUART_hid.c ****                     (CY_GET_REG8(USBUART_wValueLo) == 0u ) ) /* Do not support Idle per Report ID *
 360              		.loc 1 201 0 discriminator 1
 361 013c 274B     		ldr	r3, .L41+20
 362 013e 1B78     		ldrb	r3, [r3]
 363 0140 DBB2     		uxtb	r3, r3
 200:.\Generated_Source\PSoC5/USBUART_hid.c ****                 if( (interfaceNumber < USBUART_MAX_INTERFACES_NUMBER) &&
 364              		.loc 1 200 0 discriminator 1
 365 0142 002B     		cmp	r3, #0
 366 0144 26D1     		bne	.L34
 203:.\Generated_Source\PSoC5/USBUART_hid.c ****                     USBUART_hidIdleRate[interfaceNumber] = CY_GET_REG8(USBUART_wValueHi);
 367              		.loc 1 203 0
 368 0146 BB79     		ldrb	r3, [r7, #6]	@ zero_extendqisi2
 369 0148 224A     		ldr	r2, .L41+12
ARM GAS  C:\Users\CHAIYA~1\AppData\Local\Temp\cceYnCpn.s 			page 12


 370 014a 1278     		ldrb	r2, [r2]
 371 014c D1B2     		uxtb	r1, r2
 372 014e 244A     		ldr	r2, .L41+24
 373 0150 D154     		strb	r1, [r2, r3]
 209:.\Generated_Source\PSoC5/USBUART_hid.c ****                     if(USBUART_hidIdleRate[interfaceNumber] <
 374              		.loc 1 209 0
 375 0152 BB79     		ldrb	r3, [r7, #6]	@ zero_extendqisi2
 376 0154 224A     		ldr	r2, .L41+24
 377 0156 D35C     		ldrb	r3, [r2, r3]
 378 0158 DAB2     		uxtb	r2, r3
 210:.\Generated_Source\PSoC5/USBUART_hid.c ****                        USBUART_hidIdleTimer[interfaceNumber])
 379              		.loc 1 210 0
 380 015a BB79     		ldrb	r3, [r7, #6]	@ zero_extendqisi2
 381 015c 2249     		ldr	r1, .L41+32
 382 015e CB5C     		ldrb	r3, [r1, r3]
 383 0160 DBB2     		uxtb	r3, r3
 209:.\Generated_Source\PSoC5/USBUART_hid.c ****                     if(USBUART_hidIdleRate[interfaceNumber] <
 384              		.loc 1 209 0
 385 0162 9A42     		cmp	r2, r3
 386 0164 04D2     		bcs	.L35
 213:.\Generated_Source\PSoC5/USBUART_hid.c ****                         USBUART_hidIdleTimer[interfaceNumber] = 0u;
 387              		.loc 1 213 0
 388 0166 BB79     		ldrb	r3, [r7, #6]	@ zero_extendqisi2
 389 0168 1F4A     		ldr	r2, .L41+32
 390 016a 0021     		movs	r1, #0
 391 016c D154     		strb	r1, [r2, r3]
 392 016e 0CE0     		b	.L36
 393              	.L35:
 219:.\Generated_Source\PSoC5/USBUART_hid.c ****                     else if(USBUART_hidIdleTimer[interfaceNumber] <= 1u)
 394              		.loc 1 219 0
 395 0170 BB79     		ldrb	r3, [r7, #6]	@ zero_extendqisi2
 396 0172 1D4A     		ldr	r2, .L41+32
 397 0174 D35C     		ldrb	r3, [r2, r3]
 398 0176 DBB2     		uxtb	r3, r3
 399 0178 012B     		cmp	r3, #1
 400 017a 06D9     		bls	.L36
 228:.\Generated_Source\PSoC5/USBUART_hid.c ****                         USBUART_hidIdleTimer[interfaceNumber] =
 401              		.loc 1 228 0
 402 017c BB79     		ldrb	r3, [r7, #6]	@ zero_extendqisi2
 229:.\Generated_Source\PSoC5/USBUART_hid.c ****                         USBUART_hidIdleRate[interfaceNumber];
 403              		.loc 1 229 0
 404 017e BA79     		ldrb	r2, [r7, #6]	@ zero_extendqisi2
 405 0180 1749     		ldr	r1, .L41+24
 406 0182 8A5C     		ldrb	r2, [r1, r2]
 407 0184 D1B2     		uxtb	r1, r2
 228:.\Generated_Source\PSoC5/USBUART_hid.c ****                         USBUART_hidIdleTimer[interfaceNumber] =
 408              		.loc 1 228 0
 409 0186 184A     		ldr	r2, .L41+32
 410 0188 D154     		strb	r1, [r2, r3]
 411              	.L36:
 231:.\Generated_Source\PSoC5/USBUART_hid.c ****                     requestHandled = USBUART_InitNoDataControlTransfer();
 412              		.loc 1 231 0
 413 018a FFF7FEFF 		bl	USBUART_InitNoDataControlTransfer
 414 018e 0346     		mov	r3, r0
 415 0190 FB71     		strb	r3, [r7, #7]
 233:.\Generated_Source\PSoC5/USBUART_hid.c ****                 break;
 416              		.loc 1 233 0
ARM GAS  C:\Users\CHAIYA~1\AppData\Local\Temp\cceYnCpn.s 			page 13


 417 0192 14E0     		b	.L33
 418              	.L34:
 419 0194 13E0     		b	.L33
 420              	.L30:
 237:.\Generated_Source\PSoC5/USBUART_hid.c ****                 if( (interfaceNumber < USBUART_MAX_INTERFACES_NUMBER) &&
 421              		.loc 1 237 0
 422 0196 BB79     		ldrb	r3, [r7, #6]	@ zero_extendqisi2
 423 0198 012B     		cmp	r3, #1
 424 019a 0FD8     		bhi	.L37
 238:.\Generated_Source\PSoC5/USBUART_hid.c ****                     (CY_GET_REG8(USBUART_wValueLo) <= 1u) )
 425              		.loc 1 238 0 discriminator 1
 426 019c 0F4B     		ldr	r3, .L41+20
 427 019e 1B78     		ldrb	r3, [r3]
 428 01a0 DBB2     		uxtb	r3, r3
 237:.\Generated_Source\PSoC5/USBUART_hid.c ****                 if( (interfaceNumber < USBUART_MAX_INTERFACES_NUMBER) &&
 429              		.loc 1 237 0 discriminator 1
 430 01a2 012B     		cmp	r3, #1
 431 01a4 0AD8     		bhi	.L37
 240:.\Generated_Source\PSoC5/USBUART_hid.c ****                     USBUART_hidProtocol[interfaceNumber] = CY_GET_REG8(USBUART_wValueLo);
 432              		.loc 1 240 0
 433 01a6 BB79     		ldrb	r3, [r7, #6]	@ zero_extendqisi2
 434 01a8 0C4A     		ldr	r2, .L41+20
 435 01aa 1278     		ldrb	r2, [r2]
 436 01ac D1B2     		uxtb	r1, r2
 437 01ae 0D4A     		ldr	r2, .L41+28
 438 01b0 D154     		strb	r1, [r2, r3]
 241:.\Generated_Source\PSoC5/USBUART_hid.c ****                     requestHandled = USBUART_InitNoDataControlTransfer();
 439              		.loc 1 241 0
 440 01b2 FFF7FEFF 		bl	USBUART_InitNoDataControlTransfer
 441 01b6 0346     		mov	r3, r0
 442 01b8 FB71     		strb	r3, [r7, #7]
 243:.\Generated_Source\PSoC5/USBUART_hid.c ****                 break;
 443              		.loc 1 243 0
 444 01ba FFE7     		b	.L40
 445              	.L37:
 446              	.L40:
 447 01bc 00BF     		nop
 448              	.L33:
 449              	.L27:
 246:.\Generated_Source\PSoC5/USBUART_hid.c ****         }
 247:.\Generated_Source\PSoC5/USBUART_hid.c ****     }
 248:.\Generated_Source\PSoC5/USBUART_hid.c ****     else
 249:.\Generated_Source\PSoC5/USBUART_hid.c ****     {   /* requestHandled is initialized as FALSE by default */
 250:.\Generated_Source\PSoC5/USBUART_hid.c ****     }
 251:.\Generated_Source\PSoC5/USBUART_hid.c **** 
 252:.\Generated_Source\PSoC5/USBUART_hid.c ****     return(requestHandled);
 450              		.loc 1 252 0
 451 01be FB79     		ldrb	r3, [r7, #7]	@ zero_extendqisi2
 253:.\Generated_Source\PSoC5/USBUART_hid.c **** }
 452              		.loc 1 253 0
 453 01c0 1846     		mov	r0, r3
 454 01c2 0837     		adds	r7, r7, #8
 455 01c4 BD46     		mov	sp, r7
 456              		@ sp needed
 457 01c6 80BD     		pop	{r7, pc}
 458              	.L42:
 459              		.align	2
ARM GAS  C:\Users\CHAIYA~1\AppData\Local\Temp\cceYnCpn.s 			page 14


 460              	.L41:
 461 01c8 04600040 		.word	1073766404
 462 01cc 00600040 		.word	1073766400
 463 01d0 01600040 		.word	1073766401
 464 01d4 03600040 		.word	1073766403
 465 01d8 00000000 		.word	USBUART_currentTD
 466 01dc 02600040 		.word	1073766402
 467 01e0 00000000 		.word	USBUART_hidIdleRate
 468 01e4 00000000 		.word	USBUART_hidProtocol
 469 01e8 00000000 		.word	USBUART_hidIdleTimer
 470              		.cfi_endproc
 471              	.LFE2:
 472              		.size	USBUART_DispatchHIDClassRqst, .-USBUART_DispatchHIDClassRqst
 473              		.section	.text.USBUART_FindHidClassDecriptor,"ax",%progbits
 474              		.align	2
 475              		.global	USBUART_FindHidClassDecriptor
 476              		.thumb
 477              		.thumb_func
 478              		.type	USBUART_FindHidClassDecriptor, %function
 479              	USBUART_FindHidClassDecriptor:
 480              	.LFB3:
 254:.\Generated_Source\PSoC5/USBUART_hid.c **** 
 255:.\Generated_Source\PSoC5/USBUART_hid.c **** 
 256:.\Generated_Source\PSoC5/USBUART_hid.c **** /*******************************************************************************
 257:.\Generated_Source\PSoC5/USBUART_hid.c **** * Function Name: USB_FindHidClassDescriptor
 258:.\Generated_Source\PSoC5/USBUART_hid.c **** ********************************************************************************
 259:.\Generated_Source\PSoC5/USBUART_hid.c **** *
 260:.\Generated_Source\PSoC5/USBUART_hid.c **** * Summary:
 261:.\Generated_Source\PSoC5/USBUART_hid.c **** *  This routine find Hid Class Descriptor pointer based on the Interface number
 262:.\Generated_Source\PSoC5/USBUART_hid.c **** *  and Alternate setting then loads the currentTD structure with the address of
 263:.\Generated_Source\PSoC5/USBUART_hid.c **** *  the buffer and the size.
 264:.\Generated_Source\PSoC5/USBUART_hid.c **** *  The HID Class Descriptor resides inside the config descriptor.
 265:.\Generated_Source\PSoC5/USBUART_hid.c **** *
 266:.\Generated_Source\PSoC5/USBUART_hid.c **** * Parameters:
 267:.\Generated_Source\PSoC5/USBUART_hid.c **** *  None.
 268:.\Generated_Source\PSoC5/USBUART_hid.c **** *
 269:.\Generated_Source\PSoC5/USBUART_hid.c **** * Return:
 270:.\Generated_Source\PSoC5/USBUART_hid.c **** *  currentTD
 271:.\Generated_Source\PSoC5/USBUART_hid.c **** *
 272:.\Generated_Source\PSoC5/USBUART_hid.c **** * Reentrant:
 273:.\Generated_Source\PSoC5/USBUART_hid.c **** *  No.
 274:.\Generated_Source\PSoC5/USBUART_hid.c **** *
 275:.\Generated_Source\PSoC5/USBUART_hid.c **** *******************************************************************************/
 276:.\Generated_Source\PSoC5/USBUART_hid.c **** void USBUART_FindHidClassDecriptor(void) 
 277:.\Generated_Source\PSoC5/USBUART_hid.c **** {
 481              		.loc 1 277 0
 482              		.cfi_startproc
 483              		@ args = 0, pretend = 0, frame = 16
 484              		@ frame_needed = 1, uses_anonymous_args = 0
 485 0000 80B5     		push	{r7, lr}
 486              		.cfi_def_cfa_offset 8
 487              		.cfi_offset 7, -8
 488              		.cfi_offset 14, -4
 489 0002 84B0     		sub	sp, sp, #16
 490              		.cfi_def_cfa_offset 24
 491 0004 00AF     		add	r7, sp, #0
 492              		.cfi_def_cfa_register 7
ARM GAS  C:\Users\CHAIYA~1\AppData\Local\Temp\cceYnCpn.s 			page 15


 278:.\Generated_Source\PSoC5/USBUART_hid.c ****     const T_USBUART_LUT CYCODE *pTmp;
 279:.\Generated_Source\PSoC5/USBUART_hid.c ****     volatile uint8 *pDescr;
 280:.\Generated_Source\PSoC5/USBUART_hid.c ****     uint8 interfaceN;
 281:.\Generated_Source\PSoC5/USBUART_hid.c **** 
 282:.\Generated_Source\PSoC5/USBUART_hid.c ****     pTmp = USBUART_GetConfigTablePtr(USBUART_configuration - 1u);
 493              		.loc 1 282 0
 494 0006 194B     		ldr	r3, .L44
 495 0008 1B78     		ldrb	r3, [r3]
 496 000a DBB2     		uxtb	r3, r3
 497 000c 013B     		subs	r3, r3, #1
 498 000e DBB2     		uxtb	r3, r3
 499 0010 1846     		mov	r0, r3
 500 0012 FFF7FEFF 		bl	USBUART_GetConfigTablePtr
 501 0016 F860     		str	r0, [r7, #12]
 283:.\Generated_Source\PSoC5/USBUART_hid.c ****     interfaceN = CY_GET_REG8(USBUART_wIndexLo);
 502              		.loc 1 283 0
 503 0018 154B     		ldr	r3, .L44+4
 504 001a 1B78     		ldrb	r3, [r3]
 505 001c FB72     		strb	r3, [r7, #11]
 284:.\Generated_Source\PSoC5/USBUART_hid.c ****     /* Third entry in the LUT starts the Interface Table pointers */
 285:.\Generated_Source\PSoC5/USBUART_hid.c ****     /* Now use the request interface number*/
 286:.\Generated_Source\PSoC5/USBUART_hid.c ****     pTmp = &pTmp[interfaceN + 2u];
 506              		.loc 1 286 0
 507 001e FB7A     		ldrb	r3, [r7, #11]	@ zero_extendqisi2
 508 0020 0233     		adds	r3, r3, #2
 509 0022 DB00     		lsls	r3, r3, #3
 510 0024 FA68     		ldr	r2, [r7, #12]
 511 0026 1344     		add	r3, r3, r2
 512 0028 FB60     		str	r3, [r7, #12]
 287:.\Generated_Source\PSoC5/USBUART_hid.c ****     /* USB_DEVICEx_CONFIGURATIONy_INTERFACEz_TABLE */
 288:.\Generated_Source\PSoC5/USBUART_hid.c ****     pTmp = (const T_USBUART_LUT CYCODE *) pTmp->p_list;
 513              		.loc 1 288 0
 514 002a FB68     		ldr	r3, [r7, #12]
 515 002c 5B68     		ldr	r3, [r3, #4]
 516 002e FB60     		str	r3, [r7, #12]
 289:.\Generated_Source\PSoC5/USBUART_hid.c ****     /* Now use Alternate setting number */
 290:.\Generated_Source\PSoC5/USBUART_hid.c ****     pTmp = &pTmp[USBUART_interfaceSetting[interfaceN]];
 517              		.loc 1 290 0
 518 0030 FB7A     		ldrb	r3, [r7, #11]	@ zero_extendqisi2
 519 0032 104A     		ldr	r2, .L44+8
 520 0034 D35C     		ldrb	r3, [r2, r3]
 521 0036 DBB2     		uxtb	r3, r3
 522 0038 DB00     		lsls	r3, r3, #3
 523 003a FA68     		ldr	r2, [r7, #12]
 524 003c 1344     		add	r3, r3, r2
 525 003e FB60     		str	r3, [r7, #12]
 291:.\Generated_Source\PSoC5/USBUART_hid.c ****     /* USB_DEVICEx_CONFIGURATIONy_INTERFACEz_ALTERNATEi_HID_TABLE */
 292:.\Generated_Source\PSoC5/USBUART_hid.c ****     pTmp = (const T_USBUART_LUT CYCODE *) pTmp->p_list;
 526              		.loc 1 292 0
 527 0040 FB68     		ldr	r3, [r7, #12]
 528 0042 5B68     		ldr	r3, [r3, #4]
 529 0044 FB60     		str	r3, [r7, #12]
 293:.\Generated_Source\PSoC5/USBUART_hid.c ****     /* Fifth entry in the LUT points to Hid Class Descriptor in Configuration Descriptor */
 294:.\Generated_Source\PSoC5/USBUART_hid.c ****     pTmp = &pTmp[4u];
 530              		.loc 1 294 0
 531 0046 FB68     		ldr	r3, [r7, #12]
 532 0048 2033     		adds	r3, r3, #32
ARM GAS  C:\Users\CHAIYA~1\AppData\Local\Temp\cceYnCpn.s 			page 16


 533 004a FB60     		str	r3, [r7, #12]
 295:.\Generated_Source\PSoC5/USBUART_hid.c ****     pDescr = (volatile uint8 *)pTmp->p_list;
 534              		.loc 1 295 0
 535 004c FB68     		ldr	r3, [r7, #12]
 536 004e 5B68     		ldr	r3, [r3, #4]
 537 0050 7B60     		str	r3, [r7, #4]
 296:.\Generated_Source\PSoC5/USBUART_hid.c ****     /* The first byte contains the descriptor length */
 297:.\Generated_Source\PSoC5/USBUART_hid.c ****     USBUART_currentTD.count = *pDescr;
 538              		.loc 1 297 0
 539 0052 7B68     		ldr	r3, [r7, #4]
 540 0054 1B78     		ldrb	r3, [r3]
 541 0056 DBB2     		uxtb	r3, r3
 542 0058 1A46     		mov	r2, r3
 543 005a 074B     		ldr	r3, .L44+12
 544 005c 1A80     		strh	r2, [r3]	@ movhi
 298:.\Generated_Source\PSoC5/USBUART_hid.c ****     USBUART_currentTD.pData = pDescr;
 545              		.loc 1 298 0
 546 005e 064B     		ldr	r3, .L44+12
 547 0060 7A68     		ldr	r2, [r7, #4]
 548 0062 5A60     		str	r2, [r3, #4]
 299:.\Generated_Source\PSoC5/USBUART_hid.c **** }
 549              		.loc 1 299 0
 550 0064 1037     		adds	r7, r7, #16
 551 0066 BD46     		mov	sp, r7
 552              		@ sp needed
 553 0068 80BD     		pop	{r7, pc}
 554              	.L45:
 555 006a 00BF     		.align	2
 556              	.L44:
 557 006c 00000000 		.word	USBUART_configuration
 558 0070 04600040 		.word	1073766404
 559 0074 00000000 		.word	USBUART_interfaceSetting
 560 0078 00000000 		.word	USBUART_currentTD
 561              		.cfi_endproc
 562              	.LFE3:
 563              		.size	USBUART_FindHidClassDecriptor, .-USBUART_FindHidClassDecriptor
 564              		.section	.text.USBUART_FindReportDescriptor,"ax",%progbits
 565              		.align	2
 566              		.global	USBUART_FindReportDescriptor
 567              		.thumb
 568              		.thumb_func
 569              		.type	USBUART_FindReportDescriptor, %function
 570              	USBUART_FindReportDescriptor:
 571              	.LFB4:
 300:.\Generated_Source\PSoC5/USBUART_hid.c **** 
 301:.\Generated_Source\PSoC5/USBUART_hid.c **** 
 302:.\Generated_Source\PSoC5/USBUART_hid.c **** /*******************************************************************************
 303:.\Generated_Source\PSoC5/USBUART_hid.c **** * Function Name: USB_FindReportDescriptor
 304:.\Generated_Source\PSoC5/USBUART_hid.c **** ********************************************************************************
 305:.\Generated_Source\PSoC5/USBUART_hid.c **** *
 306:.\Generated_Source\PSoC5/USBUART_hid.c **** * Summary:
 307:.\Generated_Source\PSoC5/USBUART_hid.c **** *  This routine find Hid Report Descriptor pointer based on the Interface
 308:.\Generated_Source\PSoC5/USBUART_hid.c **** *  number, then loads the currentTD structure with the address of the buffer
 309:.\Generated_Source\PSoC5/USBUART_hid.c **** *  and the size.
 310:.\Generated_Source\PSoC5/USBUART_hid.c **** *  Hid Report Descriptor is located after IN/OUT/FEATURE reports.
 311:.\Generated_Source\PSoC5/USBUART_hid.c **** *
 312:.\Generated_Source\PSoC5/USBUART_hid.c **** * Parameters:
ARM GAS  C:\Users\CHAIYA~1\AppData\Local\Temp\cceYnCpn.s 			page 17


 313:.\Generated_Source\PSoC5/USBUART_hid.c **** *   void
 314:.\Generated_Source\PSoC5/USBUART_hid.c **** *
 315:.\Generated_Source\PSoC5/USBUART_hid.c **** * Return:
 316:.\Generated_Source\PSoC5/USBUART_hid.c **** *  currentTD
 317:.\Generated_Source\PSoC5/USBUART_hid.c **** *
 318:.\Generated_Source\PSoC5/USBUART_hid.c **** * Reentrant:
 319:.\Generated_Source\PSoC5/USBUART_hid.c **** *  No.
 320:.\Generated_Source\PSoC5/USBUART_hid.c **** *
 321:.\Generated_Source\PSoC5/USBUART_hid.c **** *******************************************************************************/
 322:.\Generated_Source\PSoC5/USBUART_hid.c **** void USBUART_FindReportDescriptor(void) 
 323:.\Generated_Source\PSoC5/USBUART_hid.c **** {
 572              		.loc 1 323 0
 573              		.cfi_startproc
 574              		@ args = 0, pretend = 0, frame = 16
 575              		@ frame_needed = 1, uses_anonymous_args = 0
 576 0000 80B5     		push	{r7, lr}
 577              		.cfi_def_cfa_offset 8
 578              		.cfi_offset 7, -8
 579              		.cfi_offset 14, -4
 580 0002 84B0     		sub	sp, sp, #16
 581              		.cfi_def_cfa_offset 24
 582 0004 00AF     		add	r7, sp, #0
 583              		.cfi_def_cfa_register 7
 324:.\Generated_Source\PSoC5/USBUART_hid.c ****     const T_USBUART_LUT CYCODE *pTmp;
 325:.\Generated_Source\PSoC5/USBUART_hid.c ****     volatile uint8 *pDescr;
 326:.\Generated_Source\PSoC5/USBUART_hid.c ****     uint8 interfaceN;
 327:.\Generated_Source\PSoC5/USBUART_hid.c **** 
 328:.\Generated_Source\PSoC5/USBUART_hid.c ****     pTmp = USBUART_GetConfigTablePtr(USBUART_configuration - 1u);
 584              		.loc 1 328 0
 585 0006 1D4B     		ldr	r3, .L47
 586 0008 1B78     		ldrb	r3, [r3]
 587 000a DBB2     		uxtb	r3, r3
 588 000c 013B     		subs	r3, r3, #1
 589 000e DBB2     		uxtb	r3, r3
 590 0010 1846     		mov	r0, r3
 591 0012 FFF7FEFF 		bl	USBUART_GetConfigTablePtr
 592 0016 F860     		str	r0, [r7, #12]
 329:.\Generated_Source\PSoC5/USBUART_hid.c ****     interfaceN = CY_GET_REG8(USBUART_wIndexLo);
 593              		.loc 1 329 0
 594 0018 194B     		ldr	r3, .L47+4
 595 001a 1B78     		ldrb	r3, [r3]
 596 001c FB72     		strb	r3, [r7, #11]
 330:.\Generated_Source\PSoC5/USBUART_hid.c ****     /* Third entry in the LUT starts the Interface Table pointers */
 331:.\Generated_Source\PSoC5/USBUART_hid.c ****     /* Now use the request interface number */
 332:.\Generated_Source\PSoC5/USBUART_hid.c ****     pTmp = &pTmp[interfaceN + 2u];
 597              		.loc 1 332 0
 598 001e FB7A     		ldrb	r3, [r7, #11]	@ zero_extendqisi2
 599 0020 0233     		adds	r3, r3, #2
 600 0022 DB00     		lsls	r3, r3, #3
 601 0024 FA68     		ldr	r2, [r7, #12]
 602 0026 1344     		add	r3, r3, r2
 603 0028 FB60     		str	r3, [r7, #12]
 333:.\Generated_Source\PSoC5/USBUART_hid.c ****     /* USB_DEVICEx_CONFIGURATIONy_INTERFACEz_TABLE */
 334:.\Generated_Source\PSoC5/USBUART_hid.c ****     pTmp = (const T_USBUART_LUT CYCODE *) pTmp->p_list;
 604              		.loc 1 334 0
 605 002a FB68     		ldr	r3, [r7, #12]
 606 002c 5B68     		ldr	r3, [r3, #4]
ARM GAS  C:\Users\CHAIYA~1\AppData\Local\Temp\cceYnCpn.s 			page 18


 607 002e FB60     		str	r3, [r7, #12]
 335:.\Generated_Source\PSoC5/USBUART_hid.c ****     /* Now use Alternate setting number */
 336:.\Generated_Source\PSoC5/USBUART_hid.c ****     pTmp = &pTmp[USBUART_interfaceSetting[interfaceN]];
 608              		.loc 1 336 0
 609 0030 FB7A     		ldrb	r3, [r7, #11]	@ zero_extendqisi2
 610 0032 144A     		ldr	r2, .L47+8
 611 0034 D35C     		ldrb	r3, [r2, r3]
 612 0036 DBB2     		uxtb	r3, r3
 613 0038 DB00     		lsls	r3, r3, #3
 614 003a FA68     		ldr	r2, [r7, #12]
 615 003c 1344     		add	r3, r3, r2
 616 003e FB60     		str	r3, [r7, #12]
 337:.\Generated_Source\PSoC5/USBUART_hid.c ****     /* USB_DEVICEx_CONFIGURATIONy_INTERFACEz_ALTERNATEi_HID_TABLE */
 338:.\Generated_Source\PSoC5/USBUART_hid.c ****     pTmp = (const T_USBUART_LUT CYCODE *) pTmp->p_list;
 617              		.loc 1 338 0
 618 0040 FB68     		ldr	r3, [r7, #12]
 619 0042 5B68     		ldr	r3, [r3, #4]
 620 0044 FB60     		str	r3, [r7, #12]
 339:.\Generated_Source\PSoC5/USBUART_hid.c ****     /* Fourth entry in the LUT starts the Hid Report Descriptor */
 340:.\Generated_Source\PSoC5/USBUART_hid.c ****     pTmp = &pTmp[3u];
 621              		.loc 1 340 0
 622 0046 FB68     		ldr	r3, [r7, #12]
 623 0048 1833     		adds	r3, r3, #24
 624 004a FB60     		str	r3, [r7, #12]
 341:.\Generated_Source\PSoC5/USBUART_hid.c ****     pDescr = (volatile uint8 *)pTmp->p_list;
 625              		.loc 1 341 0
 626 004c FB68     		ldr	r3, [r7, #12]
 627 004e 5B68     		ldr	r3, [r3, #4]
 628 0050 7B60     		str	r3, [r7, #4]
 342:.\Generated_Source\PSoC5/USBUART_hid.c ****     /* The 1st and 2nd bytes of descriptor contain its length. LSB is 1st. */
 343:.\Generated_Source\PSoC5/USBUART_hid.c ****     USBUART_currentTD.count =  (((uint16)pDescr[1u] << 8u) | pDescr[0u]);
 629              		.loc 1 343 0
 630 0052 7B68     		ldr	r3, [r7, #4]
 631 0054 0133     		adds	r3, r3, #1
 632 0056 1B78     		ldrb	r3, [r3]
 633 0058 DBB2     		uxtb	r3, r3
 634 005a 1B02     		lsls	r3, r3, #8
 635 005c 9AB2     		uxth	r2, r3
 636 005e 7B68     		ldr	r3, [r7, #4]
 637 0060 1B78     		ldrb	r3, [r3]
 638 0062 DBB2     		uxtb	r3, r3
 639 0064 1343     		orrs	r3, r3, r2
 640 0066 9BB2     		uxth	r3, r3
 641 0068 9AB2     		uxth	r2, r3
 642 006a 074B     		ldr	r3, .L47+12
 643 006c 1A80     		strh	r2, [r3]	@ movhi
 344:.\Generated_Source\PSoC5/USBUART_hid.c ****     USBUART_currentTD.pData = &pDescr[2u];
 644              		.loc 1 344 0
 645 006e 7B68     		ldr	r3, [r7, #4]
 646 0070 9A1C     		adds	r2, r3, #2
 647 0072 054B     		ldr	r3, .L47+12
 648 0074 5A60     		str	r2, [r3, #4]
 345:.\Generated_Source\PSoC5/USBUART_hid.c **** }
 649              		.loc 1 345 0
 650 0076 1037     		adds	r7, r7, #16
 651 0078 BD46     		mov	sp, r7
 652              		@ sp needed
ARM GAS  C:\Users\CHAIYA~1\AppData\Local\Temp\cceYnCpn.s 			page 19


 653 007a 80BD     		pop	{r7, pc}
 654              	.L48:
 655              		.align	2
 656              	.L47:
 657 007c 00000000 		.word	USBUART_configuration
 658 0080 04600040 		.word	1073766404
 659 0084 00000000 		.word	USBUART_interfaceSetting
 660 0088 00000000 		.word	USBUART_currentTD
 661              		.cfi_endproc
 662              	.LFE4:
 663              		.size	USBUART_FindReportDescriptor, .-USBUART_FindReportDescriptor
 664              		.section	.text.USBUART_FindReport,"ax",%progbits
 665              		.align	2
 666              		.global	USBUART_FindReport
 667              		.thumb
 668              		.thumb_func
 669              		.type	USBUART_FindReport, %function
 670              	USBUART_FindReport:
 671              	.LFB5:
 346:.\Generated_Source\PSoC5/USBUART_hid.c **** 
 347:.\Generated_Source\PSoC5/USBUART_hid.c **** 
 348:.\Generated_Source\PSoC5/USBUART_hid.c **** /*******************************************************************************
 349:.\Generated_Source\PSoC5/USBUART_hid.c **** * Function Name: USBUART_FindReport
 350:.\Generated_Source\PSoC5/USBUART_hid.c **** ********************************************************************************
 351:.\Generated_Source\PSoC5/USBUART_hid.c **** *
 352:.\Generated_Source\PSoC5/USBUART_hid.c **** * Summary:
 353:.\Generated_Source\PSoC5/USBUART_hid.c **** *  This routine sets up a transfer based on the Interface number, Report Type
 354:.\Generated_Source\PSoC5/USBUART_hid.c **** *  and Report ID, then loads the currentTD structure with the address of the
 355:.\Generated_Source\PSoC5/USBUART_hid.c **** *  buffer and the size.  The caller has to decide if it is a control read or
 356:.\Generated_Source\PSoC5/USBUART_hid.c **** *  control write.
 357:.\Generated_Source\PSoC5/USBUART_hid.c **** *
 358:.\Generated_Source\PSoC5/USBUART_hid.c **** * Parameters:
 359:.\Generated_Source\PSoC5/USBUART_hid.c **** *  None.
 360:.\Generated_Source\PSoC5/USBUART_hid.c **** *
 361:.\Generated_Source\PSoC5/USBUART_hid.c **** * Return:
 362:.\Generated_Source\PSoC5/USBUART_hid.c **** *  currentTD
 363:.\Generated_Source\PSoC5/USBUART_hid.c **** *
 364:.\Generated_Source\PSoC5/USBUART_hid.c **** * Reentrant:
 365:.\Generated_Source\PSoC5/USBUART_hid.c **** *  No.
 366:.\Generated_Source\PSoC5/USBUART_hid.c **** *
 367:.\Generated_Source\PSoC5/USBUART_hid.c **** *******************************************************************************/
 368:.\Generated_Source\PSoC5/USBUART_hid.c **** void USBUART_FindReport(void) 
 369:.\Generated_Source\PSoC5/USBUART_hid.c **** {
 672              		.loc 1 369 0
 673              		.cfi_startproc
 674              		@ args = 0, pretend = 0, frame = 16
 675              		@ frame_needed = 1, uses_anonymous_args = 0
 676 0000 80B5     		push	{r7, lr}
 677              		.cfi_def_cfa_offset 8
 678              		.cfi_offset 7, -8
 679              		.cfi_offset 14, -4
 680 0002 84B0     		sub	sp, sp, #16
 681              		.cfi_def_cfa_offset 24
 682 0004 00AF     		add	r7, sp, #0
 683              		.cfi_def_cfa_register 7
 370:.\Generated_Source\PSoC5/USBUART_hid.c ****     const T_USBUART_LUT CYCODE *pTmp;
 371:.\Generated_Source\PSoC5/USBUART_hid.c ****     T_USBUART_TD *pTD;
ARM GAS  C:\Users\CHAIYA~1\AppData\Local\Temp\cceYnCpn.s 			page 20


 372:.\Generated_Source\PSoC5/USBUART_hid.c ****     uint8 interfaceN;
 373:.\Generated_Source\PSoC5/USBUART_hid.c ****     uint8 reportType;
 374:.\Generated_Source\PSoC5/USBUART_hid.c **** 
 375:.\Generated_Source\PSoC5/USBUART_hid.c ****     /* `#START HID_FINDREPORT` Place custom handling here */
 376:.\Generated_Source\PSoC5/USBUART_hid.c **** 
 377:.\Generated_Source\PSoC5/USBUART_hid.c ****     /* `#END` */
 378:.\Generated_Source\PSoC5/USBUART_hid.c ****     USBUART_currentTD.count = 0u;   /* Init not supported condition */
 684              		.loc 1 378 0
 685 0006 2C4B     		ldr	r3, .L51
 686 0008 0022     		movs	r2, #0
 687 000a 1A80     		strh	r2, [r3]	@ movhi
 379:.\Generated_Source\PSoC5/USBUART_hid.c ****     pTmp = USBUART_GetConfigTablePtr(USBUART_configuration - 1u);
 688              		.loc 1 379 0
 689 000c 2B4B     		ldr	r3, .L51+4
 690 000e 1B78     		ldrb	r3, [r3]
 691 0010 DBB2     		uxtb	r3, r3
 692 0012 013B     		subs	r3, r3, #1
 693 0014 DBB2     		uxtb	r3, r3
 694 0016 1846     		mov	r0, r3
 695 0018 FFF7FEFF 		bl	USBUART_GetConfigTablePtr
 696 001c F860     		str	r0, [r7, #12]
 380:.\Generated_Source\PSoC5/USBUART_hid.c ****     reportType = CY_GET_REG8(USBUART_wValueHi);
 697              		.loc 1 380 0
 698 001e 284B     		ldr	r3, .L51+8
 699 0020 1B78     		ldrb	r3, [r3]
 700 0022 FB72     		strb	r3, [r7, #11]
 381:.\Generated_Source\PSoC5/USBUART_hid.c ****     interfaceN = CY_GET_REG8(USBUART_wIndexLo);
 701              		.loc 1 381 0
 702 0024 274B     		ldr	r3, .L51+12
 703 0026 1B78     		ldrb	r3, [r3]
 704 0028 BB72     		strb	r3, [r7, #10]
 382:.\Generated_Source\PSoC5/USBUART_hid.c ****     /* Third entry in the LUT COnfiguration Table starts the Interface Table pointers */
 383:.\Generated_Source\PSoC5/USBUART_hid.c ****     /* Now use the request interface number */
 384:.\Generated_Source\PSoC5/USBUART_hid.c ****     pTmp = &pTmp[interfaceN + 2u];
 705              		.loc 1 384 0
 706 002a BB7A     		ldrb	r3, [r7, #10]	@ zero_extendqisi2
 707 002c 0233     		adds	r3, r3, #2
 708 002e DB00     		lsls	r3, r3, #3
 709 0030 FA68     		ldr	r2, [r7, #12]
 710 0032 1344     		add	r3, r3, r2
 711 0034 FB60     		str	r3, [r7, #12]
 385:.\Generated_Source\PSoC5/USBUART_hid.c ****     /* USB_DEVICEx_CONFIGURATIONy_INTERFACEz_TABLE*/
 386:.\Generated_Source\PSoC5/USBUART_hid.c ****     pTmp = (const T_USBUART_LUT CYCODE *) pTmp->p_list;
 712              		.loc 1 386 0
 713 0036 FB68     		ldr	r3, [r7, #12]
 714 0038 5B68     		ldr	r3, [r3, #4]
 715 003a FB60     		str	r3, [r7, #12]
 387:.\Generated_Source\PSoC5/USBUART_hid.c ****     if(interfaceN < USBUART_MAX_INTERFACES_NUMBER)
 716              		.loc 1 387 0
 717 003c BB7A     		ldrb	r3, [r7, #10]	@ zero_extendqisi2
 718 003e 012B     		cmp	r3, #1
 719 0040 37D8     		bhi	.L49
 388:.\Generated_Source\PSoC5/USBUART_hid.c ****     {
 389:.\Generated_Source\PSoC5/USBUART_hid.c ****         /* Now use Alternate setting number */
 390:.\Generated_Source\PSoC5/USBUART_hid.c ****         pTmp = &pTmp[USBUART_interfaceSetting[interfaceN]];
 720              		.loc 1 390 0
 721 0042 BB7A     		ldrb	r3, [r7, #10]	@ zero_extendqisi2
ARM GAS  C:\Users\CHAIYA~1\AppData\Local\Temp\cceYnCpn.s 			page 21


 722 0044 204A     		ldr	r2, .L51+16
 723 0046 D35C     		ldrb	r3, [r2, r3]
 724 0048 DBB2     		uxtb	r3, r3
 725 004a DB00     		lsls	r3, r3, #3
 726 004c FA68     		ldr	r2, [r7, #12]
 727 004e 1344     		add	r3, r3, r2
 728 0050 FB60     		str	r3, [r7, #12]
 391:.\Generated_Source\PSoC5/USBUART_hid.c ****         /* USB_DEVICEx_CONFIGURATIONy_INTERFACEz_ALTERNATEi_HID_TABLE */
 392:.\Generated_Source\PSoC5/USBUART_hid.c ****         pTmp = (const T_USBUART_LUT CYCODE *) pTmp->p_list;
 729              		.loc 1 392 0
 730 0052 FB68     		ldr	r3, [r7, #12]
 731 0054 5B68     		ldr	r3, [r3, #4]
 732 0056 FB60     		str	r3, [r7, #12]
 393:.\Generated_Source\PSoC5/USBUART_hid.c ****         /* Validate reportType to comply with "7.2.1 Get_Report Request" */
 394:.\Generated_Source\PSoC5/USBUART_hid.c ****         if((reportType >= USBUART_HID_GET_REPORT_INPUT) &&
 733              		.loc 1 394 0
 734 0058 FB7A     		ldrb	r3, [r7, #11]	@ zero_extendqisi2
 735 005a 002B     		cmp	r3, #0
 736 005c 29D0     		beq	.L49
 737              		.loc 1 394 0 is_stmt 0 discriminator 1
 738 005e FB7A     		ldrb	r3, [r7, #11]	@ zero_extendqisi2
 739 0060 032B     		cmp	r3, #3
 740 0062 26D8     		bhi	.L49
 395:.\Generated_Source\PSoC5/USBUART_hid.c ****            (reportType <= USBUART_HID_GET_REPORT_FEATURE))
 396:.\Generated_Source\PSoC5/USBUART_hid.c ****         {
 397:.\Generated_Source\PSoC5/USBUART_hid.c ****             /* Get the entry proper TD (IN, OUT or Feature Report Table)*/
 398:.\Generated_Source\PSoC5/USBUART_hid.c ****             pTmp = &pTmp[reportType - 1u];
 741              		.loc 1 398 0 is_stmt 1
 742 0064 FB7A     		ldrb	r3, [r7, #11]	@ zero_extendqisi2
 743 0066 03F10053 		add	r3, r3, #536870912
 744 006a 013B     		subs	r3, r3, #1
 745 006c DB00     		lsls	r3, r3, #3
 746 006e FA68     		ldr	r2, [r7, #12]
 747 0070 1344     		add	r3, r3, r2
 748 0072 FB60     		str	r3, [r7, #12]
 399:.\Generated_Source\PSoC5/USBUART_hid.c ****             reportType = CY_GET_REG8(USBUART_wValueLo);    /* Get reportID */
 749              		.loc 1 399 0
 750 0074 154B     		ldr	r3, .L51+20
 751 0076 1B78     		ldrb	r3, [r3]
 752 0078 FB72     		strb	r3, [r7, #11]
 400:.\Generated_Source\PSoC5/USBUART_hid.c ****             /* Validate table support by the HID descriptor, compare table count with reportID */
 401:.\Generated_Source\PSoC5/USBUART_hid.c ****             if(pTmp->c >= reportType)
 753              		.loc 1 401 0
 754 007a FB68     		ldr	r3, [r7, #12]
 755 007c 1B78     		ldrb	r3, [r3]	@ zero_extendqisi2
 756 007e FA7A     		ldrb	r2, [r7, #11]	@ zero_extendqisi2
 757 0080 9A42     		cmp	r2, r3
 758 0082 16D8     		bhi	.L49
 402:.\Generated_Source\PSoC5/USBUART_hid.c ****             {
 403:.\Generated_Source\PSoC5/USBUART_hid.c ****                 pTD = (T_USBUART_TD *) pTmp->p_list;
 759              		.loc 1 403 0
 760 0084 FB68     		ldr	r3, [r7, #12]
 761 0086 5B68     		ldr	r3, [r3, #4]
 762 0088 7B60     		str	r3, [r7, #4]
 404:.\Generated_Source\PSoC5/USBUART_hid.c ****                 pTD = &pTD[reportType];                          /* select entry depend on report I
 763              		.loc 1 404 0
 764 008a FA7A     		ldrb	r2, [r7, #11]	@ zero_extendqisi2
ARM GAS  C:\Users\CHAIYA~1\AppData\Local\Temp\cceYnCpn.s 			page 22


 765 008c 1346     		mov	r3, r2
 766 008e 5B00     		lsls	r3, r3, #1
 767 0090 1344     		add	r3, r3, r2
 768 0092 9B00     		lsls	r3, r3, #2
 769 0094 7A68     		ldr	r2, [r7, #4]
 770 0096 1344     		add	r3, r3, r2
 771 0098 7B60     		str	r3, [r7, #4]
 405:.\Generated_Source\PSoC5/USBUART_hid.c ****                 USBUART_currentTD.pData = pTD->pData;   /* Buffer pointer */
 772              		.loc 1 405 0
 773 009a 7B68     		ldr	r3, [r7, #4]
 774 009c 5A68     		ldr	r2, [r3, #4]
 775 009e 064B     		ldr	r3, .L51
 776 00a0 5A60     		str	r2, [r3, #4]
 406:.\Generated_Source\PSoC5/USBUART_hid.c ****                 USBUART_currentTD.count = pTD->count;   /* Buffer Size */
 777              		.loc 1 406 0
 778 00a2 7B68     		ldr	r3, [r7, #4]
 779 00a4 1A88     		ldrh	r2, [r3]
 780 00a6 044B     		ldr	r3, .L51
 781 00a8 1A80     		strh	r2, [r3]	@ movhi
 407:.\Generated_Source\PSoC5/USBUART_hid.c ****                 USBUART_currentTD.pStatusBlock = pTD->pStatusBlock;
 782              		.loc 1 407 0
 783 00aa 7B68     		ldr	r3, [r7, #4]
 784 00ac 9A68     		ldr	r2, [r3, #8]
 785 00ae 024B     		ldr	r3, .L51
 786 00b0 9A60     		str	r2, [r3, #8]
 787              	.L49:
 408:.\Generated_Source\PSoC5/USBUART_hid.c ****             }
 409:.\Generated_Source\PSoC5/USBUART_hid.c ****         }
 410:.\Generated_Source\PSoC5/USBUART_hid.c ****     }
 411:.\Generated_Source\PSoC5/USBUART_hid.c **** }
 788              		.loc 1 411 0
 789 00b2 1037     		adds	r7, r7, #16
 790 00b4 BD46     		mov	sp, r7
 791              		@ sp needed
 792 00b6 80BD     		pop	{r7, pc}
 793              	.L52:
 794              		.align	2
 795              	.L51:
 796 00b8 00000000 		.word	USBUART_currentTD
 797 00bc 00000000 		.word	USBUART_configuration
 798 00c0 03600040 		.word	1073766403
 799 00c4 04600040 		.word	1073766404
 800 00c8 00000000 		.word	USBUART_interfaceSetting
 801 00cc 02600040 		.word	1073766402
 802              		.cfi_endproc
 803              	.LFE5:
 804              		.size	USBUART_FindReport, .-USBUART_FindReport
 805              		.text
 806              	.Letext0:
 807              		.file 2 ".\\Generated_Source\\PSoC5\\cytypes.h"
 808              		.file 3 ".\\Generated_Source\\PSoC5\\USBUART.h"
 809              		.file 4 ".\\Generated_Source\\PSoC5\\USBUART_pvt.h"
 810              		.section	.debug_info,"",%progbits
 811              	.Ldebug_info0:
 812 0000 4A030000 		.4byte	0x34a
 813 0004 0400     		.2byte	0x4
 814 0006 00000000 		.4byte	.Ldebug_abbrev0
ARM GAS  C:\Users\CHAIYA~1\AppData\Local\Temp\cceYnCpn.s 			page 23


 815 000a 04       		.byte	0x4
 816 000b 01       		.uleb128 0x1
 817 000c 35010000 		.4byte	.LASF45
 818 0010 01       		.byte	0x1
 819 0011 B9020000 		.4byte	.LASF46
 820 0015 5B000000 		.4byte	.LASF47
 821 0019 00000000 		.4byte	.Ldebug_ranges0+0
 822 001d 00000000 		.4byte	0
 823 0021 00000000 		.4byte	.Ldebug_line0
 824 0025 02       		.uleb128 0x2
 825 0026 01       		.byte	0x1
 826 0027 06       		.byte	0x6
 827 0028 5B030000 		.4byte	.LASF0
 828 002c 02       		.uleb128 0x2
 829 002d 01       		.byte	0x1
 830 002e 08       		.byte	0x8
 831 002f 01010000 		.4byte	.LASF1
 832 0033 02       		.uleb128 0x2
 833 0034 02       		.byte	0x2
 834 0035 05       		.byte	0x5
 835 0036 17030000 		.4byte	.LASF2
 836 003a 02       		.uleb128 0x2
 837 003b 02       		.byte	0x2
 838 003c 07       		.byte	0x7
 839 003d 35000000 		.4byte	.LASF3
 840 0041 02       		.uleb128 0x2
 841 0042 04       		.byte	0x4
 842 0043 05       		.byte	0x5
 843 0044 39030000 		.4byte	.LASF4
 844 0048 02       		.uleb128 0x2
 845 0049 04       		.byte	0x4
 846 004a 07       		.byte	0x7
 847 004b B1010000 		.4byte	.LASF5
 848 004f 02       		.uleb128 0x2
 849 0050 08       		.byte	0x8
 850 0051 05       		.byte	0x5
 851 0052 FF020000 		.4byte	.LASF6
 852 0056 02       		.uleb128 0x2
 853 0057 08       		.byte	0x8
 854 0058 07       		.byte	0x7
 855 0059 61020000 		.4byte	.LASF7
 856 005d 03       		.uleb128 0x3
 857 005e 04       		.byte	0x4
 858 005f 05       		.byte	0x5
 859 0060 696E7400 		.ascii	"int\000"
 860 0064 02       		.uleb128 0x2
 861 0065 04       		.byte	0x4
 862 0066 07       		.byte	0x7
 863 0067 29020000 		.4byte	.LASF8
 864 006b 04       		.uleb128 0x4
 865 006c C3010000 		.4byte	.LASF9
 866 0070 02       		.byte	0x2
 867 0071 A1       		.byte	0xa1
 868 0072 2C000000 		.4byte	0x2c
 869 0076 04       		.uleb128 0x4
 870 0077 1B020000 		.4byte	.LASF10
 871 007b 02       		.byte	0x2
ARM GAS  C:\Users\CHAIYA~1\AppData\Local\Temp\cceYnCpn.s 			page 24


 872 007c A2       		.byte	0xa2
 873 007d 3A000000 		.4byte	0x3a
 874 0081 02       		.uleb128 0x2
 875 0082 04       		.byte	0x4
 876 0083 04       		.byte	0x4
 877 0084 F0000000 		.4byte	.LASF11
 878 0088 02       		.uleb128 0x2
 879 0089 08       		.byte	0x8
 880 008a 04       		.byte	0x4
 881 008b 02020000 		.4byte	.LASF12
 882 008f 02       		.uleb128 0x2
 883 0090 01       		.byte	0x1
 884 0091 08       		.byte	0x8
 885 0092 0D030000 		.4byte	.LASF13
 886 0096 05       		.uleb128 0x5
 887 0097 30010000 		.4byte	.LASF14
 888 009b 02       		.byte	0x2
 889 009c 4B01     		.2byte	0x14b
 890 009e A2000000 		.4byte	0xa2
 891 00a2 06       		.uleb128 0x6
 892 00a3 6B000000 		.4byte	0x6b
 893 00a7 02       		.uleb128 0x2
 894 00a8 04       		.byte	0x4
 895 00a9 07       		.byte	0x7
 896 00aa E0020000 		.4byte	.LASF15
 897 00ae 07       		.uleb128 0x7
 898 00af 04       		.byte	0x4
 899 00b0 03       		.byte	0x3
 900 00b1 94       		.byte	0x94
 901 00b2 CF000000 		.4byte	0xcf
 902 00b6 08       		.uleb128 0x8
 903 00b7 B7000000 		.4byte	.LASF16
 904 00bb 03       		.byte	0x3
 905 00bc 96       		.byte	0x96
 906 00bd 6B000000 		.4byte	0x6b
 907 00c1 00       		.byte	0
 908 00c2 08       		.uleb128 0x8
 909 00c3 67030000 		.4byte	.LASF17
 910 00c7 03       		.byte	0x3
 911 00c8 97       		.byte	0x97
 912 00c9 76000000 		.4byte	0x76
 913 00cd 02       		.byte	0x2
 914 00ce 00       		.byte	0
 915 00cf 04       		.uleb128 0x4
 916 00d0 9D020000 		.4byte	.LASF18
 917 00d4 03       		.byte	0x3
 918 00d5 98       		.byte	0x98
 919 00d6 AE000000 		.4byte	0xae
 920 00da 07       		.uleb128 0x7
 921 00db 0C       		.byte	0xc
 922 00dc 03       		.byte	0x3
 923 00dd 9A       		.byte	0x9a
 924 00de 07010000 		.4byte	0x107
 925 00e2 08       		.uleb128 0x8
 926 00e3 2F000000 		.4byte	.LASF19
 927 00e7 03       		.byte	0x3
 928 00e8 9C       		.byte	0x9c
ARM GAS  C:\Users\CHAIYA~1\AppData\Local\Temp\cceYnCpn.s 			page 25


 929 00e9 76000000 		.4byte	0x76
 930 00ed 00       		.byte	0
 931 00ee 08       		.uleb128 0x8
 932 00ef DB000000 		.4byte	.LASF20
 933 00f3 03       		.byte	0x3
 934 00f4 9D       		.byte	0x9d
 935 00f5 07010000 		.4byte	0x107
 936 00f9 04       		.byte	0x4
 937 00fa 08       		.uleb128 0x8
 938 00fb 1D000000 		.4byte	.LASF21
 939 00ff 03       		.byte	0x3
 940 0100 9E       		.byte	0x9e
 941 0101 0D010000 		.4byte	0x10d
 942 0105 08       		.byte	0x8
 943 0106 00       		.byte	0
 944 0107 09       		.uleb128 0x9
 945 0108 04       		.byte	0x4
 946 0109 A2000000 		.4byte	0xa2
 947 010d 09       		.uleb128 0x9
 948 010e 04       		.byte	0x4
 949 010f CF000000 		.4byte	0xcf
 950 0113 04       		.uleb128 0x4
 951 0114 23010000 		.4byte	.LASF22
 952 0118 03       		.byte	0x3
 953 0119 9F       		.byte	0x9f
 954 011a DA000000 		.4byte	0xda
 955 011e 07       		.uleb128 0x7
 956 011f 08       		.byte	0x8
 957 0120 03       		.byte	0x3
 958 0121 A2       		.byte	0xa2
 959 0122 3D010000 		.4byte	0x13d
 960 0126 0A       		.uleb128 0xa
 961 0127 6300     		.ascii	"c\000"
 962 0129 03       		.byte	0x3
 963 012a A4       		.byte	0xa4
 964 012b 6B000000 		.4byte	0x6b
 965 012f 00       		.byte	0
 966 0130 08       		.uleb128 0x8
 967 0131 96020000 		.4byte	.LASF23
 968 0135 03       		.byte	0x3
 969 0136 A5       		.byte	0xa5
 970 0137 3D010000 		.4byte	0x13d
 971 013b 04       		.byte	0x4
 972 013c 00       		.byte	0
 973 013d 09       		.uleb128 0x9
 974 013e 04       		.byte	0x4
 975 013f 43010000 		.4byte	0x143
 976 0143 0B       		.uleb128 0xb
 977 0144 04       		.uleb128 0x4
 978 0145 2B030000 		.4byte	.LASF24
 979 0149 03       		.byte	0x3
 980 014a A6       		.byte	0xa6
 981 014b 1E010000 		.4byte	0x11e
 982 014f 0C       		.uleb128 0xc
 983 0150 4A020000 		.4byte	.LASF25
 984 0154 01       		.byte	0x1
 985 0155 3F       		.byte	0x3f
ARM GAS  C:\Users\CHAIYA~1\AppData\Local\Temp\cceYnCpn.s 			page 26


 986 0156 6B000000 		.4byte	0x6b
 987 015a 00000000 		.4byte	.LFB0
 988 015e 64000000 		.4byte	.LFE0-.LFB0
 989 0162 01       		.uleb128 0x1
 990 0163 9C       		.byte	0x9c
 991 0164 85010000 		.4byte	0x185
 992 0168 0D       		.uleb128 0xd
 993 0169 21030000 		.4byte	.LASF27
 994 016d 01       		.byte	0x1
 995 016e 3F       		.byte	0x3f
 996 016f 6B000000 		.4byte	0x6b
 997 0173 02       		.uleb128 0x2
 998 0174 91       		.byte	0x91
 999 0175 6F       		.sleb128 -17
 1000 0176 0E       		.uleb128 0xe
 1001 0177 2A000000 		.4byte	.LASF29
 1002 017b 01       		.byte	0x1
 1003 017c 41       		.byte	0x41
 1004 017d 6B000000 		.4byte	0x6b
 1005 0181 02       		.uleb128 0x2
 1006 0182 91       		.byte	0x91
 1007 0183 77       		.sleb128 -9
 1008 0184 00       		.byte	0
 1009 0185 0C       		.uleb128 0xc
 1010 0186 D9010000 		.4byte	.LASF26
 1011 018a 01       		.byte	0x1
 1012 018b 63       		.byte	0x63
 1013 018c 6B000000 		.4byte	0x6b
 1014 0190 00000000 		.4byte	.LFB1
 1015 0194 24000000 		.4byte	.LFE1-.LFB1
 1016 0198 01       		.uleb128 0x1
 1017 0199 9C       		.byte	0x9c
 1018 019a AD010000 		.4byte	0x1ad
 1019 019e 0D       		.uleb128 0xd
 1020 019f 21030000 		.4byte	.LASF27
 1021 01a3 01       		.byte	0x1
 1022 01a4 63       		.byte	0x63
 1023 01a5 6B000000 		.4byte	0x6b
 1024 01a9 02       		.uleb128 0x2
 1025 01aa 91       		.byte	0x91
 1026 01ab 77       		.sleb128 -9
 1027 01ac 00       		.byte	0
 1028 01ad 0F       		.uleb128 0xf
 1029 01ae 00000000 		.4byte	.LASF28
 1030 01b2 01       		.byte	0x1
 1031 01b3 7A       		.byte	0x7a
 1032 01b4 6B000000 		.4byte	0x6b
 1033 01b8 00000000 		.4byte	.LFB2
 1034 01bc EC010000 		.4byte	.LFE2-.LFB2
 1035 01c0 01       		.uleb128 0x1
 1036 01c1 9C       		.byte	0x9c
 1037 01c2 E3010000 		.4byte	0x1e3
 1038 01c6 0E       		.uleb128 0xe
 1039 01c7 E1000000 		.4byte	.LASF30
 1040 01cb 01       		.byte	0x1
 1041 01cc 7C       		.byte	0x7c
 1042 01cd 6B000000 		.4byte	0x6b
ARM GAS  C:\Users\CHAIYA~1\AppData\Local\Temp\cceYnCpn.s 			page 27


 1043 01d1 02       		.uleb128 0x2
 1044 01d2 91       		.byte	0x91
 1045 01d3 77       		.sleb128 -9
 1046 01d4 0E       		.uleb128 0xe
 1047 01d5 C9010000 		.4byte	.LASF31
 1048 01d9 01       		.byte	0x1
 1049 01da 7D       		.byte	0x7d
 1050 01db 6B000000 		.4byte	0x6b
 1051 01df 02       		.uleb128 0x2
 1052 01e0 91       		.byte	0x91
 1053 01e1 76       		.sleb128 -10
 1054 01e2 00       		.byte	0
 1055 01e3 10       		.uleb128 0x10
 1056 01e4 78020000 		.4byte	.LASF35
 1057 01e8 01       		.byte	0x1
 1058 01e9 1401     		.2byte	0x114
 1059 01eb 00000000 		.4byte	.LFB3
 1060 01ef 7C000000 		.4byte	.LFE3-.LFB3
 1061 01f3 01       		.uleb128 0x1
 1062 01f4 9C       		.byte	0x9c
 1063 01f5 27020000 		.4byte	0x227
 1064 01f9 11       		.uleb128 0x11
 1065 01fa 12030000 		.4byte	.LASF32
 1066 01fe 01       		.byte	0x1
 1067 01ff 1601     		.2byte	0x116
 1068 0201 27020000 		.4byte	0x227
 1069 0205 02       		.uleb128 0x2
 1070 0206 91       		.byte	0x91
 1071 0207 74       		.sleb128 -12
 1072 0208 11       		.uleb128 0x11
 1073 0209 22020000 		.4byte	.LASF33
 1074 020d 01       		.byte	0x1
 1075 020e 1701     		.2byte	0x117
 1076 0210 07010000 		.4byte	0x107
 1077 0214 02       		.uleb128 0x2
 1078 0215 91       		.byte	0x91
 1079 0216 6C       		.sleb128 -20
 1080 0217 11       		.uleb128 0x11
 1081 0218 AC000000 		.4byte	.LASF34
 1082 021c 01       		.byte	0x1
 1083 021d 1801     		.2byte	0x118
 1084 021f 6B000000 		.4byte	0x6b
 1085 0223 02       		.uleb128 0x2
 1086 0224 91       		.byte	0x91
 1087 0225 73       		.sleb128 -13
 1088 0226 00       		.byte	0
 1089 0227 09       		.uleb128 0x9
 1090 0228 04       		.byte	0x4
 1091 0229 2D020000 		.4byte	0x22d
 1092 022d 12       		.uleb128 0x12
 1093 022e 44010000 		.4byte	0x144
 1094 0232 10       		.uleb128 0x10
 1095 0233 BE000000 		.4byte	.LASF36
 1096 0237 01       		.byte	0x1
 1097 0238 4201     		.2byte	0x142
 1098 023a 00000000 		.4byte	.LFB4
 1099 023e 8C000000 		.4byte	.LFE4-.LFB4
ARM GAS  C:\Users\CHAIYA~1\AppData\Local\Temp\cceYnCpn.s 			page 28


 1100 0242 01       		.uleb128 0x1
 1101 0243 9C       		.byte	0x9c
 1102 0244 76020000 		.4byte	0x276
 1103 0248 11       		.uleb128 0x11
 1104 0249 12030000 		.4byte	.LASF32
 1105 024d 01       		.byte	0x1
 1106 024e 4401     		.2byte	0x144
 1107 0250 27020000 		.4byte	0x227
 1108 0254 02       		.uleb128 0x2
 1109 0255 91       		.byte	0x91
 1110 0256 74       		.sleb128 -12
 1111 0257 11       		.uleb128 0x11
 1112 0258 22020000 		.4byte	.LASF33
 1113 025c 01       		.byte	0x1
 1114 025d 4501     		.2byte	0x145
 1115 025f 07010000 		.4byte	0x107
 1116 0263 02       		.uleb128 0x2
 1117 0264 91       		.byte	0x91
 1118 0265 6C       		.sleb128 -20
 1119 0266 11       		.uleb128 0x11
 1120 0267 AC000000 		.4byte	.LASF34
 1121 026b 01       		.byte	0x1
 1122 026c 4601     		.2byte	0x146
 1123 026e 6B000000 		.4byte	0x6b
 1124 0272 02       		.uleb128 0x2
 1125 0273 91       		.byte	0x91
 1126 0274 73       		.sleb128 -13
 1127 0275 00       		.byte	0
 1128 0276 10       		.uleb128 0x10
 1129 0277 48000000 		.4byte	.LASF37
 1130 027b 01       		.byte	0x1
 1131 027c 7001     		.2byte	0x170
 1132 027e 00000000 		.4byte	.LFB5
 1133 0282 D0000000 		.4byte	.LFE5-.LFB5
 1134 0286 01       		.uleb128 0x1
 1135 0287 9C       		.byte	0x9c
 1136 0288 C9020000 		.4byte	0x2c9
 1137 028c 11       		.uleb128 0x11
 1138 028d 12030000 		.4byte	.LASF32
 1139 0291 01       		.byte	0x1
 1140 0292 7201     		.2byte	0x172
 1141 0294 27020000 		.4byte	0x227
 1142 0298 02       		.uleb128 0x2
 1143 0299 91       		.byte	0x91
 1144 029a 74       		.sleb128 -12
 1145 029b 13       		.uleb128 0x13
 1146 029c 70544400 		.ascii	"pTD\000"
 1147 02a0 01       		.byte	0x1
 1148 02a1 7301     		.2byte	0x173
 1149 02a3 C9020000 		.4byte	0x2c9
 1150 02a7 02       		.uleb128 0x2
 1151 02a8 91       		.byte	0x91
 1152 02a9 6C       		.sleb128 -20
 1153 02aa 11       		.uleb128 0x11
 1154 02ab AC000000 		.4byte	.LASF34
 1155 02af 01       		.byte	0x1
 1156 02b0 7401     		.2byte	0x174
ARM GAS  C:\Users\CHAIYA~1\AppData\Local\Temp\cceYnCpn.s 			page 29


 1157 02b2 6B000000 		.4byte	0x6b
 1158 02b6 02       		.uleb128 0x2
 1159 02b7 91       		.byte	0x91
 1160 02b8 72       		.sleb128 -14
 1161 02b9 11       		.uleb128 0x11
 1162 02ba F6000000 		.4byte	.LASF38
 1163 02be 01       		.byte	0x1
 1164 02bf 7501     		.2byte	0x175
 1165 02c1 6B000000 		.4byte	0x6b
 1166 02c5 02       		.uleb128 0x2
 1167 02c6 91       		.byte	0x91
 1168 02c7 73       		.sleb128 -13
 1169 02c8 00       		.byte	0
 1170 02c9 09       		.uleb128 0x9
 1171 02ca 04       		.byte	0x4
 1172 02cb 13010000 		.4byte	0x113
 1173 02cf 14       		.uleb128 0x14
 1174 02d0 E9020000 		.4byte	.LASF39
 1175 02d4 03       		.byte	0x3
 1176 02d5 5102     		.2byte	0x251
 1177 02d7 A2000000 		.4byte	0xa2
 1178 02db 15       		.uleb128 0x15
 1179 02dc 6B000000 		.4byte	0x6b
 1180 02e0 EB020000 		.4byte	0x2eb
 1181 02e4 16       		.uleb128 0x16
 1182 02e5 A7000000 		.4byte	0xa7
 1183 02e9 01       		.byte	0x1
 1184 02ea 00       		.byte	0
 1185 02eb 17       		.uleb128 0x17
 1186 02ec 36020000 		.4byte	.LASF40
 1187 02f0 01       		.byte	0x1
 1188 02f1 20       		.byte	0x20
 1189 02f2 FC020000 		.4byte	0x2fc
 1190 02f6 05       		.uleb128 0x5
 1191 02f7 03       		.byte	0x3
 1192 02f8 00000000 		.4byte	USBUART_hidProtocol
 1193 02fc 06       		.uleb128 0x6
 1194 02fd DB020000 		.4byte	0x2db
 1195 0301 17       		.uleb128 0x17
 1196 0302 0F010000 		.4byte	.LASF41
 1197 0306 01       		.byte	0x1
 1198 0307 21       		.byte	0x21
 1199 0308 12030000 		.4byte	0x312
 1200 030c 05       		.uleb128 0x5
 1201 030d 03       		.byte	0x3
 1202 030e 00000000 		.4byte	USBUART_hidIdleRate
 1203 0312 06       		.uleb128 0x6
 1204 0313 DB020000 		.4byte	0x2db
 1205 0317 17       		.uleb128 0x17
 1206 0318 ED010000 		.4byte	.LASF42
 1207 031c 01       		.byte	0x1
 1208 031d 22       		.byte	0x22
 1209 031e 28030000 		.4byte	0x328
 1210 0322 05       		.uleb128 0x5
 1211 0323 03       		.byte	0x3
 1212 0324 00000000 		.4byte	USBUART_hidIdleTimer
 1213 0328 06       		.uleb128 0x6
ARM GAS  C:\Users\CHAIYA~1\AppData\Local\Temp\cceYnCpn.s 			page 30


 1214 0329 DB020000 		.4byte	0x2db
 1215 032d 18       		.uleb128 0x18
 1216 032e 42030000 		.4byte	.LASF43
 1217 0332 04       		.byte	0x4
 1218 0333 2F       		.byte	0x2f
 1219 0334 38030000 		.4byte	0x338
 1220 0338 06       		.uleb128 0x6
 1221 0339 DB020000 		.4byte	0x2db
 1222 033d 18       		.uleb128 0x18
 1223 033e 09020000 		.4byte	.LASF44
 1224 0342 04       		.byte	0x4
 1225 0343 36       		.byte	0x36
 1226 0344 48030000 		.4byte	0x348
 1227 0348 06       		.uleb128 0x6
 1228 0349 13010000 		.4byte	0x113
 1229 034d 00       		.byte	0
 1230              		.section	.debug_abbrev,"",%progbits
 1231              	.Ldebug_abbrev0:
 1232 0000 01       		.uleb128 0x1
 1233 0001 11       		.uleb128 0x11
 1234 0002 01       		.byte	0x1
 1235 0003 25       		.uleb128 0x25
 1236 0004 0E       		.uleb128 0xe
 1237 0005 13       		.uleb128 0x13
 1238 0006 0B       		.uleb128 0xb
 1239 0007 03       		.uleb128 0x3
 1240 0008 0E       		.uleb128 0xe
 1241 0009 1B       		.uleb128 0x1b
 1242 000a 0E       		.uleb128 0xe
 1243 000b 55       		.uleb128 0x55
 1244 000c 17       		.uleb128 0x17
 1245 000d 11       		.uleb128 0x11
 1246 000e 01       		.uleb128 0x1
 1247 000f 10       		.uleb128 0x10
 1248 0010 17       		.uleb128 0x17
 1249 0011 00       		.byte	0
 1250 0012 00       		.byte	0
 1251 0013 02       		.uleb128 0x2
 1252 0014 24       		.uleb128 0x24
 1253 0015 00       		.byte	0
 1254 0016 0B       		.uleb128 0xb
 1255 0017 0B       		.uleb128 0xb
 1256 0018 3E       		.uleb128 0x3e
 1257 0019 0B       		.uleb128 0xb
 1258 001a 03       		.uleb128 0x3
 1259 001b 0E       		.uleb128 0xe
 1260 001c 00       		.byte	0
 1261 001d 00       		.byte	0
 1262 001e 03       		.uleb128 0x3
 1263 001f 24       		.uleb128 0x24
 1264 0020 00       		.byte	0
 1265 0021 0B       		.uleb128 0xb
 1266 0022 0B       		.uleb128 0xb
 1267 0023 3E       		.uleb128 0x3e
 1268 0024 0B       		.uleb128 0xb
 1269 0025 03       		.uleb128 0x3
 1270 0026 08       		.uleb128 0x8
ARM GAS  C:\Users\CHAIYA~1\AppData\Local\Temp\cceYnCpn.s 			page 31


 1271 0027 00       		.byte	0
 1272 0028 00       		.byte	0
 1273 0029 04       		.uleb128 0x4
 1274 002a 16       		.uleb128 0x16
 1275 002b 00       		.byte	0
 1276 002c 03       		.uleb128 0x3
 1277 002d 0E       		.uleb128 0xe
 1278 002e 3A       		.uleb128 0x3a
 1279 002f 0B       		.uleb128 0xb
 1280 0030 3B       		.uleb128 0x3b
 1281 0031 0B       		.uleb128 0xb
 1282 0032 49       		.uleb128 0x49
 1283 0033 13       		.uleb128 0x13
 1284 0034 00       		.byte	0
 1285 0035 00       		.byte	0
 1286 0036 05       		.uleb128 0x5
 1287 0037 16       		.uleb128 0x16
 1288 0038 00       		.byte	0
 1289 0039 03       		.uleb128 0x3
 1290 003a 0E       		.uleb128 0xe
 1291 003b 3A       		.uleb128 0x3a
 1292 003c 0B       		.uleb128 0xb
 1293 003d 3B       		.uleb128 0x3b
 1294 003e 05       		.uleb128 0x5
 1295 003f 49       		.uleb128 0x49
 1296 0040 13       		.uleb128 0x13
 1297 0041 00       		.byte	0
 1298 0042 00       		.byte	0
 1299 0043 06       		.uleb128 0x6
 1300 0044 35       		.uleb128 0x35
 1301 0045 00       		.byte	0
 1302 0046 49       		.uleb128 0x49
 1303 0047 13       		.uleb128 0x13
 1304 0048 00       		.byte	0
 1305 0049 00       		.byte	0
 1306 004a 07       		.uleb128 0x7
 1307 004b 13       		.uleb128 0x13
 1308 004c 01       		.byte	0x1
 1309 004d 0B       		.uleb128 0xb
 1310 004e 0B       		.uleb128 0xb
 1311 004f 3A       		.uleb128 0x3a
 1312 0050 0B       		.uleb128 0xb
 1313 0051 3B       		.uleb128 0x3b
 1314 0052 0B       		.uleb128 0xb
 1315 0053 01       		.uleb128 0x1
 1316 0054 13       		.uleb128 0x13
 1317 0055 00       		.byte	0
 1318 0056 00       		.byte	0
 1319 0057 08       		.uleb128 0x8
 1320 0058 0D       		.uleb128 0xd
 1321 0059 00       		.byte	0
 1322 005a 03       		.uleb128 0x3
 1323 005b 0E       		.uleb128 0xe
 1324 005c 3A       		.uleb128 0x3a
 1325 005d 0B       		.uleb128 0xb
 1326 005e 3B       		.uleb128 0x3b
 1327 005f 0B       		.uleb128 0xb
ARM GAS  C:\Users\CHAIYA~1\AppData\Local\Temp\cceYnCpn.s 			page 32


 1328 0060 49       		.uleb128 0x49
 1329 0061 13       		.uleb128 0x13
 1330 0062 38       		.uleb128 0x38
 1331 0063 0B       		.uleb128 0xb
 1332 0064 00       		.byte	0
 1333 0065 00       		.byte	0
 1334 0066 09       		.uleb128 0x9
 1335 0067 0F       		.uleb128 0xf
 1336 0068 00       		.byte	0
 1337 0069 0B       		.uleb128 0xb
 1338 006a 0B       		.uleb128 0xb
 1339 006b 49       		.uleb128 0x49
 1340 006c 13       		.uleb128 0x13
 1341 006d 00       		.byte	0
 1342 006e 00       		.byte	0
 1343 006f 0A       		.uleb128 0xa
 1344 0070 0D       		.uleb128 0xd
 1345 0071 00       		.byte	0
 1346 0072 03       		.uleb128 0x3
 1347 0073 08       		.uleb128 0x8
 1348 0074 3A       		.uleb128 0x3a
 1349 0075 0B       		.uleb128 0xb
 1350 0076 3B       		.uleb128 0x3b
 1351 0077 0B       		.uleb128 0xb
 1352 0078 49       		.uleb128 0x49
 1353 0079 13       		.uleb128 0x13
 1354 007a 38       		.uleb128 0x38
 1355 007b 0B       		.uleb128 0xb
 1356 007c 00       		.byte	0
 1357 007d 00       		.byte	0
 1358 007e 0B       		.uleb128 0xb
 1359 007f 26       		.uleb128 0x26
 1360 0080 00       		.byte	0
 1361 0081 00       		.byte	0
 1362 0082 00       		.byte	0
 1363 0083 0C       		.uleb128 0xc
 1364 0084 2E       		.uleb128 0x2e
 1365 0085 01       		.byte	0x1
 1366 0086 3F       		.uleb128 0x3f
 1367 0087 19       		.uleb128 0x19
 1368 0088 03       		.uleb128 0x3
 1369 0089 0E       		.uleb128 0xe
 1370 008a 3A       		.uleb128 0x3a
 1371 008b 0B       		.uleb128 0xb
 1372 008c 3B       		.uleb128 0x3b
 1373 008d 0B       		.uleb128 0xb
 1374 008e 27       		.uleb128 0x27
 1375 008f 19       		.uleb128 0x19
 1376 0090 49       		.uleb128 0x49
 1377 0091 13       		.uleb128 0x13
 1378 0092 11       		.uleb128 0x11
 1379 0093 01       		.uleb128 0x1
 1380 0094 12       		.uleb128 0x12
 1381 0095 06       		.uleb128 0x6
 1382 0096 40       		.uleb128 0x40
 1383 0097 18       		.uleb128 0x18
 1384 0098 9742     		.uleb128 0x2117
ARM GAS  C:\Users\CHAIYA~1\AppData\Local\Temp\cceYnCpn.s 			page 33


 1385 009a 19       		.uleb128 0x19
 1386 009b 01       		.uleb128 0x1
 1387 009c 13       		.uleb128 0x13
 1388 009d 00       		.byte	0
 1389 009e 00       		.byte	0
 1390 009f 0D       		.uleb128 0xd
 1391 00a0 05       		.uleb128 0x5
 1392 00a1 00       		.byte	0
 1393 00a2 03       		.uleb128 0x3
 1394 00a3 0E       		.uleb128 0xe
 1395 00a4 3A       		.uleb128 0x3a
 1396 00a5 0B       		.uleb128 0xb
 1397 00a6 3B       		.uleb128 0x3b
 1398 00a7 0B       		.uleb128 0xb
 1399 00a8 49       		.uleb128 0x49
 1400 00a9 13       		.uleb128 0x13
 1401 00aa 02       		.uleb128 0x2
 1402 00ab 18       		.uleb128 0x18
 1403 00ac 00       		.byte	0
 1404 00ad 00       		.byte	0
 1405 00ae 0E       		.uleb128 0xe
 1406 00af 34       		.uleb128 0x34
 1407 00b0 00       		.byte	0
 1408 00b1 03       		.uleb128 0x3
 1409 00b2 0E       		.uleb128 0xe
 1410 00b3 3A       		.uleb128 0x3a
 1411 00b4 0B       		.uleb128 0xb
 1412 00b5 3B       		.uleb128 0x3b
 1413 00b6 0B       		.uleb128 0xb
 1414 00b7 49       		.uleb128 0x49
 1415 00b8 13       		.uleb128 0x13
 1416 00b9 02       		.uleb128 0x2
 1417 00ba 18       		.uleb128 0x18
 1418 00bb 00       		.byte	0
 1419 00bc 00       		.byte	0
 1420 00bd 0F       		.uleb128 0xf
 1421 00be 2E       		.uleb128 0x2e
 1422 00bf 01       		.byte	0x1
 1423 00c0 3F       		.uleb128 0x3f
 1424 00c1 19       		.uleb128 0x19
 1425 00c2 03       		.uleb128 0x3
 1426 00c3 0E       		.uleb128 0xe
 1427 00c4 3A       		.uleb128 0x3a
 1428 00c5 0B       		.uleb128 0xb
 1429 00c6 3B       		.uleb128 0x3b
 1430 00c7 0B       		.uleb128 0xb
 1431 00c8 27       		.uleb128 0x27
 1432 00c9 19       		.uleb128 0x19
 1433 00ca 49       		.uleb128 0x49
 1434 00cb 13       		.uleb128 0x13
 1435 00cc 11       		.uleb128 0x11
 1436 00cd 01       		.uleb128 0x1
 1437 00ce 12       		.uleb128 0x12
 1438 00cf 06       		.uleb128 0x6
 1439 00d0 40       		.uleb128 0x40
 1440 00d1 18       		.uleb128 0x18
 1441 00d2 9642     		.uleb128 0x2116
ARM GAS  C:\Users\CHAIYA~1\AppData\Local\Temp\cceYnCpn.s 			page 34


 1442 00d4 19       		.uleb128 0x19
 1443 00d5 01       		.uleb128 0x1
 1444 00d6 13       		.uleb128 0x13
 1445 00d7 00       		.byte	0
 1446 00d8 00       		.byte	0
 1447 00d9 10       		.uleb128 0x10
 1448 00da 2E       		.uleb128 0x2e
 1449 00db 01       		.byte	0x1
 1450 00dc 3F       		.uleb128 0x3f
 1451 00dd 19       		.uleb128 0x19
 1452 00de 03       		.uleb128 0x3
 1453 00df 0E       		.uleb128 0xe
 1454 00e0 3A       		.uleb128 0x3a
 1455 00e1 0B       		.uleb128 0xb
 1456 00e2 3B       		.uleb128 0x3b
 1457 00e3 05       		.uleb128 0x5
 1458 00e4 27       		.uleb128 0x27
 1459 00e5 19       		.uleb128 0x19
 1460 00e6 11       		.uleb128 0x11
 1461 00e7 01       		.uleb128 0x1
 1462 00e8 12       		.uleb128 0x12
 1463 00e9 06       		.uleb128 0x6
 1464 00ea 40       		.uleb128 0x40
 1465 00eb 18       		.uleb128 0x18
 1466 00ec 9642     		.uleb128 0x2116
 1467 00ee 19       		.uleb128 0x19
 1468 00ef 01       		.uleb128 0x1
 1469 00f0 13       		.uleb128 0x13
 1470 00f1 00       		.byte	0
 1471 00f2 00       		.byte	0
 1472 00f3 11       		.uleb128 0x11
 1473 00f4 34       		.uleb128 0x34
 1474 00f5 00       		.byte	0
 1475 00f6 03       		.uleb128 0x3
 1476 00f7 0E       		.uleb128 0xe
 1477 00f8 3A       		.uleb128 0x3a
 1478 00f9 0B       		.uleb128 0xb
 1479 00fa 3B       		.uleb128 0x3b
 1480 00fb 05       		.uleb128 0x5
 1481 00fc 49       		.uleb128 0x49
 1482 00fd 13       		.uleb128 0x13
 1483 00fe 02       		.uleb128 0x2
 1484 00ff 18       		.uleb128 0x18
 1485 0100 00       		.byte	0
 1486 0101 00       		.byte	0
 1487 0102 12       		.uleb128 0x12
 1488 0103 26       		.uleb128 0x26
 1489 0104 00       		.byte	0
 1490 0105 49       		.uleb128 0x49
 1491 0106 13       		.uleb128 0x13
 1492 0107 00       		.byte	0
 1493 0108 00       		.byte	0
 1494 0109 13       		.uleb128 0x13
 1495 010a 34       		.uleb128 0x34
 1496 010b 00       		.byte	0
 1497 010c 03       		.uleb128 0x3
 1498 010d 08       		.uleb128 0x8
ARM GAS  C:\Users\CHAIYA~1\AppData\Local\Temp\cceYnCpn.s 			page 35


 1499 010e 3A       		.uleb128 0x3a
 1500 010f 0B       		.uleb128 0xb
 1501 0110 3B       		.uleb128 0x3b
 1502 0111 05       		.uleb128 0x5
 1503 0112 49       		.uleb128 0x49
 1504 0113 13       		.uleb128 0x13
 1505 0114 02       		.uleb128 0x2
 1506 0115 18       		.uleb128 0x18
 1507 0116 00       		.byte	0
 1508 0117 00       		.byte	0
 1509 0118 14       		.uleb128 0x14
 1510 0119 34       		.uleb128 0x34
 1511 011a 00       		.byte	0
 1512 011b 03       		.uleb128 0x3
 1513 011c 0E       		.uleb128 0xe
 1514 011d 3A       		.uleb128 0x3a
 1515 011e 0B       		.uleb128 0xb
 1516 011f 3B       		.uleb128 0x3b
 1517 0120 05       		.uleb128 0x5
 1518 0121 49       		.uleb128 0x49
 1519 0122 13       		.uleb128 0x13
 1520 0123 3F       		.uleb128 0x3f
 1521 0124 19       		.uleb128 0x19
 1522 0125 3C       		.uleb128 0x3c
 1523 0126 19       		.uleb128 0x19
 1524 0127 00       		.byte	0
 1525 0128 00       		.byte	0
 1526 0129 15       		.uleb128 0x15
 1527 012a 01       		.uleb128 0x1
 1528 012b 01       		.byte	0x1
 1529 012c 49       		.uleb128 0x49
 1530 012d 13       		.uleb128 0x13
 1531 012e 01       		.uleb128 0x1
 1532 012f 13       		.uleb128 0x13
 1533 0130 00       		.byte	0
 1534 0131 00       		.byte	0
 1535 0132 16       		.uleb128 0x16
 1536 0133 21       		.uleb128 0x21
 1537 0134 00       		.byte	0
 1538 0135 49       		.uleb128 0x49
 1539 0136 13       		.uleb128 0x13
 1540 0137 2F       		.uleb128 0x2f
 1541 0138 0B       		.uleb128 0xb
 1542 0139 00       		.byte	0
 1543 013a 00       		.byte	0
 1544 013b 17       		.uleb128 0x17
 1545 013c 34       		.uleb128 0x34
 1546 013d 00       		.byte	0
 1547 013e 03       		.uleb128 0x3
 1548 013f 0E       		.uleb128 0xe
 1549 0140 3A       		.uleb128 0x3a
 1550 0141 0B       		.uleb128 0xb
 1551 0142 3B       		.uleb128 0x3b
 1552 0143 0B       		.uleb128 0xb
 1553 0144 49       		.uleb128 0x49
 1554 0145 13       		.uleb128 0x13
 1555 0146 3F       		.uleb128 0x3f
ARM GAS  C:\Users\CHAIYA~1\AppData\Local\Temp\cceYnCpn.s 			page 36


 1556 0147 19       		.uleb128 0x19
 1557 0148 02       		.uleb128 0x2
 1558 0149 18       		.uleb128 0x18
 1559 014a 00       		.byte	0
 1560 014b 00       		.byte	0
 1561 014c 18       		.uleb128 0x18
 1562 014d 34       		.uleb128 0x34
 1563 014e 00       		.byte	0
 1564 014f 03       		.uleb128 0x3
 1565 0150 0E       		.uleb128 0xe
 1566 0151 3A       		.uleb128 0x3a
 1567 0152 0B       		.uleb128 0xb
 1568 0153 3B       		.uleb128 0x3b
 1569 0154 0B       		.uleb128 0xb
 1570 0155 49       		.uleb128 0x49
 1571 0156 13       		.uleb128 0x13
 1572 0157 3F       		.uleb128 0x3f
 1573 0158 19       		.uleb128 0x19
 1574 0159 3C       		.uleb128 0x3c
 1575 015a 19       		.uleb128 0x19
 1576 015b 00       		.byte	0
 1577 015c 00       		.byte	0
 1578 015d 00       		.byte	0
 1579              		.section	.debug_aranges,"",%progbits
 1580 0000 44000000 		.4byte	0x44
 1581 0004 0200     		.2byte	0x2
 1582 0006 00000000 		.4byte	.Ldebug_info0
 1583 000a 04       		.byte	0x4
 1584 000b 00       		.byte	0
 1585 000c 0000     		.2byte	0
 1586 000e 0000     		.2byte	0
 1587 0010 00000000 		.4byte	.LFB0
 1588 0014 64000000 		.4byte	.LFE0-.LFB0
 1589 0018 00000000 		.4byte	.LFB1
 1590 001c 24000000 		.4byte	.LFE1-.LFB1
 1591 0020 00000000 		.4byte	.LFB2
 1592 0024 EC010000 		.4byte	.LFE2-.LFB2
 1593 0028 00000000 		.4byte	.LFB3
 1594 002c 7C000000 		.4byte	.LFE3-.LFB3
 1595 0030 00000000 		.4byte	.LFB4
 1596 0034 8C000000 		.4byte	.LFE4-.LFB4
 1597 0038 00000000 		.4byte	.LFB5
 1598 003c D0000000 		.4byte	.LFE5-.LFB5
 1599 0040 00000000 		.4byte	0
 1600 0044 00000000 		.4byte	0
 1601              		.section	.debug_ranges,"",%progbits
 1602              	.Ldebug_ranges0:
 1603 0000 00000000 		.4byte	.LFB0
 1604 0004 64000000 		.4byte	.LFE0
 1605 0008 00000000 		.4byte	.LFB1
 1606 000c 24000000 		.4byte	.LFE1
 1607 0010 00000000 		.4byte	.LFB2
 1608 0014 EC010000 		.4byte	.LFE2
 1609 0018 00000000 		.4byte	.LFB3
 1610 001c 7C000000 		.4byte	.LFE3
 1611 0020 00000000 		.4byte	.LFB4
 1612 0024 8C000000 		.4byte	.LFE4
ARM GAS  C:\Users\CHAIYA~1\AppData\Local\Temp\cceYnCpn.s 			page 37


 1613 0028 00000000 		.4byte	.LFB5
 1614 002c D0000000 		.4byte	.LFE5
 1615 0030 00000000 		.4byte	0
 1616 0034 00000000 		.4byte	0
 1617              		.section	.debug_line,"",%progbits
 1618              	.Ldebug_line0:
 1619 0000 6B010000 		.section	.debug_str,"MS",%progbits,1
 1619      02006800 
 1619      00000201 
 1619      FB0E0D00 
 1619      01010101 
 1620              	.LASF28:
 1621 0000 55534255 		.ascii	"USBUART_DispatchHIDClassRqst\000"
 1621      4152545F 
 1621      44697370 
 1621      61746368 
 1621      48494443 
 1622              	.LASF21:
 1623 001d 70537461 		.ascii	"pStatusBlock\000"
 1623      74757342 
 1623      6C6F636B 
 1623      00
 1624              	.LASF29:
 1625 002a 73746174 		.ascii	"stat\000"
 1625      00
 1626              	.LASF19:
 1627 002f 636F756E 		.ascii	"count\000"
 1627      7400
 1628              	.LASF3:
 1629 0035 73686F72 		.ascii	"short unsigned int\000"
 1629      7420756E 
 1629      7369676E 
 1629      65642069 
 1629      6E7400
 1630              	.LASF37:
 1631 0048 55534255 		.ascii	"USBUART_FindReport\000"
 1631      4152545F 
 1631      46696E64 
 1631      5265706F 
 1631      727400
 1632              	.LASF47:
 1633 005b 433A5C55 		.ascii	"C:\\Users\\Chai Yang\\Documents\\Node-Elephant\\TER"
 1633      73657273 
 1633      5C436861 
 1633      69205961 
 1633      6E675C44 
 1634 0089 4D494E41 		.ascii	"MINAL\\Node-Elephant-Terminal.cydsn\000"
 1634      4C5C4E6F 
 1634      64652D45 
 1634      6C657068 
 1634      616E742D 
 1635              	.LASF34:
 1636 00ac 696E7465 		.ascii	"interfaceN\000"
 1636      72666163 
 1636      654E00
 1637              	.LASF16:
 1638 00b7 73746174 		.ascii	"status\000"
ARM GAS  C:\Users\CHAIYA~1\AppData\Local\Temp\cceYnCpn.s 			page 38


 1638      757300
 1639              	.LASF36:
 1640 00be 55534255 		.ascii	"USBUART_FindReportDescriptor\000"
 1640      4152545F 
 1640      46696E64 
 1640      5265706F 
 1640      72744465 
 1641              	.LASF20:
 1642 00db 70446174 		.ascii	"pData\000"
 1642      6100
 1643              	.LASF30:
 1644 00e1 72657175 		.ascii	"requestHandled\000"
 1644      65737448 
 1644      616E646C 
 1644      656400
 1645              	.LASF11:
 1646 00f0 666C6F61 		.ascii	"float\000"
 1646      7400
 1647              	.LASF38:
 1648 00f6 7265706F 		.ascii	"reportType\000"
 1648      72745479 
 1648      706500
 1649              	.LASF1:
 1650 0101 756E7369 		.ascii	"unsigned char\000"
 1650      676E6564 
 1650      20636861 
 1650      7200
 1651              	.LASF41:
 1652 010f 55534255 		.ascii	"USBUART_hidIdleRate\000"
 1652      4152545F 
 1652      68696449 
 1652      646C6552 
 1652      61746500 
 1653              	.LASF22:
 1654 0123 545F5553 		.ascii	"T_USBUART_TD\000"
 1654      42554152 
 1654      545F5444 
 1654      00
 1655              	.LASF14:
 1656 0130 72656738 		.ascii	"reg8\000"
 1656      00
 1657              	.LASF45:
 1658 0135 474E5520 		.ascii	"GNU C 4.8.4 20140526 (release) [ARM/embedded-4_8-br"
 1658      4320342E 
 1658      382E3420 
 1658      32303134 
 1658      30353236 
 1659 0168 616E6368 		.ascii	"anch revision 211358] -mcpu=cortex-m3 -mthumb -g -O"
 1659      20726576 
 1659      6973696F 
 1659      6E203231 
 1659      31333538 
 1660 019b 30202D66 		.ascii	"0 -ffunction-sections\000"
 1660      66756E63 
 1660      74696F6E 
 1660      2D736563 
 1660      74696F6E 
ARM GAS  C:\Users\CHAIYA~1\AppData\Local\Temp\cceYnCpn.s 			page 39


 1661              	.LASF5:
 1662 01b1 6C6F6E67 		.ascii	"long unsigned int\000"
 1662      20756E73 
 1662      69676E65 
 1662      6420696E 
 1662      7400
 1663              	.LASF9:
 1664 01c3 75696E74 		.ascii	"uint8\000"
 1664      3800
 1665              	.LASF31:
 1666 01c9 696E7465 		.ascii	"interfaceNumber\000"
 1666      72666163 
 1666      654E756D 
 1666      62657200 
 1667              	.LASF26:
 1668 01d9 55534255 		.ascii	"USBUART_GetProtocol\000"
 1668      4152545F 
 1668      47657450 
 1668      726F746F 
 1668      636F6C00 
 1669              	.LASF42:
 1670 01ed 55534255 		.ascii	"USBUART_hidIdleTimer\000"
 1670      4152545F 
 1670      68696449 
 1670      646C6554 
 1670      696D6572 
 1671              	.LASF12:
 1672 0202 646F7562 		.ascii	"double\000"
 1672      6C6500
 1673              	.LASF44:
 1674 0209 55534255 		.ascii	"USBUART_currentTD\000"
 1674      4152545F 
 1674      63757272 
 1674      656E7454 
 1674      4400
 1675              	.LASF10:
 1676 021b 75696E74 		.ascii	"uint16\000"
 1676      313600
 1677              	.LASF33:
 1678 0222 70446573 		.ascii	"pDescr\000"
 1678      637200
 1679              	.LASF8:
 1680 0229 756E7369 		.ascii	"unsigned int\000"
 1680      676E6564 
 1680      20696E74 
 1680      00
 1681              	.LASF40:
 1682 0236 55534255 		.ascii	"USBUART_hidProtocol\000"
 1682      4152545F 
 1682      68696450 
 1682      726F746F 
 1682      636F6C00 
 1683              	.LASF25:
 1684 024a 55534255 		.ascii	"USBUART_UpdateHIDTimer\000"
 1684      4152545F 
 1684      55706461 
 1684      74654849 
ARM GAS  C:\Users\CHAIYA~1\AppData\Local\Temp\cceYnCpn.s 			page 40


 1684      4454696D 
 1685              	.LASF7:
 1686 0261 6C6F6E67 		.ascii	"long long unsigned int\000"
 1686      206C6F6E 
 1686      6720756E 
 1686      7369676E 
 1686      65642069 
 1687              	.LASF35:
 1688 0278 55534255 		.ascii	"USBUART_FindHidClassDecriptor\000"
 1688      4152545F 
 1688      46696E64 
 1688      48696443 
 1688      6C617373 
 1689              	.LASF23:
 1690 0296 705F6C69 		.ascii	"p_list\000"
 1690      737400
 1691              	.LASF18:
 1692 029d 545F5553 		.ascii	"T_USBUART_XFER_STATUS_BLOCK\000"
 1692      42554152 
 1692      545F5846 
 1692      45525F53 
 1692      54415455 
 1693              	.LASF46:
 1694 02b9 2E5C4765 		.ascii	".\\Generated_Source\\PSoC5\\USBUART_hid.c\000"
 1694      6E657261 
 1694      7465645F 
 1694      536F7572 
 1694      63655C50 
 1695              	.LASF15:
 1696 02e0 73697A65 		.ascii	"sizetype\000"
 1696      74797065 
 1696      00
 1697              	.LASF39:
 1698 02e9 55534255 		.ascii	"USBUART_configuration\000"
 1698      4152545F 
 1698      636F6E66 
 1698      69677572 
 1698      6174696F 
 1699              	.LASF6:
 1700 02ff 6C6F6E67 		.ascii	"long long int\000"
 1700      206C6F6E 
 1700      6720696E 
 1700      7400
 1701              	.LASF13:
 1702 030d 63686172 		.ascii	"char\000"
 1702      00
 1703              	.LASF32:
 1704 0312 70546D70 		.ascii	"pTmp\000"
 1704      00
 1705              	.LASF2:
 1706 0317 73686F72 		.ascii	"short int\000"
 1706      7420696E 
 1706      7400
 1707              	.LASF27:
 1708 0321 696E7465 		.ascii	"interface\000"
 1708      72666163 
 1708      6500
ARM GAS  C:\Users\CHAIYA~1\AppData\Local\Temp\cceYnCpn.s 			page 41


 1709              	.LASF24:
 1710 032b 545F5553 		.ascii	"T_USBUART_LUT\000"
 1710      42554152 
 1710      545F4C55 
 1710      5400
 1711              	.LASF4:
 1712 0339 6C6F6E67 		.ascii	"long int\000"
 1712      20696E74 
 1712      00
 1713              	.LASF43:
 1714 0342 55534255 		.ascii	"USBUART_interfaceSetting\000"
 1714      4152545F 
 1714      696E7465 
 1714      72666163 
 1714      65536574 
 1715              	.LASF0:
 1716 035b 7369676E 		.ascii	"signed char\000"
 1716      65642063 
 1716      68617200 
 1717              	.LASF17:
 1718 0367 6C656E67 		.ascii	"length\000"
 1718      746800
 1719              		.ident	"GCC: (GNU Tools for ARM Embedded Processors) 4.8.4 20140526 (release) [ARM/embedded-4_8-br
