ARM GAS  C:\Users\CHAIYA~1\AppData\Local\Temp\ccx8jNaQ.s 			page 1


   1              		.syntax unified
   2              		.cpu cortex-m3
   3              		.fpu softvfp
   4              		.eabi_attribute 20, 1
   5              		.eabi_attribute 21, 1
   6              		.eabi_attribute 23, 3
   7              		.eabi_attribute 24, 1
   8              		.eabi_attribute 25, 1
   9              		.eabi_attribute 26, 1
  10              		.eabi_attribute 30, 6
  11              		.eabi_attribute 34, 1
  12              		.eabi_attribute 18, 4
  13              		.thumb
  14              		.file	"USBUART_cdc.c"
  15              		.text
  16              	.Ltext0:
  17              		.cfi_sections	.debug_frame
  18              		.global	USBUART_lineCoding
  19              		.data
  20              		.align	2
  21              		.type	USBUART_lineCoding, %object
  22              		.size	USBUART_lineCoding, 7
  23              	USBUART_lineCoding:
  24 0000 00       		.byte	0
  25 0001 C2       		.byte	-62
  26 0002 01       		.byte	1
  27 0003 00       		.byte	0
  28 0004 00       		.byte	0
  29 0005 00       		.byte	0
  30 0006 08       		.byte	8
  31              		.comm	USBUART_lineChanged,1,1
  32              		.comm	USBUART_lineControlBitmap,2,2
  33              		.comm	USBUART_cdc_data_in_ep,1,1
  34              		.comm	USBUART_cdc_data_out_ep,1,1
  35 0007 00       		.section	.text.USBUART_DispatchCDCClassRqst,"ax",%progbits
  36              		.align	2
  37              		.global	USBUART_DispatchCDCClassRqst
  38              		.thumb
  39              		.thumb_func
  40              		.type	USBUART_DispatchCDCClassRqst, %function
  41              	USBUART_DispatchCDCClassRqst:
  42              	.LFB0:
  43              		.file 1 ".\\Generated_Source\\PSoC5\\USBUART_cdc.c"
   1:.\Generated_Source\PSoC5/USBUART_cdc.c **** /*******************************************************************************
   2:.\Generated_Source\PSoC5/USBUART_cdc.c **** * File Name: USBUART_cdc.c
   3:.\Generated_Source\PSoC5/USBUART_cdc.c **** * Version 2.80
   4:.\Generated_Source\PSoC5/USBUART_cdc.c **** *
   5:.\Generated_Source\PSoC5/USBUART_cdc.c **** * Description:
   6:.\Generated_Source\PSoC5/USBUART_cdc.c **** *  USB CDC class request handler.
   7:.\Generated_Source\PSoC5/USBUART_cdc.c **** *
   8:.\Generated_Source\PSoC5/USBUART_cdc.c **** * Related Document:
   9:.\Generated_Source\PSoC5/USBUART_cdc.c **** *  Universal Serial Bus Class Definitions for Communication Devices Version 1.1
  10:.\Generated_Source\PSoC5/USBUART_cdc.c **** *
  11:.\Generated_Source\PSoC5/USBUART_cdc.c **** ********************************************************************************
  12:.\Generated_Source\PSoC5/USBUART_cdc.c **** * Copyright 2012-2014, Cypress Semiconductor Corporation.  All rights reserved.
  13:.\Generated_Source\PSoC5/USBUART_cdc.c **** * You may use this file only in accordance with the license, terms, conditions,
  14:.\Generated_Source\PSoC5/USBUART_cdc.c **** * disclaimers, and limitations in the end user license agreement accompanying
ARM GAS  C:\Users\CHAIYA~1\AppData\Local\Temp\ccx8jNaQ.s 			page 2


  15:.\Generated_Source\PSoC5/USBUART_cdc.c **** * the software package with which this file was provided.
  16:.\Generated_Source\PSoC5/USBUART_cdc.c **** *******************************************************************************/
  17:.\Generated_Source\PSoC5/USBUART_cdc.c **** 
  18:.\Generated_Source\PSoC5/USBUART_cdc.c **** #include "USBUART.h"
  19:.\Generated_Source\PSoC5/USBUART_cdc.c **** 
  20:.\Generated_Source\PSoC5/USBUART_cdc.c **** #if defined(USBUART_ENABLE_CDC_CLASS)
  21:.\Generated_Source\PSoC5/USBUART_cdc.c **** 
  22:.\Generated_Source\PSoC5/USBUART_cdc.c **** #include "USBUART_cdc.h"
  23:.\Generated_Source\PSoC5/USBUART_cdc.c **** #include "USBUART_pvt.h"
  24:.\Generated_Source\PSoC5/USBUART_cdc.c **** 
  25:.\Generated_Source\PSoC5/USBUART_cdc.c **** 
  26:.\Generated_Source\PSoC5/USBUART_cdc.c **** /***************************************
  27:.\Generated_Source\PSoC5/USBUART_cdc.c **** *    CDC Variables
  28:.\Generated_Source\PSoC5/USBUART_cdc.c **** ***************************************/
  29:.\Generated_Source\PSoC5/USBUART_cdc.c **** 
  30:.\Generated_Source\PSoC5/USBUART_cdc.c **** volatile uint8 USBUART_lineCoding[USBUART_LINE_CODING_SIZE] =
  31:.\Generated_Source\PSoC5/USBUART_cdc.c **** {
  32:.\Generated_Source\PSoC5/USBUART_cdc.c ****     0x00u, 0xC2u, 0x01u, 0x00u,     /* Data terminal rate 115200 */
  33:.\Generated_Source\PSoC5/USBUART_cdc.c ****     0x00u,                          /* 1 Stop bit */
  34:.\Generated_Source\PSoC5/USBUART_cdc.c ****     0x00u,                          /* None parity */
  35:.\Generated_Source\PSoC5/USBUART_cdc.c ****     0x08u                           /* 8 data bits */
  36:.\Generated_Source\PSoC5/USBUART_cdc.c **** };
  37:.\Generated_Source\PSoC5/USBUART_cdc.c **** volatile uint8 USBUART_lineChanged;
  38:.\Generated_Source\PSoC5/USBUART_cdc.c **** volatile uint16 USBUART_lineControlBitmap;
  39:.\Generated_Source\PSoC5/USBUART_cdc.c **** volatile uint8 USBUART_cdc_data_in_ep;
  40:.\Generated_Source\PSoC5/USBUART_cdc.c **** volatile uint8 USBUART_cdc_data_out_ep;
  41:.\Generated_Source\PSoC5/USBUART_cdc.c **** 
  42:.\Generated_Source\PSoC5/USBUART_cdc.c **** 
  43:.\Generated_Source\PSoC5/USBUART_cdc.c **** /***************************************
  44:.\Generated_Source\PSoC5/USBUART_cdc.c **** *     Static Function Prototypes
  45:.\Generated_Source\PSoC5/USBUART_cdc.c **** ***************************************/
  46:.\Generated_Source\PSoC5/USBUART_cdc.c **** #if (USBUART_ENABLE_CDC_CLASS_API != 0u)
  47:.\Generated_Source\PSoC5/USBUART_cdc.c ****     static uint16 USBUART_StrLen(const char8 string[]) ;
  48:.\Generated_Source\PSoC5/USBUART_cdc.c **** #endif /* (USBUART_ENABLE_CDC_CLASS_API != 0u) */
  49:.\Generated_Source\PSoC5/USBUART_cdc.c **** 
  50:.\Generated_Source\PSoC5/USBUART_cdc.c **** 
  51:.\Generated_Source\PSoC5/USBUART_cdc.c **** /***************************************
  52:.\Generated_Source\PSoC5/USBUART_cdc.c **** * Custom Declarations
  53:.\Generated_Source\PSoC5/USBUART_cdc.c **** ***************************************/
  54:.\Generated_Source\PSoC5/USBUART_cdc.c **** 
  55:.\Generated_Source\PSoC5/USBUART_cdc.c **** /* `#START CDC_CUSTOM_DECLARATIONS` Place your declaration here */
  56:.\Generated_Source\PSoC5/USBUART_cdc.c **** 
  57:.\Generated_Source\PSoC5/USBUART_cdc.c **** /* `#END` */
  58:.\Generated_Source\PSoC5/USBUART_cdc.c **** 
  59:.\Generated_Source\PSoC5/USBUART_cdc.c **** 
  60:.\Generated_Source\PSoC5/USBUART_cdc.c **** /*******************************************************************************
  61:.\Generated_Source\PSoC5/USBUART_cdc.c **** * Function Name: USBUART_DispatchCDCClassRqst
  62:.\Generated_Source\PSoC5/USBUART_cdc.c **** ********************************************************************************
  63:.\Generated_Source\PSoC5/USBUART_cdc.c **** *
  64:.\Generated_Source\PSoC5/USBUART_cdc.c **** * Summary:
  65:.\Generated_Source\PSoC5/USBUART_cdc.c **** *  This routine dispatches CDC class requests.
  66:.\Generated_Source\PSoC5/USBUART_cdc.c **** *
  67:.\Generated_Source\PSoC5/USBUART_cdc.c **** * Parameters:
  68:.\Generated_Source\PSoC5/USBUART_cdc.c **** *  None.
  69:.\Generated_Source\PSoC5/USBUART_cdc.c **** *
  70:.\Generated_Source\PSoC5/USBUART_cdc.c **** * Return:
  71:.\Generated_Source\PSoC5/USBUART_cdc.c **** *  requestHandled
ARM GAS  C:\Users\CHAIYA~1\AppData\Local\Temp\ccx8jNaQ.s 			page 3


  72:.\Generated_Source\PSoC5/USBUART_cdc.c **** *
  73:.\Generated_Source\PSoC5/USBUART_cdc.c **** * Global variables:
  74:.\Generated_Source\PSoC5/USBUART_cdc.c **** *   USBUART_lineCoding: Contains the current line coding structure.
  75:.\Generated_Source\PSoC5/USBUART_cdc.c **** *     It is set by the Host using SET_LINE_CODING request and returned to the
  76:.\Generated_Source\PSoC5/USBUART_cdc.c **** *     user code by the USBFS_GetDTERate(), USBFS_GetCharFormat(),
  77:.\Generated_Source\PSoC5/USBUART_cdc.c **** *     USBFS_GetParityType(), USBFS_GetDataBits() APIs.
  78:.\Generated_Source\PSoC5/USBUART_cdc.c **** *   USBUART_lineControlBitmap: Contains the current control signal
  79:.\Generated_Source\PSoC5/USBUART_cdc.c **** *     bitmap. It is set by the Host using SET_CONTROL_LINE request and returned
  80:.\Generated_Source\PSoC5/USBUART_cdc.c **** *     to the user code by the USBFS_GetLineControl() API.
  81:.\Generated_Source\PSoC5/USBUART_cdc.c **** *   USBUART_lineChanged: This variable is used as a flag for the
  82:.\Generated_Source\PSoC5/USBUART_cdc.c **** *     USBFS_IsLineChanged() API, to be aware that Host has been sent request
  83:.\Generated_Source\PSoC5/USBUART_cdc.c **** *     for changing Line Coding or Control Bitmap.
  84:.\Generated_Source\PSoC5/USBUART_cdc.c **** *
  85:.\Generated_Source\PSoC5/USBUART_cdc.c **** * Reentrant:
  86:.\Generated_Source\PSoC5/USBUART_cdc.c **** *  No.
  87:.\Generated_Source\PSoC5/USBUART_cdc.c **** *
  88:.\Generated_Source\PSoC5/USBUART_cdc.c **** *******************************************************************************/
  89:.\Generated_Source\PSoC5/USBUART_cdc.c **** uint8 USBUART_DispatchCDCClassRqst(void) 
  90:.\Generated_Source\PSoC5/USBUART_cdc.c **** {
  44              		.loc 1 90 0
  45              		.cfi_startproc
  46              		@ args = 0, pretend = 0, frame = 8
  47              		@ frame_needed = 1, uses_anonymous_args = 0
  48 0000 80B5     		push	{r7, lr}
  49              		.cfi_def_cfa_offset 8
  50              		.cfi_offset 7, -8
  51              		.cfi_offset 14, -4
  52 0002 82B0     		sub	sp, sp, #8
  53              		.cfi_def_cfa_offset 16
  54 0004 00AF     		add	r7, sp, #0
  55              		.cfi_def_cfa_register 7
  91:.\Generated_Source\PSoC5/USBUART_cdc.c ****     uint8 requestHandled = USBUART_FALSE;
  56              		.loc 1 91 0
  57 0006 0023     		movs	r3, #0
  58 0008 FB71     		strb	r3, [r7, #7]
  92:.\Generated_Source\PSoC5/USBUART_cdc.c **** 
  93:.\Generated_Source\PSoC5/USBUART_cdc.c ****     if ((CY_GET_REG8(USBUART_bmRequestType) & USBUART_RQST_DIR_MASK) == USBUART_RQST_DIR_D2H)
  59              		.loc 1 93 0
  60 000a 294B     		ldr	r3, .L12
  61 000c 1B78     		ldrb	r3, [r3]
  62 000e DBB2     		uxtb	r3, r3
  63 0010 DBB2     		uxtb	r3, r3
  64 0012 5BB2     		sxtb	r3, r3
  65 0014 002B     		cmp	r3, #0
  66 0016 11DA     		bge	.L2
  94:.\Generated_Source\PSoC5/USBUART_cdc.c ****     {   /* Control Read */
  95:.\Generated_Source\PSoC5/USBUART_cdc.c ****         switch (CY_GET_REG8(USBUART_bRequest))
  67              		.loc 1 95 0
  68 0018 264B     		ldr	r3, .L12+4
  69 001a 1B78     		ldrb	r3, [r3]
  70 001c DBB2     		uxtb	r3, r3
  71 001e 212B     		cmp	r3, #33
  72 0020 00D0     		beq	.L4
  96:.\Generated_Source\PSoC5/USBUART_cdc.c ****         {
  97:.\Generated_Source\PSoC5/USBUART_cdc.c ****             case USBUART_CDC_GET_LINE_CODING:
  98:.\Generated_Source\PSoC5/USBUART_cdc.c ****                 USBUART_currentTD.count = USBUART_LINE_CODING_SIZE;
  99:.\Generated_Source\PSoC5/USBUART_cdc.c ****                 USBUART_currentTD.pData = USBUART_lineCoding;
ARM GAS  C:\Users\CHAIYA~1\AppData\Local\Temp\ccx8jNaQ.s 			page 4


 100:.\Generated_Source\PSoC5/USBUART_cdc.c ****                 requestHandled  = USBUART_InitControlRead();
 101:.\Generated_Source\PSoC5/USBUART_cdc.c ****                 break;
 102:.\Generated_Source\PSoC5/USBUART_cdc.c **** 
 103:.\Generated_Source\PSoC5/USBUART_cdc.c ****             /* `#START CDC_READ_REQUESTS` Place other request handler here */
 104:.\Generated_Source\PSoC5/USBUART_cdc.c **** 
 105:.\Generated_Source\PSoC5/USBUART_cdc.c ****             /* `#END` */
 106:.\Generated_Source\PSoC5/USBUART_cdc.c **** 
 107:.\Generated_Source\PSoC5/USBUART_cdc.c ****             default:    /* requestHandled is initialized as FALSE by default */
 108:.\Generated_Source\PSoC5/USBUART_cdc.c ****                 break;
  73              		.loc 1 108 0
  74 0022 0AE0     		b	.L5
  75              	.L4:
  98:.\Generated_Source\PSoC5/USBUART_cdc.c ****                 USBUART_currentTD.count = USBUART_LINE_CODING_SIZE;
  76              		.loc 1 98 0
  77 0024 244B     		ldr	r3, .L12+8
  78 0026 0722     		movs	r2, #7
  79 0028 1A80     		strh	r2, [r3]	@ movhi
  99:.\Generated_Source\PSoC5/USBUART_cdc.c ****                 USBUART_currentTD.pData = USBUART_lineCoding;
  80              		.loc 1 99 0
  81 002a 234B     		ldr	r3, .L12+8
  82 002c 234A     		ldr	r2, .L12+12
  83 002e 5A60     		str	r2, [r3, #4]
 100:.\Generated_Source\PSoC5/USBUART_cdc.c ****                 requestHandled  = USBUART_InitControlRead();
  84              		.loc 1 100 0
  85 0030 FFF7FEFF 		bl	USBUART_InitControlRead
  86 0034 0346     		mov	r3, r0
  87 0036 FB71     		strb	r3, [r7, #7]
 101:.\Generated_Source\PSoC5/USBUART_cdc.c ****                 break;
  88              		.loc 1 101 0
  89 0038 00BF     		nop
  90              	.L5:
  91 003a 34E0     		b	.L6
  92              	.L2:
 109:.\Generated_Source\PSoC5/USBUART_cdc.c ****         }
 110:.\Generated_Source\PSoC5/USBUART_cdc.c ****     }
 111:.\Generated_Source\PSoC5/USBUART_cdc.c ****     else if ((CY_GET_REG8(USBUART_bmRequestType) & USBUART_RQST_DIR_MASK) == \
  93              		.loc 1 111 0
  94 003c 1C4B     		ldr	r3, .L12
  95 003e 1B78     		ldrb	r3, [r3]
  96 0040 DBB2     		uxtb	r3, r3
  97 0042 DBB2     		uxtb	r3, r3
  98 0044 5BB2     		sxtb	r3, r3
  99 0046 002B     		cmp	r3, #0
 100 0048 2DDB     		blt	.L6
 112:.\Generated_Source\PSoC5/USBUART_cdc.c ****                                                                             USBUART_RQST_DIR_H2D)
 113:.\Generated_Source\PSoC5/USBUART_cdc.c ****     {   /* Control Write */
 114:.\Generated_Source\PSoC5/USBUART_cdc.c ****         switch (CY_GET_REG8(USBUART_bRequest))
 101              		.loc 1 114 0
 102 004a 1A4B     		ldr	r3, .L12+4
 103 004c 1B78     		ldrb	r3, [r3]
 104 004e DBB2     		uxtb	r3, r3
 105 0050 202B     		cmp	r3, #32
 106 0052 02D0     		beq	.L8
 107 0054 222B     		cmp	r3, #34
 108 0056 13D0     		beq	.L9
 115:.\Generated_Source\PSoC5/USBUART_cdc.c ****         {
 116:.\Generated_Source\PSoC5/USBUART_cdc.c ****             case USBUART_CDC_SET_LINE_CODING:
ARM GAS  C:\Users\CHAIYA~1\AppData\Local\Temp\ccx8jNaQ.s 			page 5


 117:.\Generated_Source\PSoC5/USBUART_cdc.c ****                 USBUART_currentTD.count = USBUART_LINE_CODING_SIZE;
 118:.\Generated_Source\PSoC5/USBUART_cdc.c ****                 USBUART_currentTD.pData = USBUART_lineCoding;
 119:.\Generated_Source\PSoC5/USBUART_cdc.c ****                 USBUART_lineChanged |= USBUART_LINE_CODING_CHANGED;
 120:.\Generated_Source\PSoC5/USBUART_cdc.c ****                 requestHandled = USBUART_InitControlWrite();
 121:.\Generated_Source\PSoC5/USBUART_cdc.c ****                 break;
 122:.\Generated_Source\PSoC5/USBUART_cdc.c **** 
 123:.\Generated_Source\PSoC5/USBUART_cdc.c ****             case USBUART_CDC_SET_CONTROL_LINE_STATE:
 124:.\Generated_Source\PSoC5/USBUART_cdc.c ****                 USBUART_lineControlBitmap = CY_GET_REG8(USBUART_wValueLo);
 125:.\Generated_Source\PSoC5/USBUART_cdc.c ****                 USBUART_lineChanged |= USBUART_LINE_CONTROL_CHANGED;
 126:.\Generated_Source\PSoC5/USBUART_cdc.c ****                 requestHandled = USBUART_InitNoDataControlTransfer();
 127:.\Generated_Source\PSoC5/USBUART_cdc.c ****                 break;
 128:.\Generated_Source\PSoC5/USBUART_cdc.c **** 
 129:.\Generated_Source\PSoC5/USBUART_cdc.c ****             /* `#START CDC_WRITE_REQUESTS` Place other request handler here */
 130:.\Generated_Source\PSoC5/USBUART_cdc.c **** 
 131:.\Generated_Source\PSoC5/USBUART_cdc.c ****             /* `#END` */
 132:.\Generated_Source\PSoC5/USBUART_cdc.c **** 
 133:.\Generated_Source\PSoC5/USBUART_cdc.c ****             default:    /* requestHandled is initialized as FALSE by default */
 134:.\Generated_Source\PSoC5/USBUART_cdc.c ****                 break;
 109              		.loc 1 134 0
 110 0058 25E0     		b	.L10
 111              	.L8:
 117:.\Generated_Source\PSoC5/USBUART_cdc.c ****                 USBUART_currentTD.count = USBUART_LINE_CODING_SIZE;
 112              		.loc 1 117 0
 113 005a 174B     		ldr	r3, .L12+8
 114 005c 0722     		movs	r2, #7
 115 005e 1A80     		strh	r2, [r3]	@ movhi
 118:.\Generated_Source\PSoC5/USBUART_cdc.c ****                 USBUART_currentTD.pData = USBUART_lineCoding;
 116              		.loc 1 118 0
 117 0060 154B     		ldr	r3, .L12+8
 118 0062 164A     		ldr	r2, .L12+12
 119 0064 5A60     		str	r2, [r3, #4]
 119:.\Generated_Source\PSoC5/USBUART_cdc.c ****                 USBUART_lineChanged |= USBUART_LINE_CODING_CHANGED;
 120              		.loc 1 119 0
 121 0066 164B     		ldr	r3, .L12+16
 122 0068 1B78     		ldrb	r3, [r3]
 123 006a DBB2     		uxtb	r3, r3
 124 006c 43F00103 		orr	r3, r3, #1
 125 0070 DAB2     		uxtb	r2, r3
 126 0072 134B     		ldr	r3, .L12+16
 127 0074 1A70     		strb	r2, [r3]
 120:.\Generated_Source\PSoC5/USBUART_cdc.c ****                 requestHandled = USBUART_InitControlWrite();
 128              		.loc 1 120 0
 129 0076 FFF7FEFF 		bl	USBUART_InitControlWrite
 130 007a 0346     		mov	r3, r0
 131 007c FB71     		strb	r3, [r7, #7]
 121:.\Generated_Source\PSoC5/USBUART_cdc.c ****                 break;
 132              		.loc 1 121 0
 133 007e 12E0     		b	.L10
 134              	.L9:
 124:.\Generated_Source\PSoC5/USBUART_cdc.c ****                 USBUART_lineControlBitmap = CY_GET_REG8(USBUART_wValueLo);
 135              		.loc 1 124 0
 136 0080 104B     		ldr	r3, .L12+20
 137 0082 1B78     		ldrb	r3, [r3]
 138 0084 DBB2     		uxtb	r3, r3
 139 0086 1A46     		mov	r2, r3
 140 0088 0F4B     		ldr	r3, .L12+24
 141 008a 1A80     		strh	r2, [r3]	@ movhi
ARM GAS  C:\Users\CHAIYA~1\AppData\Local\Temp\ccx8jNaQ.s 			page 6


 125:.\Generated_Source\PSoC5/USBUART_cdc.c ****                 USBUART_lineChanged |= USBUART_LINE_CONTROL_CHANGED;
 142              		.loc 1 125 0
 143 008c 0C4B     		ldr	r3, .L12+16
 144 008e 1B78     		ldrb	r3, [r3]
 145 0090 DBB2     		uxtb	r3, r3
 146 0092 43F00203 		orr	r3, r3, #2
 147 0096 DAB2     		uxtb	r2, r3
 148 0098 094B     		ldr	r3, .L12+16
 149 009a 1A70     		strb	r2, [r3]
 126:.\Generated_Source\PSoC5/USBUART_cdc.c ****                 requestHandled = USBUART_InitNoDataControlTransfer();
 150              		.loc 1 126 0
 151 009c FFF7FEFF 		bl	USBUART_InitNoDataControlTransfer
 152 00a0 0346     		mov	r3, r0
 153 00a2 FB71     		strb	r3, [r7, #7]
 127:.\Generated_Source\PSoC5/USBUART_cdc.c ****                 break;
 154              		.loc 1 127 0
 155 00a4 00BF     		nop
 156              	.L10:
 157              	.L6:
 135:.\Generated_Source\PSoC5/USBUART_cdc.c ****         }
 136:.\Generated_Source\PSoC5/USBUART_cdc.c ****     }
 137:.\Generated_Source\PSoC5/USBUART_cdc.c ****     else
 138:.\Generated_Source\PSoC5/USBUART_cdc.c ****     {   /* requestHandled is initialized as FALSE by default */
 139:.\Generated_Source\PSoC5/USBUART_cdc.c ****     }
 140:.\Generated_Source\PSoC5/USBUART_cdc.c **** 
 141:.\Generated_Source\PSoC5/USBUART_cdc.c ****     return(requestHandled);
 158              		.loc 1 141 0
 159 00a6 FB79     		ldrb	r3, [r7, #7]	@ zero_extendqisi2
 142:.\Generated_Source\PSoC5/USBUART_cdc.c **** }
 160              		.loc 1 142 0
 161 00a8 1846     		mov	r0, r3
 162 00aa 0837     		adds	r7, r7, #8
 163 00ac BD46     		mov	sp, r7
 164              		@ sp needed
 165 00ae 80BD     		pop	{r7, pc}
 166              	.L13:
 167              		.align	2
 168              	.L12:
 169 00b0 00600040 		.word	1073766400
 170 00b4 01600040 		.word	1073766401
 171 00b8 00000000 		.word	USBUART_currentTD
 172 00bc 00000000 		.word	USBUART_lineCoding
 173 00c0 00000000 		.word	USBUART_lineChanged
 174 00c4 02600040 		.word	1073766402
 175 00c8 00000000 		.word	USBUART_lineControlBitmap
 176              		.cfi_endproc
 177              	.LFE0:
 178              		.size	USBUART_DispatchCDCClassRqst, .-USBUART_DispatchCDCClassRqst
 179              		.section	.text.USBUART_CDC_Init,"ax",%progbits
 180              		.align	2
 181              		.global	USBUART_CDC_Init
 182              		.thumb
 183              		.thumb_func
 184              		.type	USBUART_CDC_Init, %function
 185              	USBUART_CDC_Init:
 186              	.LFB1:
 143:.\Generated_Source\PSoC5/USBUART_cdc.c **** 
ARM GAS  C:\Users\CHAIYA~1\AppData\Local\Temp\ccx8jNaQ.s 			page 7


 144:.\Generated_Source\PSoC5/USBUART_cdc.c **** 
 145:.\Generated_Source\PSoC5/USBUART_cdc.c **** /***************************************
 146:.\Generated_Source\PSoC5/USBUART_cdc.c **** * Optional CDC APIs
 147:.\Generated_Source\PSoC5/USBUART_cdc.c **** ***************************************/
 148:.\Generated_Source\PSoC5/USBUART_cdc.c **** #if (USBUART_ENABLE_CDC_CLASS_API != 0u)
 149:.\Generated_Source\PSoC5/USBUART_cdc.c **** 
 150:.\Generated_Source\PSoC5/USBUART_cdc.c ****     /*******************************************************************************
 151:.\Generated_Source\PSoC5/USBUART_cdc.c ****     * Function Name: USBUART_CDC_Init
 152:.\Generated_Source\PSoC5/USBUART_cdc.c ****     ********************************************************************************
 153:.\Generated_Source\PSoC5/USBUART_cdc.c ****     *
 154:.\Generated_Source\PSoC5/USBUART_cdc.c ****     * Summary:
 155:.\Generated_Source\PSoC5/USBUART_cdc.c ****     *  This function initialize the CDC interface to be ready for the receive data
 156:.\Generated_Source\PSoC5/USBUART_cdc.c ****     *  from the PC.
 157:.\Generated_Source\PSoC5/USBUART_cdc.c ****     *
 158:.\Generated_Source\PSoC5/USBUART_cdc.c ****     * Parameters:
 159:.\Generated_Source\PSoC5/USBUART_cdc.c ****     *  None.
 160:.\Generated_Source\PSoC5/USBUART_cdc.c ****     *
 161:.\Generated_Source\PSoC5/USBUART_cdc.c ****     * Return:
 162:.\Generated_Source\PSoC5/USBUART_cdc.c ****     *  None.
 163:.\Generated_Source\PSoC5/USBUART_cdc.c ****     *
 164:.\Generated_Source\PSoC5/USBUART_cdc.c ****     * Global variables:
 165:.\Generated_Source\PSoC5/USBUART_cdc.c ****     *   USBUART_lineChanged: Initialized to zero.
 166:.\Generated_Source\PSoC5/USBUART_cdc.c ****     *   USBUART_cdc_data_out_ep: Used as an OUT endpoint number.
 167:.\Generated_Source\PSoC5/USBUART_cdc.c ****     *
 168:.\Generated_Source\PSoC5/USBUART_cdc.c ****     * Reentrant:
 169:.\Generated_Source\PSoC5/USBUART_cdc.c ****     *  No.
 170:.\Generated_Source\PSoC5/USBUART_cdc.c ****     *
 171:.\Generated_Source\PSoC5/USBUART_cdc.c ****     *******************************************************************************/
 172:.\Generated_Source\PSoC5/USBUART_cdc.c ****     void USBUART_CDC_Init(void) 
 173:.\Generated_Source\PSoC5/USBUART_cdc.c ****     {
 187              		.loc 1 173 0
 188              		.cfi_startproc
 189              		@ args = 0, pretend = 0, frame = 0
 190              		@ frame_needed = 1, uses_anonymous_args = 0
 191 0000 80B5     		push	{r7, lr}
 192              		.cfi_def_cfa_offset 8
 193              		.cfi_offset 7, -8
 194              		.cfi_offset 14, -4
 195 0002 00AF     		add	r7, sp, #0
 196              		.cfi_def_cfa_register 7
 174:.\Generated_Source\PSoC5/USBUART_cdc.c ****         USBUART_lineChanged = 0u;
 197              		.loc 1 174 0
 198 0004 044B     		ldr	r3, .L15
 199 0006 0022     		movs	r2, #0
 200 0008 1A70     		strb	r2, [r3]
 175:.\Generated_Source\PSoC5/USBUART_cdc.c ****         USBUART_EnableOutEP(USBUART_cdc_data_out_ep);
 201              		.loc 1 175 0
 202 000a 044B     		ldr	r3, .L15+4
 203 000c 1B78     		ldrb	r3, [r3]
 204 000e DBB2     		uxtb	r3, r3
 205 0010 1846     		mov	r0, r3
 206 0012 FFF7FEFF 		bl	USBUART_EnableOutEP
 176:.\Generated_Source\PSoC5/USBUART_cdc.c ****     }
 207              		.loc 1 176 0
 208 0016 80BD     		pop	{r7, pc}
 209              	.L16:
 210              		.align	2
ARM GAS  C:\Users\CHAIYA~1\AppData\Local\Temp\ccx8jNaQ.s 			page 8


 211              	.L15:
 212 0018 00000000 		.word	USBUART_lineChanged
 213 001c 00000000 		.word	USBUART_cdc_data_out_ep
 214              		.cfi_endproc
 215              	.LFE1:
 216              		.size	USBUART_CDC_Init, .-USBUART_CDC_Init
 217              		.section	.text.USBUART_PutData,"ax",%progbits
 218              		.align	2
 219              		.global	USBUART_PutData
 220              		.thumb
 221              		.thumb_func
 222              		.type	USBUART_PutData, %function
 223              	USBUART_PutData:
 224              	.LFB2:
 177:.\Generated_Source\PSoC5/USBUART_cdc.c **** 
 178:.\Generated_Source\PSoC5/USBUART_cdc.c **** 
 179:.\Generated_Source\PSoC5/USBUART_cdc.c ****     /*******************************************************************************
 180:.\Generated_Source\PSoC5/USBUART_cdc.c ****     * Function Name: USBUART_PutData
 181:.\Generated_Source\PSoC5/USBUART_cdc.c ****     ********************************************************************************
 182:.\Generated_Source\PSoC5/USBUART_cdc.c ****     *
 183:.\Generated_Source\PSoC5/USBUART_cdc.c ****     * Summary:
 184:.\Generated_Source\PSoC5/USBUART_cdc.c ****     *  This function sends a specified number of bytes from the location specified
 185:.\Generated_Source\PSoC5/USBUART_cdc.c ****     *  by a pointer to the PC. The USBUART_CDCIsReady() function should be
 186:.\Generated_Source\PSoC5/USBUART_cdc.c ****     *  called before sending new data, to be sure that the previous data has
 187:.\Generated_Source\PSoC5/USBUART_cdc.c ****     *  finished sending.
 188:.\Generated_Source\PSoC5/USBUART_cdc.c ****     *  If the last sent packet is less than maximum packet size the USB transfer
 189:.\Generated_Source\PSoC5/USBUART_cdc.c ****     *  of this short packet will identify the end of the segment. If the last sent
 190:.\Generated_Source\PSoC5/USBUART_cdc.c ****     *  packet is exactly maximum packet size, it shall be followed by a zero-length
 191:.\Generated_Source\PSoC5/USBUART_cdc.c ****     *  packet (which is a short packet) to assure the end of segment is properly
 192:.\Generated_Source\PSoC5/USBUART_cdc.c ****     *  identified. To send zero-length packet, use USBUART_PutData() API
 193:.\Generated_Source\PSoC5/USBUART_cdc.c ****     *  with length parameter set to zero.
 194:.\Generated_Source\PSoC5/USBUART_cdc.c ****     *
 195:.\Generated_Source\PSoC5/USBUART_cdc.c ****     * Parameters:
 196:.\Generated_Source\PSoC5/USBUART_cdc.c ****     *  pData: pointer to the buffer containing data to be sent.
 197:.\Generated_Source\PSoC5/USBUART_cdc.c ****     *  length: Specifies the number of bytes to send from the pData
 198:.\Generated_Source\PSoC5/USBUART_cdc.c ****     *  buffer. Maximum length will be limited by the maximum packet
 199:.\Generated_Source\PSoC5/USBUART_cdc.c ****     *  size for the endpoint. Data will be lost if length is greater than Max
 200:.\Generated_Source\PSoC5/USBUART_cdc.c ****     *  Packet Size.
 201:.\Generated_Source\PSoC5/USBUART_cdc.c ****     *
 202:.\Generated_Source\PSoC5/USBUART_cdc.c ****     * Return:
 203:.\Generated_Source\PSoC5/USBUART_cdc.c ****     *  None.
 204:.\Generated_Source\PSoC5/USBUART_cdc.c ****     *
 205:.\Generated_Source\PSoC5/USBUART_cdc.c ****     * Global variables:
 206:.\Generated_Source\PSoC5/USBUART_cdc.c ****     *   USBUART_cdc_data_in_ep: CDC IN endpoint number used for sending
 207:.\Generated_Source\PSoC5/USBUART_cdc.c ****     *     data.
 208:.\Generated_Source\PSoC5/USBUART_cdc.c ****     *
 209:.\Generated_Source\PSoC5/USBUART_cdc.c ****     * Reentrant:
 210:.\Generated_Source\PSoC5/USBUART_cdc.c ****     *  No.
 211:.\Generated_Source\PSoC5/USBUART_cdc.c ****     *
 212:.\Generated_Source\PSoC5/USBUART_cdc.c ****     *******************************************************************************/
 213:.\Generated_Source\PSoC5/USBUART_cdc.c ****     void USBUART_PutData(const uint8* pData, uint16 length) 
 214:.\Generated_Source\PSoC5/USBUART_cdc.c ****     {
 225              		.loc 1 214 0
 226              		.cfi_startproc
 227              		@ args = 0, pretend = 0, frame = 8
 228              		@ frame_needed = 1, uses_anonymous_args = 0
 229 0000 80B5     		push	{r7, lr}
ARM GAS  C:\Users\CHAIYA~1\AppData\Local\Temp\ccx8jNaQ.s 			page 9


 230              		.cfi_def_cfa_offset 8
 231              		.cfi_offset 7, -8
 232              		.cfi_offset 14, -4
 233 0002 82B0     		sub	sp, sp, #8
 234              		.cfi_def_cfa_offset 16
 235 0004 00AF     		add	r7, sp, #0
 236              		.cfi_def_cfa_register 7
 237 0006 7860     		str	r0, [r7, #4]
 238 0008 0B46     		mov	r3, r1
 239 000a 7B80     		strh	r3, [r7, #2]	@ movhi
 215:.\Generated_Source\PSoC5/USBUART_cdc.c ****         /* Limits length to maximum packet size for the EP */
 216:.\Generated_Source\PSoC5/USBUART_cdc.c ****         if(length > USBUART_EP[USBUART_cdc_data_in_ep].bufferSize)
 240              		.loc 1 216 0
 241 000c 154B     		ldr	r3, .L19
 242 000e 1B78     		ldrb	r3, [r3]
 243 0010 DBB2     		uxtb	r3, r3
 244 0012 1A46     		mov	r2, r3
 245 0014 1449     		ldr	r1, .L19+4
 246 0016 1346     		mov	r3, r2
 247 0018 5B00     		lsls	r3, r3, #1
 248 001a 1344     		add	r3, r3, r2
 249 001c 9B00     		lsls	r3, r3, #2
 250 001e 0B44     		add	r3, r3, r1
 251 0020 0833     		adds	r3, r3, #8
 252 0022 1B88     		ldrh	r3, [r3]	@ movhi
 253 0024 9BB2     		uxth	r3, r3
 254 0026 7A88     		ldrh	r2, [r7, #2]
 255 0028 9A42     		cmp	r2, r3
 256 002a 0FD9     		bls	.L18
 217:.\Generated_Source\PSoC5/USBUART_cdc.c ****         {
 218:.\Generated_Source\PSoC5/USBUART_cdc.c ****             /* Caution: Data will be lost if length is greater than Max Packet Length */
 219:.\Generated_Source\PSoC5/USBUART_cdc.c ****             length = USBUART_EP[USBUART_cdc_data_in_ep].bufferSize;
 257              		.loc 1 219 0
 258 002c 0D4B     		ldr	r3, .L19
 259 002e 1B78     		ldrb	r3, [r3]
 260 0030 DBB2     		uxtb	r3, r3
 261 0032 1A46     		mov	r2, r3
 262 0034 0C49     		ldr	r1, .L19+4
 263 0036 1346     		mov	r3, r2
 264 0038 5B00     		lsls	r3, r3, #1
 265 003a 1344     		add	r3, r3, r2
 266 003c 9B00     		lsls	r3, r3, #2
 267 003e 0B44     		add	r3, r3, r1
 268 0040 0833     		adds	r3, r3, #8
 269 0042 1B88     		ldrh	r3, [r3]	@ movhi
 270 0044 7B80     		strh	r3, [r7, #2]	@ movhi
 220:.\Generated_Source\PSoC5/USBUART_cdc.c ****              /* Halt CPU in debug mode */
 221:.\Generated_Source\PSoC5/USBUART_cdc.c ****             CYASSERT(0u != 0u);
 271              		.loc 1 221 0
 272 0046 0020     		movs	r0, #0
 273 0048 FFF7FEFF 		bl	CyHalt
 274              	.L18:
 222:.\Generated_Source\PSoC5/USBUART_cdc.c ****         }
 223:.\Generated_Source\PSoC5/USBUART_cdc.c ****         USBUART_LoadInEP(USBUART_cdc_data_in_ep, pData, length);
 275              		.loc 1 223 0
 276 004c 054B     		ldr	r3, .L19
 277 004e 1B78     		ldrb	r3, [r3]
ARM GAS  C:\Users\CHAIYA~1\AppData\Local\Temp\ccx8jNaQ.s 			page 10


 278 0050 DAB2     		uxtb	r2, r3
 279 0052 7B88     		ldrh	r3, [r7, #2]
 280 0054 1046     		mov	r0, r2
 281 0056 7968     		ldr	r1, [r7, #4]
 282 0058 1A46     		mov	r2, r3
 283 005a FFF7FEFF 		bl	USBUART_LoadInEP
 224:.\Generated_Source\PSoC5/USBUART_cdc.c ****     }
 284              		.loc 1 224 0
 285 005e 0837     		adds	r7, r7, #8
 286 0060 BD46     		mov	sp, r7
 287              		@ sp needed
 288 0062 80BD     		pop	{r7, pc}
 289              	.L20:
 290              		.align	2
 291              	.L19:
 292 0064 00000000 		.word	USBUART_cdc_data_in_ep
 293 0068 00000000 		.word	USBUART_EP
 294              		.cfi_endproc
 295              	.LFE2:
 296              		.size	USBUART_PutData, .-USBUART_PutData
 297              		.section	.text.USBUART_StrLen,"ax",%progbits
 298              		.align	2
 299              		.thumb
 300              		.thumb_func
 301              		.type	USBUART_StrLen, %function
 302              	USBUART_StrLen:
 303              	.LFB3:
 225:.\Generated_Source\PSoC5/USBUART_cdc.c **** 
 226:.\Generated_Source\PSoC5/USBUART_cdc.c **** 
 227:.\Generated_Source\PSoC5/USBUART_cdc.c ****     /*******************************************************************************
 228:.\Generated_Source\PSoC5/USBUART_cdc.c ****     * Function Name: USBUART_StrLen
 229:.\Generated_Source\PSoC5/USBUART_cdc.c ****     ********************************************************************************
 230:.\Generated_Source\PSoC5/USBUART_cdc.c ****     *
 231:.\Generated_Source\PSoC5/USBUART_cdc.c ****     * Summary:
 232:.\Generated_Source\PSoC5/USBUART_cdc.c ****     *  Calculates length of a null terminated string.
 233:.\Generated_Source\PSoC5/USBUART_cdc.c ****     *
 234:.\Generated_Source\PSoC5/USBUART_cdc.c ****     * Parameters:
 235:.\Generated_Source\PSoC5/USBUART_cdc.c ****     *  string: pointer to the string.
 236:.\Generated_Source\PSoC5/USBUART_cdc.c ****     *
 237:.\Generated_Source\PSoC5/USBUART_cdc.c ****     * Return:
 238:.\Generated_Source\PSoC5/USBUART_cdc.c ****     *  Length of the string
 239:.\Generated_Source\PSoC5/USBUART_cdc.c ****     *
 240:.\Generated_Source\PSoC5/USBUART_cdc.c ****     *******************************************************************************/
 241:.\Generated_Source\PSoC5/USBUART_cdc.c ****     static uint16 USBUART_StrLen(const char8 string[]) 
 242:.\Generated_Source\PSoC5/USBUART_cdc.c ****     {
 304              		.loc 1 242 0
 305              		.cfi_startproc
 306              		@ args = 0, pretend = 0, frame = 16
 307              		@ frame_needed = 1, uses_anonymous_args = 0
 308              		@ link register save eliminated.
 309 0000 80B4     		push	{r7}
 310              		.cfi_def_cfa_offset 4
 311              		.cfi_offset 7, -4
 312 0002 85B0     		sub	sp, sp, #20
 313              		.cfi_def_cfa_offset 24
 314 0004 00AF     		add	r7, sp, #0
 315              		.cfi_def_cfa_register 7
ARM GAS  C:\Users\CHAIYA~1\AppData\Local\Temp\ccx8jNaQ.s 			page 11


 316 0006 7860     		str	r0, [r7, #4]
 243:.\Generated_Source\PSoC5/USBUART_cdc.c ****         uint16 len = 0u;
 317              		.loc 1 243 0
 318 0008 0023     		movs	r3, #0
 319 000a FB81     		strh	r3, [r7, #14]	@ movhi
 244:.\Generated_Source\PSoC5/USBUART_cdc.c **** 
 245:.\Generated_Source\PSoC5/USBUART_cdc.c ****         while (string[len] != (char8)0)
 320              		.loc 1 245 0
 321 000c 02E0     		b	.L22
 322              	.L23:
 246:.\Generated_Source\PSoC5/USBUART_cdc.c ****         {
 247:.\Generated_Source\PSoC5/USBUART_cdc.c ****             len++;
 323              		.loc 1 247 0
 324 000e FB89     		ldrh	r3, [r7, #14]
 325 0010 0133     		adds	r3, r3, #1
 326 0012 FB81     		strh	r3, [r7, #14]	@ movhi
 327              	.L22:
 245:.\Generated_Source\PSoC5/USBUART_cdc.c ****         while (string[len] != (char8)0)
 328              		.loc 1 245 0 discriminator 1
 329 0014 FB89     		ldrh	r3, [r7, #14]
 330 0016 7A68     		ldr	r2, [r7, #4]
 331 0018 1344     		add	r3, r3, r2
 332 001a 1B78     		ldrb	r3, [r3]	@ zero_extendqisi2
 333 001c 002B     		cmp	r3, #0
 334 001e F6D1     		bne	.L23
 248:.\Generated_Source\PSoC5/USBUART_cdc.c ****         }
 249:.\Generated_Source\PSoC5/USBUART_cdc.c **** 
 250:.\Generated_Source\PSoC5/USBUART_cdc.c ****         return (len);
 335              		.loc 1 250 0
 336 0020 FB89     		ldrh	r3, [r7, #14]
 251:.\Generated_Source\PSoC5/USBUART_cdc.c ****     }
 337              		.loc 1 251 0
 338 0022 1846     		mov	r0, r3
 339 0024 1437     		adds	r7, r7, #20
 340 0026 BD46     		mov	sp, r7
 341              		@ sp needed
 342 0028 5DF8047B 		ldr	r7, [sp], #4
 343 002c 7047     		bx	lr
 344              		.cfi_endproc
 345              	.LFE3:
 346              		.size	USBUART_StrLen, .-USBUART_StrLen
 347 002e 00BF     		.section	.text.USBUART_PutString,"ax",%progbits
 348              		.align	2
 349              		.global	USBUART_PutString
 350              		.thumb
 351              		.thumb_func
 352              		.type	USBUART_PutString, %function
 353              	USBUART_PutString:
 354              	.LFB4:
 252:.\Generated_Source\PSoC5/USBUART_cdc.c **** 
 253:.\Generated_Source\PSoC5/USBUART_cdc.c **** 
 254:.\Generated_Source\PSoC5/USBUART_cdc.c ****     /*******************************************************************************
 255:.\Generated_Source\PSoC5/USBUART_cdc.c ****     * Function Name: USBUART_PutString
 256:.\Generated_Source\PSoC5/USBUART_cdc.c ****     ********************************************************************************
 257:.\Generated_Source\PSoC5/USBUART_cdc.c ****     *
 258:.\Generated_Source\PSoC5/USBUART_cdc.c ****     * Summary:
 259:.\Generated_Source\PSoC5/USBUART_cdc.c ****     *  This function sends a null terminated string to the PC. This function will
ARM GAS  C:\Users\CHAIYA~1\AppData\Local\Temp\ccx8jNaQ.s 			page 12


 260:.\Generated_Source\PSoC5/USBUART_cdc.c ****     *  block if there is not enough memory to place the whole string. It will block
 261:.\Generated_Source\PSoC5/USBUART_cdc.c ****     *  until the entire string has been written to the transmit buffer.
 262:.\Generated_Source\PSoC5/USBUART_cdc.c ****     *  The USBUART_CDCIsReady() function should be called before sending data with
 263:.\Generated_Source\PSoC5/USBUART_cdc.c ****     *  a new call to USBUART_PutString(), to be sure that the previous data
 264:.\Generated_Source\PSoC5/USBUART_cdc.c ****     *  has finished sending.
 265:.\Generated_Source\PSoC5/USBUART_cdc.c ****     *
 266:.\Generated_Source\PSoC5/USBUART_cdc.c ****     * Parameters:
 267:.\Generated_Source\PSoC5/USBUART_cdc.c ****     *  string: pointer to the string to be sent to the PC.
 268:.\Generated_Source\PSoC5/USBUART_cdc.c ****     *
 269:.\Generated_Source\PSoC5/USBUART_cdc.c ****     * Return:
 270:.\Generated_Source\PSoC5/USBUART_cdc.c ****     *  None.
 271:.\Generated_Source\PSoC5/USBUART_cdc.c ****     *
 272:.\Generated_Source\PSoC5/USBUART_cdc.c ****     * Global variables:
 273:.\Generated_Source\PSoC5/USBUART_cdc.c ****     *   USBUART_cdc_data_in_ep: CDC IN endpoint number used for sending
 274:.\Generated_Source\PSoC5/USBUART_cdc.c ****     *     data.
 275:.\Generated_Source\PSoC5/USBUART_cdc.c ****     *
 276:.\Generated_Source\PSoC5/USBUART_cdc.c ****     * Reentrant:
 277:.\Generated_Source\PSoC5/USBUART_cdc.c ****     *  No.
 278:.\Generated_Source\PSoC5/USBUART_cdc.c ****     *
 279:.\Generated_Source\PSoC5/USBUART_cdc.c ****     *******************************************************************************/
 280:.\Generated_Source\PSoC5/USBUART_cdc.c ****     void USBUART_PutString(const char8 string[]) 
 281:.\Generated_Source\PSoC5/USBUART_cdc.c ****     {
 355              		.loc 1 281 0
 356              		.cfi_startproc
 357              		@ args = 0, pretend = 0, frame = 16
 358              		@ frame_needed = 1, uses_anonymous_args = 0
 359 0000 80B5     		push	{r7, lr}
 360              		.cfi_def_cfa_offset 8
 361              		.cfi_offset 7, -8
 362              		.cfi_offset 14, -4
 363 0002 84B0     		sub	sp, sp, #16
 364              		.cfi_def_cfa_offset 24
 365 0004 00AF     		add	r7, sp, #0
 366              		.cfi_def_cfa_register 7
 367 0006 7860     		str	r0, [r7, #4]
 282:.\Generated_Source\PSoC5/USBUART_cdc.c ****         uint16 strLength;
 283:.\Generated_Source\PSoC5/USBUART_cdc.c ****         uint16 sendLength;
 284:.\Generated_Source\PSoC5/USBUART_cdc.c ****         uint16 bufIndex = 0u;
 368              		.loc 1 284 0
 369 0008 0023     		movs	r3, #0
 370 000a BB81     		strh	r3, [r7, #12]	@ movhi
 285:.\Generated_Source\PSoC5/USBUART_cdc.c **** 
 286:.\Generated_Source\PSoC5/USBUART_cdc.c ****         /* Get length of the null terminated string */
 287:.\Generated_Source\PSoC5/USBUART_cdc.c ****         strLength = USBUART_StrLen(string);
 371              		.loc 1 287 0
 372 000c 7868     		ldr	r0, [r7, #4]
 373 000e FFF7FEFF 		bl	USBUART_StrLen
 374 0012 0346     		mov	r3, r0
 375 0014 FB81     		strh	r3, [r7, #14]	@ movhi
 376              	.L31:
 288:.\Generated_Source\PSoC5/USBUART_cdc.c ****         do
 289:.\Generated_Source\PSoC5/USBUART_cdc.c ****         {
 290:.\Generated_Source\PSoC5/USBUART_cdc.c ****             /* Limits length to maximum packet size for the EP */
 291:.\Generated_Source\PSoC5/USBUART_cdc.c ****             sendLength = (strLength > USBUART_EP[USBUART_cdc_data_in_ep].bufferSize) ?
 377              		.loc 1 291 0
 378 0016 334B     		ldr	r3, .L32
 379 0018 1B78     		ldrb	r3, [r3]
ARM GAS  C:\Users\CHAIYA~1\AppData\Local\Temp\ccx8jNaQ.s 			page 13


 380 001a DBB2     		uxtb	r3, r3
 381 001c 1A46     		mov	r2, r3
 382 001e 3249     		ldr	r1, .L32+4
 383 0020 1346     		mov	r3, r2
 384 0022 5B00     		lsls	r3, r3, #1
 385 0024 1344     		add	r3, r3, r2
 386 0026 9B00     		lsls	r3, r3, #2
 387 0028 0B44     		add	r3, r3, r1
 388 002a 0833     		adds	r3, r3, #8
 389 002c 1B88     		ldrh	r3, [r3]	@ movhi
 390 002e 9BB2     		uxth	r3, r3
 391 0030 FA89     		ldrh	r2, [r7, #14]
 392 0032 9A42     		cmp	r2, r3
 393 0034 0DD9     		bls	.L26
 292:.\Generated_Source\PSoC5/USBUART_cdc.c ****                           USBUART_EP[USBUART_cdc_data_in_ep].bufferSize : strLength;
 394              		.loc 1 292 0
 395 0036 2B4B     		ldr	r3, .L32
 396 0038 1B78     		ldrb	r3, [r3]
 397 003a DBB2     		uxtb	r3, r3
 398 003c 1A46     		mov	r2, r3
 291:.\Generated_Source\PSoC5/USBUART_cdc.c ****             sendLength = (strLength > USBUART_EP[USBUART_cdc_data_in_ep].bufferSize) ?
 399              		.loc 1 291 0
 400 003e 2A49     		ldr	r1, .L32+4
 401 0040 1346     		mov	r3, r2
 402 0042 5B00     		lsls	r3, r3, #1
 403 0044 1344     		add	r3, r3, r2
 404 0046 9B00     		lsls	r3, r3, #2
 405 0048 0B44     		add	r3, r3, r1
 406 004a 0833     		adds	r3, r3, #8
 407 004c 1B88     		ldrh	r3, [r3]	@ movhi
 408 004e 9BB2     		uxth	r3, r3
 409 0050 00E0     		b	.L27
 410              	.L26:
 291:.\Generated_Source\PSoC5/USBUART_cdc.c ****             sendLength = (strLength > USBUART_EP[USBUART_cdc_data_in_ep].bufferSize) ?
 411              		.loc 1 291 0 is_stmt 0 discriminator 1
 412 0052 FB89     		ldrh	r3, [r7, #14]
 413              	.L27:
 291:.\Generated_Source\PSoC5/USBUART_cdc.c ****             sendLength = (strLength > USBUART_EP[USBUART_cdc_data_in_ep].bufferSize) ?
 414              		.loc 1 291 0 discriminator 2
 415 0054 7B81     		strh	r3, [r7, #10]	@ movhi
 293:.\Generated_Source\PSoC5/USBUART_cdc.c ****              /* Enable IN transfer */
 294:.\Generated_Source\PSoC5/USBUART_cdc.c ****             USBUART_LoadInEP(USBUART_cdc_data_in_ep, (const uint8 *)&string[bufIndex], sendLength);
 416              		.loc 1 294 0 is_stmt 1 discriminator 2
 417 0056 234B     		ldr	r3, .L32
 418 0058 1B78     		ldrb	r3, [r3]
 419 005a D9B2     		uxtb	r1, r3
 420 005c BB89     		ldrh	r3, [r7, #12]
 421 005e 7A68     		ldr	r2, [r7, #4]
 422 0060 1A44     		add	r2, r2, r3
 423 0062 7B89     		ldrh	r3, [r7, #10]
 424 0064 0846     		mov	r0, r1
 425 0066 1146     		mov	r1, r2
 426 0068 1A46     		mov	r2, r3
 427 006a FFF7FEFF 		bl	USBUART_LoadInEP
 295:.\Generated_Source\PSoC5/USBUART_cdc.c ****             strLength -= sendLength;
 428              		.loc 1 295 0 discriminator 2
 429 006e FA89     		ldrh	r2, [r7, #14]	@ movhi
ARM GAS  C:\Users\CHAIYA~1\AppData\Local\Temp\ccx8jNaQ.s 			page 14


 430 0070 7B89     		ldrh	r3, [r7, #10]	@ movhi
 431 0072 D31A     		subs	r3, r2, r3
 432 0074 FB81     		strh	r3, [r7, #14]	@ movhi
 296:.\Generated_Source\PSoC5/USBUART_cdc.c **** 
 297:.\Generated_Source\PSoC5/USBUART_cdc.c ****             /* If more data are present to send or full packet was sent */
 298:.\Generated_Source\PSoC5/USBUART_cdc.c ****             if((strLength > 0u) || (sendLength == USBUART_EP[USBUART_cdc_data_in_ep].bufferSize))
 433              		.loc 1 298 0 discriminator 2
 434 0076 FB89     		ldrh	r3, [r7, #14]
 435 0078 002B     		cmp	r3, #0
 436 007a 0FD1     		bne	.L28
 437              		.loc 1 298 0 is_stmt 0 discriminator 1
 438 007c 194B     		ldr	r3, .L32
 439 007e 1B78     		ldrb	r3, [r3]
 440 0080 DBB2     		uxtb	r3, r3
 441 0082 1A46     		mov	r2, r3
 442 0084 1849     		ldr	r1, .L32+4
 443 0086 1346     		mov	r3, r2
 444 0088 5B00     		lsls	r3, r3, #1
 445 008a 1344     		add	r3, r3, r2
 446 008c 9B00     		lsls	r3, r3, #2
 447 008e 0B44     		add	r3, r3, r1
 448 0090 0833     		adds	r3, r3, #8
 449 0092 1B88     		ldrh	r3, [r3]	@ movhi
 450 0094 9BB2     		uxth	r3, r3
 451 0096 7A89     		ldrh	r2, [r7, #10]
 452 0098 9A42     		cmp	r2, r3
 453 009a 1DD1     		bne	.L29
 454              	.L28:
 299:.\Generated_Source\PSoC5/USBUART_cdc.c ****             {
 300:.\Generated_Source\PSoC5/USBUART_cdc.c ****                 bufIndex += sendLength;
 455              		.loc 1 300 0 is_stmt 1
 456 009c BA89     		ldrh	r2, [r7, #12]	@ movhi
 457 009e 7B89     		ldrh	r3, [r7, #10]	@ movhi
 458 00a0 1344     		add	r3, r3, r2
 459 00a2 BB81     		strh	r3, [r7, #12]	@ movhi
 301:.\Generated_Source\PSoC5/USBUART_cdc.c ****                 /* Wait for the Host to read it. */
 302:.\Generated_Source\PSoC5/USBUART_cdc.c ****                 while(USBUART_EP[USBUART_cdc_data_in_ep].apiEpState ==
 460              		.loc 1 302 0
 461 00a4 00BF     		nop
 462              	.L30:
 463              		.loc 1 302 0 is_stmt 0 discriminator 1
 464 00a6 0F4B     		ldr	r3, .L32
 465 00a8 1B78     		ldrb	r3, [r3]
 466 00aa DBB2     		uxtb	r3, r3
 467 00ac 1A46     		mov	r2, r3
 468 00ae 0E49     		ldr	r1, .L32+4
 469 00b0 1346     		mov	r3, r2
 470 00b2 5B00     		lsls	r3, r3, #1
 471 00b4 1344     		add	r3, r3, r2
 472 00b6 9B00     		lsls	r3, r3, #2
 473 00b8 0B44     		add	r3, r3, r1
 474 00ba 5B78     		ldrb	r3, [r3, #1]
 475 00bc DBB2     		uxtb	r3, r3
 476 00be 002B     		cmp	r3, #0
 477 00c0 F1D0     		beq	.L30
 303:.\Generated_Source\PSoC5/USBUART_cdc.c ****                                           USBUART_IN_BUFFER_FULL)
 304:.\Generated_Source\PSoC5/USBUART_cdc.c ****                 {
ARM GAS  C:\Users\CHAIYA~1\AppData\Local\Temp\ccx8jNaQ.s 			page 15


 305:.\Generated_Source\PSoC5/USBUART_cdc.c ****                     ;
 306:.\Generated_Source\PSoC5/USBUART_cdc.c ****                 }
 307:.\Generated_Source\PSoC5/USBUART_cdc.c ****                 /* If the last sent packet is exactly maximum packet size,
 308:.\Generated_Source\PSoC5/USBUART_cdc.c ****                 *  it shall be followed by a zero-length packet to assure the
 309:.\Generated_Source\PSoC5/USBUART_cdc.c ****                 *  end of segment is properly identified by the terminal.
 310:.\Generated_Source\PSoC5/USBUART_cdc.c ****                 */
 311:.\Generated_Source\PSoC5/USBUART_cdc.c ****                 if(strLength == 0u)
 478              		.loc 1 311 0 is_stmt 1
 479 00c2 FB89     		ldrh	r3, [r7, #14]
 480 00c4 002B     		cmp	r3, #0
 481 00c6 07D1     		bne	.L29
 312:.\Generated_Source\PSoC5/USBUART_cdc.c ****                 {
 313:.\Generated_Source\PSoC5/USBUART_cdc.c ****                     USBUART_LoadInEP(USBUART_cdc_data_in_ep, NULL, 0u);
 482              		.loc 1 313 0
 483 00c8 064B     		ldr	r3, .L32
 484 00ca 1B78     		ldrb	r3, [r3]
 485 00cc DBB2     		uxtb	r3, r3
 486 00ce 1846     		mov	r0, r3
 487 00d0 0021     		movs	r1, #0
 488 00d2 0022     		movs	r2, #0
 489 00d4 FFF7FEFF 		bl	USBUART_LoadInEP
 490              	.L29:
 314:.\Generated_Source\PSoC5/USBUART_cdc.c ****                 }
 315:.\Generated_Source\PSoC5/USBUART_cdc.c ****             }
 316:.\Generated_Source\PSoC5/USBUART_cdc.c ****         }while(strLength > 0u);
 491              		.loc 1 316 0
 492 00d8 FB89     		ldrh	r3, [r7, #14]
 493 00da 002B     		cmp	r3, #0
 494 00dc 9BD1     		bne	.L31
 317:.\Generated_Source\PSoC5/USBUART_cdc.c ****     }
 495              		.loc 1 317 0
 496 00de 1037     		adds	r7, r7, #16
 497 00e0 BD46     		mov	sp, r7
 498              		@ sp needed
 499 00e2 80BD     		pop	{r7, pc}
 500              	.L33:
 501              		.align	2
 502              	.L32:
 503 00e4 00000000 		.word	USBUART_cdc_data_in_ep
 504 00e8 00000000 		.word	USBUART_EP
 505              		.cfi_endproc
 506              	.LFE4:
 507              		.size	USBUART_PutString, .-USBUART_PutString
 508              		.section	.text.USBUART_PutChar,"ax",%progbits
 509              		.align	2
 510              		.global	USBUART_PutChar
 511              		.thumb
 512              		.thumb_func
 513              		.type	USBUART_PutChar, %function
 514              	USBUART_PutChar:
 515              	.LFB5:
 318:.\Generated_Source\PSoC5/USBUART_cdc.c **** 
 319:.\Generated_Source\PSoC5/USBUART_cdc.c **** 
 320:.\Generated_Source\PSoC5/USBUART_cdc.c ****     /*******************************************************************************
 321:.\Generated_Source\PSoC5/USBUART_cdc.c ****     * Function Name: USBUART_PutChar
 322:.\Generated_Source\PSoC5/USBUART_cdc.c ****     ********************************************************************************
 323:.\Generated_Source\PSoC5/USBUART_cdc.c ****     *
ARM GAS  C:\Users\CHAIYA~1\AppData\Local\Temp\ccx8jNaQ.s 			page 16


 324:.\Generated_Source\PSoC5/USBUART_cdc.c ****     * Summary:
 325:.\Generated_Source\PSoC5/USBUART_cdc.c ****     *  Writes a single character to the PC.
 326:.\Generated_Source\PSoC5/USBUART_cdc.c ****     *
 327:.\Generated_Source\PSoC5/USBUART_cdc.c ****     * Parameters:
 328:.\Generated_Source\PSoC5/USBUART_cdc.c ****     *  txDataByte: Character to be sent to the PC.
 329:.\Generated_Source\PSoC5/USBUART_cdc.c ****     *
 330:.\Generated_Source\PSoC5/USBUART_cdc.c ****     * Return:
 331:.\Generated_Source\PSoC5/USBUART_cdc.c ****     *  None.
 332:.\Generated_Source\PSoC5/USBUART_cdc.c ****     *
 333:.\Generated_Source\PSoC5/USBUART_cdc.c ****     * Global variables:
 334:.\Generated_Source\PSoC5/USBUART_cdc.c ****     *   USBUART_cdc_data_in_ep: CDC IN endpoint number used for sending
 335:.\Generated_Source\PSoC5/USBUART_cdc.c ****     *     data.
 336:.\Generated_Source\PSoC5/USBUART_cdc.c ****     *
 337:.\Generated_Source\PSoC5/USBUART_cdc.c ****     * Reentrant:
 338:.\Generated_Source\PSoC5/USBUART_cdc.c ****     *  No.
 339:.\Generated_Source\PSoC5/USBUART_cdc.c ****     *
 340:.\Generated_Source\PSoC5/USBUART_cdc.c ****     *******************************************************************************/
 341:.\Generated_Source\PSoC5/USBUART_cdc.c ****     void USBUART_PutChar(char8 txDataByte) 
 342:.\Generated_Source\PSoC5/USBUART_cdc.c ****     {
 516              		.loc 1 342 0
 517              		.cfi_startproc
 518              		@ args = 0, pretend = 0, frame = 16
 519              		@ frame_needed = 1, uses_anonymous_args = 0
 520 0000 80B5     		push	{r7, lr}
 521              		.cfi_def_cfa_offset 8
 522              		.cfi_offset 7, -8
 523              		.cfi_offset 14, -4
 524 0002 84B0     		sub	sp, sp, #16
 525              		.cfi_def_cfa_offset 24
 526 0004 00AF     		add	r7, sp, #0
 527              		.cfi_def_cfa_register 7
 528 0006 0346     		mov	r3, r0
 529 0008 FB71     		strb	r3, [r7, #7]
 343:.\Generated_Source\PSoC5/USBUART_cdc.c ****         uint8 dataByte;
 344:.\Generated_Source\PSoC5/USBUART_cdc.c ****         dataByte = (uint8)txDataByte;
 530              		.loc 1 344 0
 531 000a FB79     		ldrb	r3, [r7, #7]
 532 000c FB73     		strb	r3, [r7, #15]
 345:.\Generated_Source\PSoC5/USBUART_cdc.c **** 
 346:.\Generated_Source\PSoC5/USBUART_cdc.c ****         USBUART_LoadInEP(USBUART_cdc_data_in_ep, &dataByte, 1u);
 533              		.loc 1 346 0
 534 000e 064B     		ldr	r3, .L35
 535 0010 1B78     		ldrb	r3, [r3]
 536 0012 DAB2     		uxtb	r2, r3
 537 0014 07F10F03 		add	r3, r7, #15
 538 0018 1046     		mov	r0, r2
 539 001a 1946     		mov	r1, r3
 540 001c 0122     		movs	r2, #1
 541 001e FFF7FEFF 		bl	USBUART_LoadInEP
 347:.\Generated_Source\PSoC5/USBUART_cdc.c ****     }
 542              		.loc 1 347 0
 543 0022 1037     		adds	r7, r7, #16
 544 0024 BD46     		mov	sp, r7
 545              		@ sp needed
 546 0026 80BD     		pop	{r7, pc}
 547              	.L36:
 548              		.align	2
ARM GAS  C:\Users\CHAIYA~1\AppData\Local\Temp\ccx8jNaQ.s 			page 17


 549              	.L35:
 550 0028 00000000 		.word	USBUART_cdc_data_in_ep
 551              		.cfi_endproc
 552              	.LFE5:
 553              		.size	USBUART_PutChar, .-USBUART_PutChar
 554              		.section	.rodata
 555              		.align	2
 556              	.LC0:
 557 0000 0D       		.byte	13
 558 0001 0A       		.byte	10
 559 0002 0000     		.section	.text.USBUART_PutCRLF,"ax",%progbits
 560              		.align	2
 561              		.global	USBUART_PutCRLF
 562              		.thumb
 563              		.thumb_func
 564              		.type	USBUART_PutCRLF, %function
 565              	USBUART_PutCRLF:
 566              	.LFB6:
 348:.\Generated_Source\PSoC5/USBUART_cdc.c **** 
 349:.\Generated_Source\PSoC5/USBUART_cdc.c **** 
 350:.\Generated_Source\PSoC5/USBUART_cdc.c ****     /*******************************************************************************
 351:.\Generated_Source\PSoC5/USBUART_cdc.c ****     * Function Name: USBUART_PutCRLF
 352:.\Generated_Source\PSoC5/USBUART_cdc.c ****     ********************************************************************************
 353:.\Generated_Source\PSoC5/USBUART_cdc.c ****     *
 354:.\Generated_Source\PSoC5/USBUART_cdc.c ****     * Summary:
 355:.\Generated_Source\PSoC5/USBUART_cdc.c ****     *  Sends a carriage return (0x0D) and line feed (0x0A) to the PC
 356:.\Generated_Source\PSoC5/USBUART_cdc.c ****     *
 357:.\Generated_Source\PSoC5/USBUART_cdc.c ****     * Parameters:
 358:.\Generated_Source\PSoC5/USBUART_cdc.c ****     *  None.
 359:.\Generated_Source\PSoC5/USBUART_cdc.c ****     *
 360:.\Generated_Source\PSoC5/USBUART_cdc.c ****     * Return:
 361:.\Generated_Source\PSoC5/USBUART_cdc.c ****     *  None.
 362:.\Generated_Source\PSoC5/USBUART_cdc.c ****     *
 363:.\Generated_Source\PSoC5/USBUART_cdc.c ****     * Global variables:
 364:.\Generated_Source\PSoC5/USBUART_cdc.c ****     *   USBUART_cdc_data_in_ep: CDC IN endpoint number used for sending
 365:.\Generated_Source\PSoC5/USBUART_cdc.c ****     *     data.
 366:.\Generated_Source\PSoC5/USBUART_cdc.c ****     *
 367:.\Generated_Source\PSoC5/USBUART_cdc.c ****     * Reentrant:
 368:.\Generated_Source\PSoC5/USBUART_cdc.c ****     *  No.
 369:.\Generated_Source\PSoC5/USBUART_cdc.c ****     *
 370:.\Generated_Source\PSoC5/USBUART_cdc.c ****     *******************************************************************************/
 371:.\Generated_Source\PSoC5/USBUART_cdc.c ****     void USBUART_PutCRLF(void) 
 372:.\Generated_Source\PSoC5/USBUART_cdc.c ****     {
 567              		.loc 1 372 0
 568              		.cfi_startproc
 569              		@ args = 0, pretend = 0, frame = 8
 570              		@ frame_needed = 1, uses_anonymous_args = 0
 571 0000 80B5     		push	{r7, lr}
 572              		.cfi_def_cfa_offset 8
 573              		.cfi_offset 7, -8
 574              		.cfi_offset 14, -4
 575 0002 82B0     		sub	sp, sp, #8
 576              		.cfi_def_cfa_offset 16
 577 0004 00AF     		add	r7, sp, #0
 578              		.cfi_def_cfa_register 7
 373:.\Generated_Source\PSoC5/USBUART_cdc.c ****         const uint8 CYCODE txData[] = {0x0Du, 0x0Au};
 579              		.loc 1 373 0
ARM GAS  C:\Users\CHAIYA~1\AppData\Local\Temp\ccx8jNaQ.s 			page 18


 580 0006 084A     		ldr	r2, .L38
 581 0008 3B1D     		adds	r3, r7, #4
 582 000a 1288     		ldrh	r2, [r2]	@ unaligned
 583 000c 1A80     		strh	r2, [r3]	@ unaligned
 374:.\Generated_Source\PSoC5/USBUART_cdc.c **** 
 375:.\Generated_Source\PSoC5/USBUART_cdc.c ****         USBUART_LoadInEP(USBUART_cdc_data_in_ep, (const uint8 *)txData, 2u);
 584              		.loc 1 375 0
 585 000e 074B     		ldr	r3, .L38+4
 586 0010 1B78     		ldrb	r3, [r3]
 587 0012 DAB2     		uxtb	r2, r3
 588 0014 3B1D     		adds	r3, r7, #4
 589 0016 1046     		mov	r0, r2
 590 0018 1946     		mov	r1, r3
 591 001a 0222     		movs	r2, #2
 592 001c FFF7FEFF 		bl	USBUART_LoadInEP
 376:.\Generated_Source\PSoC5/USBUART_cdc.c ****     }
 593              		.loc 1 376 0
 594 0020 0837     		adds	r7, r7, #8
 595 0022 BD46     		mov	sp, r7
 596              		@ sp needed
 597 0024 80BD     		pop	{r7, pc}
 598              	.L39:
 599 0026 00BF     		.align	2
 600              	.L38:
 601 0028 00000000 		.word	.LC0
 602 002c 00000000 		.word	USBUART_cdc_data_in_ep
 603              		.cfi_endproc
 604              	.LFE6:
 605              		.size	USBUART_PutCRLF, .-USBUART_PutCRLF
 606              		.section	.text.USBUART_GetCount,"ax",%progbits
 607              		.align	2
 608              		.global	USBUART_GetCount
 609              		.thumb
 610              		.thumb_func
 611              		.type	USBUART_GetCount, %function
 612              	USBUART_GetCount:
 613              	.LFB7:
 377:.\Generated_Source\PSoC5/USBUART_cdc.c **** 
 378:.\Generated_Source\PSoC5/USBUART_cdc.c **** 
 379:.\Generated_Source\PSoC5/USBUART_cdc.c ****     /*******************************************************************************
 380:.\Generated_Source\PSoC5/USBUART_cdc.c ****     * Function Name: USBUART_GetCount
 381:.\Generated_Source\PSoC5/USBUART_cdc.c ****     ********************************************************************************
 382:.\Generated_Source\PSoC5/USBUART_cdc.c ****     *
 383:.\Generated_Source\PSoC5/USBUART_cdc.c ****     * Summary:
 384:.\Generated_Source\PSoC5/USBUART_cdc.c ****     *  This function returns the number of bytes that were received from the PC.
 385:.\Generated_Source\PSoC5/USBUART_cdc.c ****     *  The returned length value should be passed to USBUART_GetData() as
 386:.\Generated_Source\PSoC5/USBUART_cdc.c ****     *  a parameter to read all received data. If all of the received data is not
 387:.\Generated_Source\PSoC5/USBUART_cdc.c ****     *  read at one time by the USBUART_GetData() API, the unread data will
 388:.\Generated_Source\PSoC5/USBUART_cdc.c ****     *  be lost.
 389:.\Generated_Source\PSoC5/USBUART_cdc.c ****     *
 390:.\Generated_Source\PSoC5/USBUART_cdc.c ****     * Parameters:
 391:.\Generated_Source\PSoC5/USBUART_cdc.c ****     *  None.
 392:.\Generated_Source\PSoC5/USBUART_cdc.c ****     *
 393:.\Generated_Source\PSoC5/USBUART_cdc.c ****     * Return:
 394:.\Generated_Source\PSoC5/USBUART_cdc.c ****     *  Returns the number of received bytes. The maximum amount of received data at
 395:.\Generated_Source\PSoC5/USBUART_cdc.c ****     *  a time is limited by the maximum packet size for the endpoint.
 396:.\Generated_Source\PSoC5/USBUART_cdc.c ****     *
ARM GAS  C:\Users\CHAIYA~1\AppData\Local\Temp\ccx8jNaQ.s 			page 19


 397:.\Generated_Source\PSoC5/USBUART_cdc.c ****     * Global variables:
 398:.\Generated_Source\PSoC5/USBUART_cdc.c ****     *   USBUART_cdc_data_out_ep: CDC OUT endpoint number used.
 399:.\Generated_Source\PSoC5/USBUART_cdc.c ****     *
 400:.\Generated_Source\PSoC5/USBUART_cdc.c ****     *******************************************************************************/
 401:.\Generated_Source\PSoC5/USBUART_cdc.c ****     uint16 USBUART_GetCount(void) 
 402:.\Generated_Source\PSoC5/USBUART_cdc.c ****     {
 614              		.loc 1 402 0
 615              		.cfi_startproc
 616              		@ args = 0, pretend = 0, frame = 8
 617              		@ frame_needed = 1, uses_anonymous_args = 0
 618 0000 80B5     		push	{r7, lr}
 619              		.cfi_def_cfa_offset 8
 620              		.cfi_offset 7, -8
 621              		.cfi_offset 14, -4
 622 0002 82B0     		sub	sp, sp, #8
 623              		.cfi_def_cfa_offset 16
 624 0004 00AF     		add	r7, sp, #0
 625              		.cfi_def_cfa_register 7
 403:.\Generated_Source\PSoC5/USBUART_cdc.c ****         uint16 bytesCount;
 404:.\Generated_Source\PSoC5/USBUART_cdc.c **** 
 405:.\Generated_Source\PSoC5/USBUART_cdc.c ****         if (USBUART_EP[USBUART_cdc_data_out_ep].apiEpState == USBUART_OUT_BUFFER_FULL)
 626              		.loc 1 405 0
 627 0006 0F4B     		ldr	r3, .L44
 628 0008 1B78     		ldrb	r3, [r3]
 629 000a DBB2     		uxtb	r3, r3
 630 000c 1A46     		mov	r2, r3
 631 000e 0E49     		ldr	r1, .L44+4
 632 0010 1346     		mov	r3, r2
 633 0012 5B00     		lsls	r3, r3, #1
 634 0014 1344     		add	r3, r3, r2
 635 0016 9B00     		lsls	r3, r3, #2
 636 0018 0B44     		add	r3, r3, r1
 637 001a 5B78     		ldrb	r3, [r3, #1]
 638 001c DBB2     		uxtb	r3, r3
 639 001e 012B     		cmp	r3, #1
 640 0020 08D1     		bne	.L41
 406:.\Generated_Source\PSoC5/USBUART_cdc.c ****         {
 407:.\Generated_Source\PSoC5/USBUART_cdc.c ****             bytesCount = USBUART_GetEPCount(USBUART_cdc_data_out_ep);
 641              		.loc 1 407 0
 642 0022 084B     		ldr	r3, .L44
 643 0024 1B78     		ldrb	r3, [r3]
 644 0026 DBB2     		uxtb	r3, r3
 645 0028 1846     		mov	r0, r3
 646 002a FFF7FEFF 		bl	USBUART_GetEPCount
 647 002e 0346     		mov	r3, r0
 648 0030 FB80     		strh	r3, [r7, #6]	@ movhi
 649 0032 01E0     		b	.L42
 650              	.L41:
 408:.\Generated_Source\PSoC5/USBUART_cdc.c ****         }
 409:.\Generated_Source\PSoC5/USBUART_cdc.c ****         else
 410:.\Generated_Source\PSoC5/USBUART_cdc.c ****         {
 411:.\Generated_Source\PSoC5/USBUART_cdc.c ****             bytesCount = 0u;
 651              		.loc 1 411 0
 652 0034 0023     		movs	r3, #0
 653 0036 FB80     		strh	r3, [r7, #6]	@ movhi
 654              	.L42:
 412:.\Generated_Source\PSoC5/USBUART_cdc.c ****         }
ARM GAS  C:\Users\CHAIYA~1\AppData\Local\Temp\ccx8jNaQ.s 			page 20


 413:.\Generated_Source\PSoC5/USBUART_cdc.c **** 
 414:.\Generated_Source\PSoC5/USBUART_cdc.c ****         return(bytesCount);
 655              		.loc 1 414 0
 656 0038 FB88     		ldrh	r3, [r7, #6]
 415:.\Generated_Source\PSoC5/USBUART_cdc.c ****     }
 657              		.loc 1 415 0
 658 003a 1846     		mov	r0, r3
 659 003c 0837     		adds	r7, r7, #8
 660 003e BD46     		mov	sp, r7
 661              		@ sp needed
 662 0040 80BD     		pop	{r7, pc}
 663              	.L45:
 664 0042 00BF     		.align	2
 665              	.L44:
 666 0044 00000000 		.word	USBUART_cdc_data_out_ep
 667 0048 00000000 		.word	USBUART_EP
 668              		.cfi_endproc
 669              	.LFE7:
 670              		.size	USBUART_GetCount, .-USBUART_GetCount
 671              		.section	.text.USBUART_DataIsReady,"ax",%progbits
 672              		.align	2
 673              		.global	USBUART_DataIsReady
 674              		.thumb
 675              		.thumb_func
 676              		.type	USBUART_DataIsReady, %function
 677              	USBUART_DataIsReady:
 678              	.LFB8:
 416:.\Generated_Source\PSoC5/USBUART_cdc.c **** 
 417:.\Generated_Source\PSoC5/USBUART_cdc.c **** 
 418:.\Generated_Source\PSoC5/USBUART_cdc.c ****     /*******************************************************************************
 419:.\Generated_Source\PSoC5/USBUART_cdc.c ****     * Function Name: USBUART_DataIsReady
 420:.\Generated_Source\PSoC5/USBUART_cdc.c ****     ********************************************************************************
 421:.\Generated_Source\PSoC5/USBUART_cdc.c ****     *
 422:.\Generated_Source\PSoC5/USBUART_cdc.c ****     * Summary:
 423:.\Generated_Source\PSoC5/USBUART_cdc.c ****     *  Returns a nonzero value if the component received data or received
 424:.\Generated_Source\PSoC5/USBUART_cdc.c ****     *  zero-length packet. The USBUART_GetAll() or
 425:.\Generated_Source\PSoC5/USBUART_cdc.c ****     *  USBUART_GetData() API should be called to read data from the buffer
 426:.\Generated_Source\PSoC5/USBUART_cdc.c ****     *  and re-init OUT endpoint even when zero-length packet received.
 427:.\Generated_Source\PSoC5/USBUART_cdc.c ****     *
 428:.\Generated_Source\PSoC5/USBUART_cdc.c ****     * Parameters:
 429:.\Generated_Source\PSoC5/USBUART_cdc.c ****     *  None.
 430:.\Generated_Source\PSoC5/USBUART_cdc.c ****     *
 431:.\Generated_Source\PSoC5/USBUART_cdc.c ****     * Return:
 432:.\Generated_Source\PSoC5/USBUART_cdc.c ****     *  If the OUT packet received this function returns a nonzero value.
 433:.\Generated_Source\PSoC5/USBUART_cdc.c ****     *  Otherwise zero is returned.
 434:.\Generated_Source\PSoC5/USBUART_cdc.c ****     *
 435:.\Generated_Source\PSoC5/USBUART_cdc.c ****     * Global variables:
 436:.\Generated_Source\PSoC5/USBUART_cdc.c ****     *   USBUART_cdc_data_out_ep: CDC OUT endpoint number used.
 437:.\Generated_Source\PSoC5/USBUART_cdc.c ****     *
 438:.\Generated_Source\PSoC5/USBUART_cdc.c ****     *******************************************************************************/
 439:.\Generated_Source\PSoC5/USBUART_cdc.c ****     uint8 USBUART_DataIsReady(void) 
 440:.\Generated_Source\PSoC5/USBUART_cdc.c ****     {
 679              		.loc 1 440 0
 680              		.cfi_startproc
 681              		@ args = 0, pretend = 0, frame = 0
 682              		@ frame_needed = 1, uses_anonymous_args = 0
 683              		@ link register save eliminated.
ARM GAS  C:\Users\CHAIYA~1\AppData\Local\Temp\ccx8jNaQ.s 			page 21


 684 0000 80B4     		push	{r7}
 685              		.cfi_def_cfa_offset 4
 686              		.cfi_offset 7, -4
 687 0002 00AF     		add	r7, sp, #0
 688              		.cfi_def_cfa_register 7
 441:.\Generated_Source\PSoC5/USBUART_cdc.c ****         return(USBUART_EP[USBUART_cdc_data_out_ep].apiEpState);
 689              		.loc 1 441 0
 690 0004 084B     		ldr	r3, .L48
 691 0006 1B78     		ldrb	r3, [r3]
 692 0008 DBB2     		uxtb	r3, r3
 693 000a 1A46     		mov	r2, r3
 694 000c 0749     		ldr	r1, .L48+4
 695 000e 1346     		mov	r3, r2
 696 0010 5B00     		lsls	r3, r3, #1
 697 0012 1344     		add	r3, r3, r2
 698 0014 9B00     		lsls	r3, r3, #2
 699 0016 0B44     		add	r3, r3, r1
 700 0018 5B78     		ldrb	r3, [r3, #1]
 701 001a DBB2     		uxtb	r3, r3
 442:.\Generated_Source\PSoC5/USBUART_cdc.c ****     }
 702              		.loc 1 442 0
 703 001c 1846     		mov	r0, r3
 704 001e BD46     		mov	sp, r7
 705              		@ sp needed
 706 0020 5DF8047B 		ldr	r7, [sp], #4
 707 0024 7047     		bx	lr
 708              	.L49:
 709 0026 00BF     		.align	2
 710              	.L48:
 711 0028 00000000 		.word	USBUART_cdc_data_out_ep
 712 002c 00000000 		.word	USBUART_EP
 713              		.cfi_endproc
 714              	.LFE8:
 715              		.size	USBUART_DataIsReady, .-USBUART_DataIsReady
 716              		.section	.text.USBUART_CDCIsReady,"ax",%progbits
 717              		.align	2
 718              		.global	USBUART_CDCIsReady
 719              		.thumb
 720              		.thumb_func
 721              		.type	USBUART_CDCIsReady, %function
 722              	USBUART_CDCIsReady:
 723              	.LFB9:
 443:.\Generated_Source\PSoC5/USBUART_cdc.c **** 
 444:.\Generated_Source\PSoC5/USBUART_cdc.c **** 
 445:.\Generated_Source\PSoC5/USBUART_cdc.c ****     /*******************************************************************************
 446:.\Generated_Source\PSoC5/USBUART_cdc.c ****     * Function Name: USBUART_CDCIsReady
 447:.\Generated_Source\PSoC5/USBUART_cdc.c ****     ********************************************************************************
 448:.\Generated_Source\PSoC5/USBUART_cdc.c ****     *
 449:.\Generated_Source\PSoC5/USBUART_cdc.c ****     * Summary:
 450:.\Generated_Source\PSoC5/USBUART_cdc.c ****     *  This function returns a nonzero value if the component is ready to send more
 451:.\Generated_Source\PSoC5/USBUART_cdc.c ****     *  data to the PC; otherwise, it returns zero. The function should be called
 452:.\Generated_Source\PSoC5/USBUART_cdc.c ****     *  before sending new data when using any of the following APIs:
 453:.\Generated_Source\PSoC5/USBUART_cdc.c ****     *  USBUART_PutData(),USBUART_PutString(),
 454:.\Generated_Source\PSoC5/USBUART_cdc.c ****     *  USBUART_PutChar or USBUART_PutCRLF(),
 455:.\Generated_Source\PSoC5/USBUART_cdc.c ****     *  to be sure that the previous data has finished sending.
 456:.\Generated_Source\PSoC5/USBUART_cdc.c ****     *
 457:.\Generated_Source\PSoC5/USBUART_cdc.c ****     * Parameters:
ARM GAS  C:\Users\CHAIYA~1\AppData\Local\Temp\ccx8jNaQ.s 			page 22


 458:.\Generated_Source\PSoC5/USBUART_cdc.c ****     *  None.
 459:.\Generated_Source\PSoC5/USBUART_cdc.c ****     *
 460:.\Generated_Source\PSoC5/USBUART_cdc.c ****     * Return:
 461:.\Generated_Source\PSoC5/USBUART_cdc.c ****     *  If the buffer can accept new data, this function returns a nonzero value.
 462:.\Generated_Source\PSoC5/USBUART_cdc.c ****     *  Otherwise, it returns zero.
 463:.\Generated_Source\PSoC5/USBUART_cdc.c ****     *
 464:.\Generated_Source\PSoC5/USBUART_cdc.c ****     * Global variables:
 465:.\Generated_Source\PSoC5/USBUART_cdc.c ****     *   USBUART_cdc_data_in_ep: CDC IN endpoint number used.
 466:.\Generated_Source\PSoC5/USBUART_cdc.c ****     *
 467:.\Generated_Source\PSoC5/USBUART_cdc.c ****     *******************************************************************************/
 468:.\Generated_Source\PSoC5/USBUART_cdc.c ****     uint8 USBUART_CDCIsReady(void) 
 469:.\Generated_Source\PSoC5/USBUART_cdc.c ****     {
 724              		.loc 1 469 0
 725              		.cfi_startproc
 726              		@ args = 0, pretend = 0, frame = 0
 727              		@ frame_needed = 1, uses_anonymous_args = 0
 728              		@ link register save eliminated.
 729 0000 80B4     		push	{r7}
 730              		.cfi_def_cfa_offset 4
 731              		.cfi_offset 7, -4
 732 0002 00AF     		add	r7, sp, #0
 733              		.cfi_def_cfa_register 7
 470:.\Generated_Source\PSoC5/USBUART_cdc.c ****         return(USBUART_EP[USBUART_cdc_data_in_ep].apiEpState);
 734              		.loc 1 470 0
 735 0004 084B     		ldr	r3, .L52
 736 0006 1B78     		ldrb	r3, [r3]
 737 0008 DBB2     		uxtb	r3, r3
 738 000a 1A46     		mov	r2, r3
 739 000c 0749     		ldr	r1, .L52+4
 740 000e 1346     		mov	r3, r2
 741 0010 5B00     		lsls	r3, r3, #1
 742 0012 1344     		add	r3, r3, r2
 743 0014 9B00     		lsls	r3, r3, #2
 744 0016 0B44     		add	r3, r3, r1
 745 0018 5B78     		ldrb	r3, [r3, #1]
 746 001a DBB2     		uxtb	r3, r3
 471:.\Generated_Source\PSoC5/USBUART_cdc.c ****     }
 747              		.loc 1 471 0
 748 001c 1846     		mov	r0, r3
 749 001e BD46     		mov	sp, r7
 750              		@ sp needed
 751 0020 5DF8047B 		ldr	r7, [sp], #4
 752 0024 7047     		bx	lr
 753              	.L53:
 754 0026 00BF     		.align	2
 755              	.L52:
 756 0028 00000000 		.word	USBUART_cdc_data_in_ep
 757 002c 00000000 		.word	USBUART_EP
 758              		.cfi_endproc
 759              	.LFE9:
 760              		.size	USBUART_CDCIsReady, .-USBUART_CDCIsReady
 761              		.section	.text.USBUART_GetData,"ax",%progbits
 762              		.align	2
 763              		.global	USBUART_GetData
 764              		.thumb
 765              		.thumb_func
 766              		.type	USBUART_GetData, %function
ARM GAS  C:\Users\CHAIYA~1\AppData\Local\Temp\ccx8jNaQ.s 			page 23


 767              	USBUART_GetData:
 768              	.LFB10:
 472:.\Generated_Source\PSoC5/USBUART_cdc.c **** 
 473:.\Generated_Source\PSoC5/USBUART_cdc.c **** 
 474:.\Generated_Source\PSoC5/USBUART_cdc.c ****     /*******************************************************************************
 475:.\Generated_Source\PSoC5/USBUART_cdc.c ****     * Function Name: USBUART_GetData
 476:.\Generated_Source\PSoC5/USBUART_cdc.c ****     ********************************************************************************
 477:.\Generated_Source\PSoC5/USBUART_cdc.c ****     *
 478:.\Generated_Source\PSoC5/USBUART_cdc.c ****     * Summary:
 479:.\Generated_Source\PSoC5/USBUART_cdc.c ****     *  This function gets a specified number of bytes from the input buffer and
 480:.\Generated_Source\PSoC5/USBUART_cdc.c ****     *  places them in a data array specified by the passed pointer.
 481:.\Generated_Source\PSoC5/USBUART_cdc.c ****     *  The USBUART_DataIsReady() API should be called first, to be sure
 482:.\Generated_Source\PSoC5/USBUART_cdc.c ****     *  that data is received from the host. If all received data will not be read at
 483:.\Generated_Source\PSoC5/USBUART_cdc.c ****     *  once, the unread data will be lost. The USBUART_GetData() API should
 484:.\Generated_Source\PSoC5/USBUART_cdc.c ****     *  be called to get the number of bytes that were received.
 485:.\Generated_Source\PSoC5/USBUART_cdc.c ****     *
 486:.\Generated_Source\PSoC5/USBUART_cdc.c ****     * Parameters:
 487:.\Generated_Source\PSoC5/USBUART_cdc.c ****     *  pData: Pointer to the data array where data will be placed.
 488:.\Generated_Source\PSoC5/USBUART_cdc.c ****     *  Length: Number of bytes to read into the data array from the RX buffer.
 489:.\Generated_Source\PSoC5/USBUART_cdc.c ****     *          Maximum length is limited by the the number of received bytes.
 490:.\Generated_Source\PSoC5/USBUART_cdc.c ****     *
 491:.\Generated_Source\PSoC5/USBUART_cdc.c ****     * Return:
 492:.\Generated_Source\PSoC5/USBUART_cdc.c ****     *  Number of bytes received.
 493:.\Generated_Source\PSoC5/USBUART_cdc.c ****     *
 494:.\Generated_Source\PSoC5/USBUART_cdc.c ****     * Global variables:
 495:.\Generated_Source\PSoC5/USBUART_cdc.c ****     *   USBUART_cdc_data_out_ep: CDC OUT endpoint number used.
 496:.\Generated_Source\PSoC5/USBUART_cdc.c ****     *
 497:.\Generated_Source\PSoC5/USBUART_cdc.c ****     * Reentrant:
 498:.\Generated_Source\PSoC5/USBUART_cdc.c ****     *  No.
 499:.\Generated_Source\PSoC5/USBUART_cdc.c ****     *
 500:.\Generated_Source\PSoC5/USBUART_cdc.c ****     *******************************************************************************/
 501:.\Generated_Source\PSoC5/USBUART_cdc.c ****     uint16 USBUART_GetData(uint8* pData, uint16 length) 
 502:.\Generated_Source\PSoC5/USBUART_cdc.c ****     {
 769              		.loc 1 502 0
 770              		.cfi_startproc
 771              		@ args = 0, pretend = 0, frame = 8
 772              		@ frame_needed = 1, uses_anonymous_args = 0
 773 0000 80B5     		push	{r7, lr}
 774              		.cfi_def_cfa_offset 8
 775              		.cfi_offset 7, -8
 776              		.cfi_offset 14, -4
 777 0002 82B0     		sub	sp, sp, #8
 778              		.cfi_def_cfa_offset 16
 779 0004 00AF     		add	r7, sp, #0
 780              		.cfi_def_cfa_register 7
 781 0006 7860     		str	r0, [r7, #4]
 782 0008 0B46     		mov	r3, r1
 783 000a 7B80     		strh	r3, [r7, #2]	@ movhi
 503:.\Generated_Source\PSoC5/USBUART_cdc.c ****         return(USBUART_ReadOutEP(USBUART_cdc_data_out_ep, pData, length));
 784              		.loc 1 503 0
 785 000c 064B     		ldr	r3, .L56
 786 000e 1B78     		ldrb	r3, [r3]
 787 0010 DAB2     		uxtb	r2, r3
 788 0012 7B88     		ldrh	r3, [r7, #2]
 789 0014 1046     		mov	r0, r2
 790 0016 7968     		ldr	r1, [r7, #4]
 791 0018 1A46     		mov	r2, r3
ARM GAS  C:\Users\CHAIYA~1\AppData\Local\Temp\ccx8jNaQ.s 			page 24


 792 001a FFF7FEFF 		bl	USBUART_ReadOutEP
 793 001e 0346     		mov	r3, r0
 504:.\Generated_Source\PSoC5/USBUART_cdc.c ****     }
 794              		.loc 1 504 0
 795 0020 1846     		mov	r0, r3
 796 0022 0837     		adds	r7, r7, #8
 797 0024 BD46     		mov	sp, r7
 798              		@ sp needed
 799 0026 80BD     		pop	{r7, pc}
 800              	.L57:
 801              		.align	2
 802              	.L56:
 803 0028 00000000 		.word	USBUART_cdc_data_out_ep
 804              		.cfi_endproc
 805              	.LFE10:
 806              		.size	USBUART_GetData, .-USBUART_GetData
 807              		.section	.text.USBUART_GetAll,"ax",%progbits
 808              		.align	2
 809              		.global	USBUART_GetAll
 810              		.thumb
 811              		.thumb_func
 812              		.type	USBUART_GetAll, %function
 813              	USBUART_GetAll:
 814              	.LFB11:
 505:.\Generated_Source\PSoC5/USBUART_cdc.c **** 
 506:.\Generated_Source\PSoC5/USBUART_cdc.c **** 
 507:.\Generated_Source\PSoC5/USBUART_cdc.c ****     /*******************************************************************************
 508:.\Generated_Source\PSoC5/USBUART_cdc.c ****     * Function Name: USBUART_GetAll
 509:.\Generated_Source\PSoC5/USBUART_cdc.c ****     ********************************************************************************
 510:.\Generated_Source\PSoC5/USBUART_cdc.c ****     *
 511:.\Generated_Source\PSoC5/USBUART_cdc.c ****     * Summary:
 512:.\Generated_Source\PSoC5/USBUART_cdc.c ****     *  Gets all bytes of received data from the input buffer and places it into a
 513:.\Generated_Source\PSoC5/USBUART_cdc.c ****     *  specified data array. USBUART_DataIsReady() API should be called
 514:.\Generated_Source\PSoC5/USBUART_cdc.c ****     *  before, to be sure that data is received from the Host.
 515:.\Generated_Source\PSoC5/USBUART_cdc.c ****     *
 516:.\Generated_Source\PSoC5/USBUART_cdc.c ****     * Parameters:
 517:.\Generated_Source\PSoC5/USBUART_cdc.c ****     *  pData: Pointer to the data array where data will be placed.
 518:.\Generated_Source\PSoC5/USBUART_cdc.c ****     *
 519:.\Generated_Source\PSoC5/USBUART_cdc.c ****     * Return:
 520:.\Generated_Source\PSoC5/USBUART_cdc.c ****     *  Number of bytes received.
 521:.\Generated_Source\PSoC5/USBUART_cdc.c ****     *
 522:.\Generated_Source\PSoC5/USBUART_cdc.c ****     * Global variables:
 523:.\Generated_Source\PSoC5/USBUART_cdc.c ****     *   USBUART_cdc_data_out_ep: CDC OUT endpoint number used.
 524:.\Generated_Source\PSoC5/USBUART_cdc.c ****     *   USBUART_EP[].bufferSize: EP max packet size is used as a length
 525:.\Generated_Source\PSoC5/USBUART_cdc.c ****     *     to read all data from the EP buffer.
 526:.\Generated_Source\PSoC5/USBUART_cdc.c ****     *
 527:.\Generated_Source\PSoC5/USBUART_cdc.c ****     * Reentrant:
 528:.\Generated_Source\PSoC5/USBUART_cdc.c ****     *  No.
 529:.\Generated_Source\PSoC5/USBUART_cdc.c ****     *
 530:.\Generated_Source\PSoC5/USBUART_cdc.c ****     *******************************************************************************/
 531:.\Generated_Source\PSoC5/USBUART_cdc.c ****     uint16 USBUART_GetAll(uint8* pData) 
 532:.\Generated_Source\PSoC5/USBUART_cdc.c ****     {
 815              		.loc 1 532 0
 816              		.cfi_startproc
 817              		@ args = 0, pretend = 0, frame = 8
 818              		@ frame_needed = 1, uses_anonymous_args = 0
 819 0000 80B5     		push	{r7, lr}
ARM GAS  C:\Users\CHAIYA~1\AppData\Local\Temp\ccx8jNaQ.s 			page 25


 820              		.cfi_def_cfa_offset 8
 821              		.cfi_offset 7, -8
 822              		.cfi_offset 14, -4
 823 0002 82B0     		sub	sp, sp, #8
 824              		.cfi_def_cfa_offset 16
 825 0004 00AF     		add	r7, sp, #0
 826              		.cfi_def_cfa_register 7
 827 0006 7860     		str	r0, [r7, #4]
 533:.\Generated_Source\PSoC5/USBUART_cdc.c ****         return (USBUART_ReadOutEP(USBUART_cdc_data_out_ep, pData,
 828              		.loc 1 533 0
 829 0008 0C4B     		ldr	r3, .L60
 830 000a 1B78     		ldrb	r3, [r3]
 831 000c D9B2     		uxtb	r1, r3
 832 000e 0B4B     		ldr	r3, .L60
 833 0010 1B78     		ldrb	r3, [r3]
 834 0012 DBB2     		uxtb	r3, r3
 835 0014 1A46     		mov	r2, r3
 836 0016 0A48     		ldr	r0, .L60+4
 837 0018 1346     		mov	r3, r2
 838 001a 5B00     		lsls	r3, r3, #1
 839 001c 1344     		add	r3, r3, r2
 840 001e 9B00     		lsls	r3, r3, #2
 841 0020 0344     		add	r3, r3, r0
 842 0022 0833     		adds	r3, r3, #8
 843 0024 1B88     		ldrh	r3, [r3]	@ movhi
 844 0026 9BB2     		uxth	r3, r3
 845 0028 0846     		mov	r0, r1
 846 002a 7968     		ldr	r1, [r7, #4]
 847 002c 1A46     		mov	r2, r3
 848 002e FFF7FEFF 		bl	USBUART_ReadOutEP
 849 0032 0346     		mov	r3, r0
 534:.\Generated_Source\PSoC5/USBUART_cdc.c ****                                            USBUART_EP[USBUART_cdc_data_out_ep].bufferSize));
 535:.\Generated_Source\PSoC5/USBUART_cdc.c ****     }
 850              		.loc 1 535 0
 851 0034 1846     		mov	r0, r3
 852 0036 0837     		adds	r7, r7, #8
 853 0038 BD46     		mov	sp, r7
 854              		@ sp needed
 855 003a 80BD     		pop	{r7, pc}
 856              	.L61:
 857              		.align	2
 858              	.L60:
 859 003c 00000000 		.word	USBUART_cdc_data_out_ep
 860 0040 00000000 		.word	USBUART_EP
 861              		.cfi_endproc
 862              	.LFE11:
 863              		.size	USBUART_GetAll, .-USBUART_GetAll
 864              		.section	.text.USBUART_GetChar,"ax",%progbits
 865              		.align	2
 866              		.global	USBUART_GetChar
 867              		.thumb
 868              		.thumb_func
 869              		.type	USBUART_GetChar, %function
 870              	USBUART_GetChar:
 871              	.LFB12:
 536:.\Generated_Source\PSoC5/USBUART_cdc.c **** 
 537:.\Generated_Source\PSoC5/USBUART_cdc.c **** 
ARM GAS  C:\Users\CHAIYA~1\AppData\Local\Temp\ccx8jNaQ.s 			page 26


 538:.\Generated_Source\PSoC5/USBUART_cdc.c ****     /*******************************************************************************
 539:.\Generated_Source\PSoC5/USBUART_cdc.c ****     * Function Name: USBUART_GetChar
 540:.\Generated_Source\PSoC5/USBUART_cdc.c ****     ********************************************************************************
 541:.\Generated_Source\PSoC5/USBUART_cdc.c ****     *
 542:.\Generated_Source\PSoC5/USBUART_cdc.c ****     * Summary:
 543:.\Generated_Source\PSoC5/USBUART_cdc.c ****     *  This function reads one byte of received data from the buffer. If more than
 544:.\Generated_Source\PSoC5/USBUART_cdc.c ****     *  one byte has been received from the host, the rest of the data will be lost.
 545:.\Generated_Source\PSoC5/USBUART_cdc.c ****     *
 546:.\Generated_Source\PSoC5/USBUART_cdc.c ****     * Parameters:
 547:.\Generated_Source\PSoC5/USBUART_cdc.c ****     *  None.
 548:.\Generated_Source\PSoC5/USBUART_cdc.c ****     *
 549:.\Generated_Source\PSoC5/USBUART_cdc.c ****     * Return:
 550:.\Generated_Source\PSoC5/USBUART_cdc.c ****     *  Received one character.
 551:.\Generated_Source\PSoC5/USBUART_cdc.c ****     *
 552:.\Generated_Source\PSoC5/USBUART_cdc.c ****     * Global variables:
 553:.\Generated_Source\PSoC5/USBUART_cdc.c ****     *   USBUART_cdc_data_out_ep: CDC OUT endpoint number used.
 554:.\Generated_Source\PSoC5/USBUART_cdc.c ****     *
 555:.\Generated_Source\PSoC5/USBUART_cdc.c ****     * Reentrant:
 556:.\Generated_Source\PSoC5/USBUART_cdc.c ****     *  No.
 557:.\Generated_Source\PSoC5/USBUART_cdc.c ****     *
 558:.\Generated_Source\PSoC5/USBUART_cdc.c ****     *******************************************************************************/
 559:.\Generated_Source\PSoC5/USBUART_cdc.c ****     uint8 USBUART_GetChar(void) 
 560:.\Generated_Source\PSoC5/USBUART_cdc.c ****     {
 872              		.loc 1 560 0
 873              		.cfi_startproc
 874              		@ args = 0, pretend = 0, frame = 8
 875              		@ frame_needed = 1, uses_anonymous_args = 0
 876 0000 80B5     		push	{r7, lr}
 877              		.cfi_def_cfa_offset 8
 878              		.cfi_offset 7, -8
 879              		.cfi_offset 14, -4
 880 0002 82B0     		sub	sp, sp, #8
 881              		.cfi_def_cfa_offset 16
 882 0004 00AF     		add	r7, sp, #0
 883              		.cfi_def_cfa_register 7
 561:.\Generated_Source\PSoC5/USBUART_cdc.c ****          uint8 rxData;
 562:.\Generated_Source\PSoC5/USBUART_cdc.c **** 
 563:.\Generated_Source\PSoC5/USBUART_cdc.c ****         (void) USBUART_ReadOutEP(USBUART_cdc_data_out_ep, &rxData, 1u);
 884              		.loc 1 563 0
 885 0006 074B     		ldr	r3, .L64
 886 0008 1B78     		ldrb	r3, [r3]
 887 000a DAB2     		uxtb	r2, r3
 888 000c FB1D     		adds	r3, r7, #7
 889 000e 1046     		mov	r0, r2
 890 0010 1946     		mov	r1, r3
 891 0012 0122     		movs	r2, #1
 892 0014 FFF7FEFF 		bl	USBUART_ReadOutEP
 564:.\Generated_Source\PSoC5/USBUART_cdc.c **** 
 565:.\Generated_Source\PSoC5/USBUART_cdc.c ****         return(rxData);
 893              		.loc 1 565 0
 894 0018 FB79     		ldrb	r3, [r7, #7]	@ zero_extendqisi2
 566:.\Generated_Source\PSoC5/USBUART_cdc.c ****     }
 895              		.loc 1 566 0
 896 001a 1846     		mov	r0, r3
 897 001c 0837     		adds	r7, r7, #8
 898 001e BD46     		mov	sp, r7
 899              		@ sp needed
ARM GAS  C:\Users\CHAIYA~1\AppData\Local\Temp\ccx8jNaQ.s 			page 27


 900 0020 80BD     		pop	{r7, pc}
 901              	.L65:
 902 0022 00BF     		.align	2
 903              	.L64:
 904 0024 00000000 		.word	USBUART_cdc_data_out_ep
 905              		.cfi_endproc
 906              	.LFE12:
 907              		.size	USBUART_GetChar, .-USBUART_GetChar
 908              		.section	.text.USBUART_IsLineChanged,"ax",%progbits
 909              		.align	2
 910              		.global	USBUART_IsLineChanged
 911              		.thumb
 912              		.thumb_func
 913              		.type	USBUART_IsLineChanged, %function
 914              	USBUART_IsLineChanged:
 915              	.LFB13:
 567:.\Generated_Source\PSoC5/USBUART_cdc.c **** 
 568:.\Generated_Source\PSoC5/USBUART_cdc.c ****     /*******************************************************************************
 569:.\Generated_Source\PSoC5/USBUART_cdc.c ****     * Function Name: USBUART_IsLineChanged
 570:.\Generated_Source\PSoC5/USBUART_cdc.c ****     ********************************************************************************
 571:.\Generated_Source\PSoC5/USBUART_cdc.c ****     *
 572:.\Generated_Source\PSoC5/USBUART_cdc.c ****     * Summary:
 573:.\Generated_Source\PSoC5/USBUART_cdc.c ****     *  This function returns clear on read status of the line. It returns not zero
 574:.\Generated_Source\PSoC5/USBUART_cdc.c ****     *  value when the host sends updated coding or control information to the
 575:.\Generated_Source\PSoC5/USBUART_cdc.c ****     *  device. The USBUART_GetDTERate(), USBUART_GetCharFormat()
 576:.\Generated_Source\PSoC5/USBUART_cdc.c ****     *  or USBUART_GetParityType() or USBUART_GetDataBits() API
 577:.\Generated_Source\PSoC5/USBUART_cdc.c ****     *  should be called to read data coding information.
 578:.\Generated_Source\PSoC5/USBUART_cdc.c ****     *  The USBUART_GetLineControl() API should be called to read line
 579:.\Generated_Source\PSoC5/USBUART_cdc.c ****     *  control information.
 580:.\Generated_Source\PSoC5/USBUART_cdc.c ****     *
 581:.\Generated_Source\PSoC5/USBUART_cdc.c ****     * Parameters:
 582:.\Generated_Source\PSoC5/USBUART_cdc.c ****     *  None.
 583:.\Generated_Source\PSoC5/USBUART_cdc.c ****     *
 584:.\Generated_Source\PSoC5/USBUART_cdc.c ****     * Return:
 585:.\Generated_Source\PSoC5/USBUART_cdc.c ****     *  If SET_LINE_CODING or CDC_SET_CONTROL_LINE_STATE requests are received, it
 586:.\Generated_Source\PSoC5/USBUART_cdc.c ****     *  returns a nonzero value. Otherwise, it returns zero.
 587:.\Generated_Source\PSoC5/USBUART_cdc.c ****     *
 588:.\Generated_Source\PSoC5/USBUART_cdc.c ****     * Global variables:
 589:.\Generated_Source\PSoC5/USBUART_cdc.c ****     *  USBUART_transferState: it is checked to be sure then OUT data
 590:.\Generated_Source\PSoC5/USBUART_cdc.c ****     *    phase has been complete, and data written to the lineCoding or Control
 591:.\Generated_Source\PSoC5/USBUART_cdc.c ****     *    Bitmap buffer.
 592:.\Generated_Source\PSoC5/USBUART_cdc.c ****     *  USBUART_lineChanged: used as a flag to be aware that Host has been
 593:.\Generated_Source\PSoC5/USBUART_cdc.c ****     *    sent request for changing Line Coding or Control Bitmap.
 594:.\Generated_Source\PSoC5/USBUART_cdc.c ****     *
 595:.\Generated_Source\PSoC5/USBUART_cdc.c ****     *******************************************************************************/
 596:.\Generated_Source\PSoC5/USBUART_cdc.c ****     uint8 USBUART_IsLineChanged(void) 
 597:.\Generated_Source\PSoC5/USBUART_cdc.c ****     {
 916              		.loc 1 597 0
 917              		.cfi_startproc
 918              		@ args = 0, pretend = 0, frame = 8
 919              		@ frame_needed = 1, uses_anonymous_args = 0
 920              		@ link register save eliminated.
 921 0000 80B4     		push	{r7}
 922              		.cfi_def_cfa_offset 4
 923              		.cfi_offset 7, -4
 924 0002 83B0     		sub	sp, sp, #12
 925              		.cfi_def_cfa_offset 16
ARM GAS  C:\Users\CHAIYA~1\AppData\Local\Temp\ccx8jNaQ.s 			page 28


 926 0004 00AF     		add	r7, sp, #0
 927              		.cfi_def_cfa_register 7
 598:.\Generated_Source\PSoC5/USBUART_cdc.c ****         uint8 state = 0u;
 928              		.loc 1 598 0
 929 0006 0023     		movs	r3, #0
 930 0008 FB71     		strb	r3, [r7, #7]
 599:.\Generated_Source\PSoC5/USBUART_cdc.c **** 
 600:.\Generated_Source\PSoC5/USBUART_cdc.c ****         /* transferState is checked to be sure then OUT data phase has been complete */
 601:.\Generated_Source\PSoC5/USBUART_cdc.c ****         if(USBUART_transferState == USBUART_TRANS_STATE_IDLE)
 931              		.loc 1 601 0
 932 000a 0B4B     		ldr	r3, .L69
 933 000c 1B78     		ldrb	r3, [r3]
 934 000e DBB2     		uxtb	r3, r3
 935 0010 002B     		cmp	r3, #0
 936 0012 0AD1     		bne	.L67
 602:.\Generated_Source\PSoC5/USBUART_cdc.c ****         {
 603:.\Generated_Source\PSoC5/USBUART_cdc.c ****             if(USBUART_lineChanged != 0u)
 937              		.loc 1 603 0
 938 0014 094B     		ldr	r3, .L69+4
 939 0016 1B78     		ldrb	r3, [r3]
 940 0018 DBB2     		uxtb	r3, r3
 941 001a 002B     		cmp	r3, #0
 942 001c 05D0     		beq	.L67
 604:.\Generated_Source\PSoC5/USBUART_cdc.c ****             {
 605:.\Generated_Source\PSoC5/USBUART_cdc.c ****                 state = USBUART_lineChanged;
 943              		.loc 1 605 0
 944 001e 074B     		ldr	r3, .L69+4
 945 0020 1B78     		ldrb	r3, [r3]
 946 0022 FB71     		strb	r3, [r7, #7]
 606:.\Generated_Source\PSoC5/USBUART_cdc.c ****                 USBUART_lineChanged = 0u;
 947              		.loc 1 606 0
 948 0024 054B     		ldr	r3, .L69+4
 949 0026 0022     		movs	r2, #0
 950 0028 1A70     		strb	r2, [r3]
 951              	.L67:
 607:.\Generated_Source\PSoC5/USBUART_cdc.c ****             }
 608:.\Generated_Source\PSoC5/USBUART_cdc.c ****         }
 609:.\Generated_Source\PSoC5/USBUART_cdc.c **** 
 610:.\Generated_Source\PSoC5/USBUART_cdc.c ****         return(state);
 952              		.loc 1 610 0
 953 002a FB79     		ldrb	r3, [r7, #7]	@ zero_extendqisi2
 611:.\Generated_Source\PSoC5/USBUART_cdc.c ****     }
 954              		.loc 1 611 0
 955 002c 1846     		mov	r0, r3
 956 002e 0C37     		adds	r7, r7, #12
 957 0030 BD46     		mov	sp, r7
 958              		@ sp needed
 959 0032 5DF8047B 		ldr	r7, [sp], #4
 960 0036 7047     		bx	lr
 961              	.L70:
 962              		.align	2
 963              	.L69:
 964 0038 00000000 		.word	USBUART_transferState
 965 003c 00000000 		.word	USBUART_lineChanged
 966              		.cfi_endproc
 967              	.LFE13:
 968              		.size	USBUART_IsLineChanged, .-USBUART_IsLineChanged
ARM GAS  C:\Users\CHAIYA~1\AppData\Local\Temp\ccx8jNaQ.s 			page 29


 969              		.section	.text.USBUART_GetDTERate,"ax",%progbits
 970              		.align	2
 971              		.global	USBUART_GetDTERate
 972              		.thumb
 973              		.thumb_func
 974              		.type	USBUART_GetDTERate, %function
 975              	USBUART_GetDTERate:
 976              	.LFB14:
 612:.\Generated_Source\PSoC5/USBUART_cdc.c **** 
 613:.\Generated_Source\PSoC5/USBUART_cdc.c **** 
 614:.\Generated_Source\PSoC5/USBUART_cdc.c ****     /*******************************************************************************
 615:.\Generated_Source\PSoC5/USBUART_cdc.c ****     * Function Name: USBUART_GetDTERate
 616:.\Generated_Source\PSoC5/USBUART_cdc.c ****     ********************************************************************************
 617:.\Generated_Source\PSoC5/USBUART_cdc.c ****     *
 618:.\Generated_Source\PSoC5/USBUART_cdc.c ****     * Summary:
 619:.\Generated_Source\PSoC5/USBUART_cdc.c ****     *  Returns the data terminal rate set for this port in bits per second.
 620:.\Generated_Source\PSoC5/USBUART_cdc.c ****     *
 621:.\Generated_Source\PSoC5/USBUART_cdc.c ****     * Parameters:
 622:.\Generated_Source\PSoC5/USBUART_cdc.c ****     *  None.
 623:.\Generated_Source\PSoC5/USBUART_cdc.c ****     *
 624:.\Generated_Source\PSoC5/USBUART_cdc.c ****     * Return:
 625:.\Generated_Source\PSoC5/USBUART_cdc.c ****     *  Returns a uint32 value of the data rate in bits per second.
 626:.\Generated_Source\PSoC5/USBUART_cdc.c ****     *
 627:.\Generated_Source\PSoC5/USBUART_cdc.c ****     * Global variables:
 628:.\Generated_Source\PSoC5/USBUART_cdc.c ****     *  USBUART_lineCoding: First four bytes converted to uint32
 629:.\Generated_Source\PSoC5/USBUART_cdc.c ****     *    depend on compiler, and returned as a data rate.
 630:.\Generated_Source\PSoC5/USBUART_cdc.c ****     *
 631:.\Generated_Source\PSoC5/USBUART_cdc.c ****     *******************************************************************************/
 632:.\Generated_Source\PSoC5/USBUART_cdc.c ****     uint32 USBUART_GetDTERate(void) 
 633:.\Generated_Source\PSoC5/USBUART_cdc.c ****     {
 977              		.loc 1 633 0
 978              		.cfi_startproc
 979              		@ args = 0, pretend = 0, frame = 8
 980              		@ frame_needed = 1, uses_anonymous_args = 0
 981              		@ link register save eliminated.
 982 0000 80B4     		push	{r7}
 983              		.cfi_def_cfa_offset 4
 984              		.cfi_offset 7, -4
 985 0002 83B0     		sub	sp, sp, #12
 986              		.cfi_def_cfa_offset 16
 987 0004 00AF     		add	r7, sp, #0
 988              		.cfi_def_cfa_register 7
 634:.\Generated_Source\PSoC5/USBUART_cdc.c ****         uint32 rate;
 635:.\Generated_Source\PSoC5/USBUART_cdc.c **** 
 636:.\Generated_Source\PSoC5/USBUART_cdc.c ****         rate = USBUART_lineCoding[USBUART_LINE_CODING_RATE + 3u];
 989              		.loc 1 636 0
 990 0006 104B     		ldr	r3, .L73
 991 0008 DB78     		ldrb	r3, [r3, #3]
 992 000a DBB2     		uxtb	r3, r3
 993 000c 7B60     		str	r3, [r7, #4]
 637:.\Generated_Source\PSoC5/USBUART_cdc.c ****         rate = (rate << 8u) | USBUART_lineCoding[USBUART_LINE_CODING_RATE + 2u];
 994              		.loc 1 637 0
 995 000e 7B68     		ldr	r3, [r7, #4]
 996 0010 1A02     		lsls	r2, r3, #8
 997 0012 0D4B     		ldr	r3, .L73
 998 0014 9B78     		ldrb	r3, [r3, #2]
 999 0016 DBB2     		uxtb	r3, r3
ARM GAS  C:\Users\CHAIYA~1\AppData\Local\Temp\ccx8jNaQ.s 			page 30


 1000 0018 1343     		orrs	r3, r3, r2
 1001 001a 7B60     		str	r3, [r7, #4]
 638:.\Generated_Source\PSoC5/USBUART_cdc.c ****         rate = (rate << 8u) | USBUART_lineCoding[USBUART_LINE_CODING_RATE + 1u];
 1002              		.loc 1 638 0
 1003 001c 7B68     		ldr	r3, [r7, #4]
 1004 001e 1A02     		lsls	r2, r3, #8
 1005 0020 094B     		ldr	r3, .L73
 1006 0022 5B78     		ldrb	r3, [r3, #1]
 1007 0024 DBB2     		uxtb	r3, r3
 1008 0026 1343     		orrs	r3, r3, r2
 1009 0028 7B60     		str	r3, [r7, #4]
 639:.\Generated_Source\PSoC5/USBUART_cdc.c ****         rate = (rate << 8u) | USBUART_lineCoding[USBUART_LINE_CODING_RATE];
 1010              		.loc 1 639 0
 1011 002a 7B68     		ldr	r3, [r7, #4]
 1012 002c 1A02     		lsls	r2, r3, #8
 1013 002e 064B     		ldr	r3, .L73
 1014 0030 1B78     		ldrb	r3, [r3]
 1015 0032 DBB2     		uxtb	r3, r3
 1016 0034 1343     		orrs	r3, r3, r2
 1017 0036 7B60     		str	r3, [r7, #4]
 640:.\Generated_Source\PSoC5/USBUART_cdc.c **** 
 641:.\Generated_Source\PSoC5/USBUART_cdc.c ****         return(rate);
 1018              		.loc 1 641 0
 1019 0038 7B68     		ldr	r3, [r7, #4]
 642:.\Generated_Source\PSoC5/USBUART_cdc.c ****     }
 1020              		.loc 1 642 0
 1021 003a 1846     		mov	r0, r3
 1022 003c 0C37     		adds	r7, r7, #12
 1023 003e BD46     		mov	sp, r7
 1024              		@ sp needed
 1025 0040 5DF8047B 		ldr	r7, [sp], #4
 1026 0044 7047     		bx	lr
 1027              	.L74:
 1028 0046 00BF     		.align	2
 1029              	.L73:
 1030 0048 00000000 		.word	USBUART_lineCoding
 1031              		.cfi_endproc
 1032              	.LFE14:
 1033              		.size	USBUART_GetDTERate, .-USBUART_GetDTERate
 1034              		.section	.text.USBUART_GetCharFormat,"ax",%progbits
 1035              		.align	2
 1036              		.global	USBUART_GetCharFormat
 1037              		.thumb
 1038              		.thumb_func
 1039              		.type	USBUART_GetCharFormat, %function
 1040              	USBUART_GetCharFormat:
 1041              	.LFB15:
 643:.\Generated_Source\PSoC5/USBUART_cdc.c **** 
 644:.\Generated_Source\PSoC5/USBUART_cdc.c **** 
 645:.\Generated_Source\PSoC5/USBUART_cdc.c ****     /*******************************************************************************
 646:.\Generated_Source\PSoC5/USBUART_cdc.c ****     * Function Name: USBUART_GetCharFormat
 647:.\Generated_Source\PSoC5/USBUART_cdc.c ****     ********************************************************************************
 648:.\Generated_Source\PSoC5/USBUART_cdc.c ****     *
 649:.\Generated_Source\PSoC5/USBUART_cdc.c ****     * Summary:
 650:.\Generated_Source\PSoC5/USBUART_cdc.c ****     *  Returns the number of stop bits.
 651:.\Generated_Source\PSoC5/USBUART_cdc.c ****     *
 652:.\Generated_Source\PSoC5/USBUART_cdc.c ****     * Parameters:
ARM GAS  C:\Users\CHAIYA~1\AppData\Local\Temp\ccx8jNaQ.s 			page 31


 653:.\Generated_Source\PSoC5/USBUART_cdc.c ****     *  None.
 654:.\Generated_Source\PSoC5/USBUART_cdc.c ****     *
 655:.\Generated_Source\PSoC5/USBUART_cdc.c ****     * Return:
 656:.\Generated_Source\PSoC5/USBUART_cdc.c ****     *  Returns the number of stop bits.
 657:.\Generated_Source\PSoC5/USBUART_cdc.c ****     *
 658:.\Generated_Source\PSoC5/USBUART_cdc.c ****     * Global variables:
 659:.\Generated_Source\PSoC5/USBUART_cdc.c ****     *  USBUART_lineCoding: used to get a parameter.
 660:.\Generated_Source\PSoC5/USBUART_cdc.c ****     *
 661:.\Generated_Source\PSoC5/USBUART_cdc.c ****     *******************************************************************************/
 662:.\Generated_Source\PSoC5/USBUART_cdc.c ****     uint8 USBUART_GetCharFormat(void) 
 663:.\Generated_Source\PSoC5/USBUART_cdc.c ****     {
 1042              		.loc 1 663 0
 1043              		.cfi_startproc
 1044              		@ args = 0, pretend = 0, frame = 0
 1045              		@ frame_needed = 1, uses_anonymous_args = 0
 1046              		@ link register save eliminated.
 1047 0000 80B4     		push	{r7}
 1048              		.cfi_def_cfa_offset 4
 1049              		.cfi_offset 7, -4
 1050 0002 00AF     		add	r7, sp, #0
 1051              		.cfi_def_cfa_register 7
 664:.\Generated_Source\PSoC5/USBUART_cdc.c ****         return(USBUART_lineCoding[USBUART_LINE_CODING_STOP_BITS]);
 1052              		.loc 1 664 0
 1053 0004 034B     		ldr	r3, .L77
 1054 0006 1B79     		ldrb	r3, [r3, #4]
 1055 0008 DBB2     		uxtb	r3, r3
 665:.\Generated_Source\PSoC5/USBUART_cdc.c ****     }
 1056              		.loc 1 665 0
 1057 000a 1846     		mov	r0, r3
 1058 000c BD46     		mov	sp, r7
 1059              		@ sp needed
 1060 000e 5DF8047B 		ldr	r7, [sp], #4
 1061 0012 7047     		bx	lr
 1062              	.L78:
 1063              		.align	2
 1064              	.L77:
 1065 0014 00000000 		.word	USBUART_lineCoding
 1066              		.cfi_endproc
 1067              	.LFE15:
 1068              		.size	USBUART_GetCharFormat, .-USBUART_GetCharFormat
 1069              		.section	.text.USBUART_GetParityType,"ax",%progbits
 1070              		.align	2
 1071              		.global	USBUART_GetParityType
 1072              		.thumb
 1073              		.thumb_func
 1074              		.type	USBUART_GetParityType, %function
 1075              	USBUART_GetParityType:
 1076              	.LFB16:
 666:.\Generated_Source\PSoC5/USBUART_cdc.c **** 
 667:.\Generated_Source\PSoC5/USBUART_cdc.c **** 
 668:.\Generated_Source\PSoC5/USBUART_cdc.c ****     /*******************************************************************************
 669:.\Generated_Source\PSoC5/USBUART_cdc.c ****     * Function Name: USBUART_GetParityType
 670:.\Generated_Source\PSoC5/USBUART_cdc.c ****     ********************************************************************************
 671:.\Generated_Source\PSoC5/USBUART_cdc.c ****     *
 672:.\Generated_Source\PSoC5/USBUART_cdc.c ****     * Summary:
 673:.\Generated_Source\PSoC5/USBUART_cdc.c ****     *  Returns the parity type for the CDC port.
 674:.\Generated_Source\PSoC5/USBUART_cdc.c ****     *
ARM GAS  C:\Users\CHAIYA~1\AppData\Local\Temp\ccx8jNaQ.s 			page 32


 675:.\Generated_Source\PSoC5/USBUART_cdc.c ****     * Parameters:
 676:.\Generated_Source\PSoC5/USBUART_cdc.c ****     *  None.
 677:.\Generated_Source\PSoC5/USBUART_cdc.c ****     *
 678:.\Generated_Source\PSoC5/USBUART_cdc.c ****     * Return:
 679:.\Generated_Source\PSoC5/USBUART_cdc.c ****     *  Returns the parity type.
 680:.\Generated_Source\PSoC5/USBUART_cdc.c ****     *
 681:.\Generated_Source\PSoC5/USBUART_cdc.c ****     * Global variables:
 682:.\Generated_Source\PSoC5/USBUART_cdc.c ****     *  USBUART_lineCoding: used to get a parameter.
 683:.\Generated_Source\PSoC5/USBUART_cdc.c ****     *
 684:.\Generated_Source\PSoC5/USBUART_cdc.c ****     *******************************************************************************/
 685:.\Generated_Source\PSoC5/USBUART_cdc.c ****     uint8 USBUART_GetParityType(void) 
 686:.\Generated_Source\PSoC5/USBUART_cdc.c ****     {
 1077              		.loc 1 686 0
 1078              		.cfi_startproc
 1079              		@ args = 0, pretend = 0, frame = 0
 1080              		@ frame_needed = 1, uses_anonymous_args = 0
 1081              		@ link register save eliminated.
 1082 0000 80B4     		push	{r7}
 1083              		.cfi_def_cfa_offset 4
 1084              		.cfi_offset 7, -4
 1085 0002 00AF     		add	r7, sp, #0
 1086              		.cfi_def_cfa_register 7
 687:.\Generated_Source\PSoC5/USBUART_cdc.c ****         return(USBUART_lineCoding[USBUART_LINE_CODING_PARITY]);
 1087              		.loc 1 687 0
 1088 0004 034B     		ldr	r3, .L81
 1089 0006 5B79     		ldrb	r3, [r3, #5]
 1090 0008 DBB2     		uxtb	r3, r3
 688:.\Generated_Source\PSoC5/USBUART_cdc.c ****     }
 1091              		.loc 1 688 0
 1092 000a 1846     		mov	r0, r3
 1093 000c BD46     		mov	sp, r7
 1094              		@ sp needed
 1095 000e 5DF8047B 		ldr	r7, [sp], #4
 1096 0012 7047     		bx	lr
 1097              	.L82:
 1098              		.align	2
 1099              	.L81:
 1100 0014 00000000 		.word	USBUART_lineCoding
 1101              		.cfi_endproc
 1102              	.LFE16:
 1103              		.size	USBUART_GetParityType, .-USBUART_GetParityType
 1104              		.section	.text.USBUART_GetDataBits,"ax",%progbits
 1105              		.align	2
 1106              		.global	USBUART_GetDataBits
 1107              		.thumb
 1108              		.thumb_func
 1109              		.type	USBUART_GetDataBits, %function
 1110              	USBUART_GetDataBits:
 1111              	.LFB17:
 689:.\Generated_Source\PSoC5/USBUART_cdc.c **** 
 690:.\Generated_Source\PSoC5/USBUART_cdc.c **** 
 691:.\Generated_Source\PSoC5/USBUART_cdc.c ****     /*******************************************************************************
 692:.\Generated_Source\PSoC5/USBUART_cdc.c ****     * Function Name: USBUART_GetDataBits
 693:.\Generated_Source\PSoC5/USBUART_cdc.c ****     ********************************************************************************
 694:.\Generated_Source\PSoC5/USBUART_cdc.c ****     *
 695:.\Generated_Source\PSoC5/USBUART_cdc.c ****     * Summary:
 696:.\Generated_Source\PSoC5/USBUART_cdc.c ****     *  Returns the number of data bits for the CDC port.
ARM GAS  C:\Users\CHAIYA~1\AppData\Local\Temp\ccx8jNaQ.s 			page 33


 697:.\Generated_Source\PSoC5/USBUART_cdc.c ****     *
 698:.\Generated_Source\PSoC5/USBUART_cdc.c ****     * Parameters:
 699:.\Generated_Source\PSoC5/USBUART_cdc.c ****     *  None.
 700:.\Generated_Source\PSoC5/USBUART_cdc.c ****     *
 701:.\Generated_Source\PSoC5/USBUART_cdc.c ****     * Return:
 702:.\Generated_Source\PSoC5/USBUART_cdc.c ****     *  Returns the number of data bits.
 703:.\Generated_Source\PSoC5/USBUART_cdc.c ****     *  The number of data bits can be 5, 6, 7, 8 or 16.
 704:.\Generated_Source\PSoC5/USBUART_cdc.c ****     *
 705:.\Generated_Source\PSoC5/USBUART_cdc.c ****     * Global variables:
 706:.\Generated_Source\PSoC5/USBUART_cdc.c ****     *  USBUART_lineCoding: used to get a parameter.
 707:.\Generated_Source\PSoC5/USBUART_cdc.c ****     *
 708:.\Generated_Source\PSoC5/USBUART_cdc.c ****     *******************************************************************************/
 709:.\Generated_Source\PSoC5/USBUART_cdc.c ****     uint8 USBUART_GetDataBits(void) 
 710:.\Generated_Source\PSoC5/USBUART_cdc.c ****     {
 1112              		.loc 1 710 0
 1113              		.cfi_startproc
 1114              		@ args = 0, pretend = 0, frame = 0
 1115              		@ frame_needed = 1, uses_anonymous_args = 0
 1116              		@ link register save eliminated.
 1117 0000 80B4     		push	{r7}
 1118              		.cfi_def_cfa_offset 4
 1119              		.cfi_offset 7, -4
 1120 0002 00AF     		add	r7, sp, #0
 1121              		.cfi_def_cfa_register 7
 711:.\Generated_Source\PSoC5/USBUART_cdc.c ****         return(USBUART_lineCoding[USBUART_LINE_CODING_DATA_BITS]);
 1122              		.loc 1 711 0
 1123 0004 034B     		ldr	r3, .L85
 1124 0006 9B79     		ldrb	r3, [r3, #6]
 1125 0008 DBB2     		uxtb	r3, r3
 712:.\Generated_Source\PSoC5/USBUART_cdc.c ****     }
 1126              		.loc 1 712 0
 1127 000a 1846     		mov	r0, r3
 1128 000c BD46     		mov	sp, r7
 1129              		@ sp needed
 1130 000e 5DF8047B 		ldr	r7, [sp], #4
 1131 0012 7047     		bx	lr
 1132              	.L86:
 1133              		.align	2
 1134              	.L85:
 1135 0014 00000000 		.word	USBUART_lineCoding
 1136              		.cfi_endproc
 1137              	.LFE17:
 1138              		.size	USBUART_GetDataBits, .-USBUART_GetDataBits
 1139              		.section	.text.USBUART_GetLineControl,"ax",%progbits
 1140              		.align	2
 1141              		.global	USBUART_GetLineControl
 1142              		.thumb
 1143              		.thumb_func
 1144              		.type	USBUART_GetLineControl, %function
 1145              	USBUART_GetLineControl:
 1146              	.LFB18:
 713:.\Generated_Source\PSoC5/USBUART_cdc.c **** 
 714:.\Generated_Source\PSoC5/USBUART_cdc.c **** 
 715:.\Generated_Source\PSoC5/USBUART_cdc.c ****     /*******************************************************************************
 716:.\Generated_Source\PSoC5/USBUART_cdc.c ****     * Function Name: USBUART_GetLineControl
 717:.\Generated_Source\PSoC5/USBUART_cdc.c ****     ********************************************************************************
 718:.\Generated_Source\PSoC5/USBUART_cdc.c ****     *
ARM GAS  C:\Users\CHAIYA~1\AppData\Local\Temp\ccx8jNaQ.s 			page 34


 719:.\Generated_Source\PSoC5/USBUART_cdc.c ****     * Summary:
 720:.\Generated_Source\PSoC5/USBUART_cdc.c ****     *  Returns Line control bitmap.
 721:.\Generated_Source\PSoC5/USBUART_cdc.c ****     *
 722:.\Generated_Source\PSoC5/USBUART_cdc.c ****     * Parameters:
 723:.\Generated_Source\PSoC5/USBUART_cdc.c ****     *  None.
 724:.\Generated_Source\PSoC5/USBUART_cdc.c ****     *
 725:.\Generated_Source\PSoC5/USBUART_cdc.c ****     * Return:
 726:.\Generated_Source\PSoC5/USBUART_cdc.c ****     *  Returns Line control bitmap.
 727:.\Generated_Source\PSoC5/USBUART_cdc.c ****     *
 728:.\Generated_Source\PSoC5/USBUART_cdc.c ****     * Global variables:
 729:.\Generated_Source\PSoC5/USBUART_cdc.c ****     *  USBUART_lineControlBitmap: used to get a parameter.
 730:.\Generated_Source\PSoC5/USBUART_cdc.c ****     *
 731:.\Generated_Source\PSoC5/USBUART_cdc.c ****     *******************************************************************************/
 732:.\Generated_Source\PSoC5/USBUART_cdc.c ****     uint16 USBUART_GetLineControl(void) 
 733:.\Generated_Source\PSoC5/USBUART_cdc.c ****     {
 1147              		.loc 1 733 0
 1148              		.cfi_startproc
 1149              		@ args = 0, pretend = 0, frame = 0
 1150              		@ frame_needed = 1, uses_anonymous_args = 0
 1151              		@ link register save eliminated.
 1152 0000 80B4     		push	{r7}
 1153              		.cfi_def_cfa_offset 4
 1154              		.cfi_offset 7, -4
 1155 0002 00AF     		add	r7, sp, #0
 1156              		.cfi_def_cfa_register 7
 734:.\Generated_Source\PSoC5/USBUART_cdc.c ****         return(USBUART_lineControlBitmap);
 1157              		.loc 1 734 0
 1158 0004 034B     		ldr	r3, .L89
 1159 0006 1B88     		ldrh	r3, [r3]	@ movhi
 1160 0008 9BB2     		uxth	r3, r3
 735:.\Generated_Source\PSoC5/USBUART_cdc.c ****     }
 1161              		.loc 1 735 0
 1162 000a 1846     		mov	r0, r3
 1163 000c BD46     		mov	sp, r7
 1164              		@ sp needed
 1165 000e 5DF8047B 		ldr	r7, [sp], #4
 1166 0012 7047     		bx	lr
 1167              	.L90:
 1168              		.align	2
 1169              	.L89:
 1170 0014 00000000 		.word	USBUART_lineControlBitmap
 1171              		.cfi_endproc
 1172              	.LFE18:
 1173              		.size	USBUART_GetLineControl, .-USBUART_GetLineControl
 1174              		.text
 1175              	.Letext0:
 1176              		.file 2 ".\\Generated_Source\\PSoC5\\cytypes.h"
 1177              		.file 3 ".\\Generated_Source\\PSoC5\\USBUART.h"
 1178              		.file 4 ".\\Generated_Source\\PSoC5\\USBUART_pvt.h"