ARM GAS  C:\Users\CHAIYA~1\AppData\Local\Temp\ccQBCuX6.s 			page 1


   1              		.syntax unified
   2              		.cpu cortex-m3
   3              		.fpu softvfp
   4              		.eabi_attribute 20, 1
   5              		.eabi_attribute 21, 1
   6              		.eabi_attribute 23, 3
   7              		.eabi_attribute 24, 1
   8              		.eabi_attribute 25, 1
   9              		.eabi_attribute 26, 1
  10              		.eabi_attribute 30, 6
  11              		.eabi_attribute 34, 1
  12              		.eabi_attribute 18, 4
  13              		.thumb
  14              		.file	"CAN.c"
  15              		.text
  16              	.Ltext0:
  17              		.cfi_sections	.debug_frame
  18              		.global	CAN_initVar
  19              		.bss
  20              		.type	CAN_initVar, %object
  21              		.size	CAN_initVar, 1
  22              	CAN_initVar:
  23 0000 00       		.space	1
  24              		.section	.text.CAN_Init,"ax",%progbits
  25              		.align	2
  26              		.global	CAN_Init
  27              		.thumb
  28              		.thumb_func
  29              		.type	CAN_Init, %function
  30              	CAN_Init:
  31              	.LFB0:
  32              		.file 1 ".\\Generated_Source\\PSoC5\\CAN.c"
   1:.\Generated_Source\PSoC5/CAN.c **** /*******************************************************************************
   2:.\Generated_Source\PSoC5/CAN.c **** * File Name: CAN.c
   3:.\Generated_Source\PSoC5/CAN.c **** * Version 2.30
   4:.\Generated_Source\PSoC5/CAN.c **** *
   5:.\Generated_Source\PSoC5/CAN.c **** * Description:
   6:.\Generated_Source\PSoC5/CAN.c **** *  The CAN Component provide functionality of Control Area Network.
   7:.\Generated_Source\PSoC5/CAN.c **** *  Two types of mailbox configurations available "Full" and "Basic".
   8:.\Generated_Source\PSoC5/CAN.c **** *
   9:.\Generated_Source\PSoC5/CAN.c **** * Note:
  10:.\Generated_Source\PSoC5/CAN.c **** *  CAN configuration puts as constant to ROM and could change only directly
  11:.\Generated_Source\PSoC5/CAN.c **** *  registers write by user.
  12:.\Generated_Source\PSoC5/CAN.c **** *
  13:.\Generated_Source\PSoC5/CAN.c **** ********************************************************************************
  14:.\Generated_Source\PSoC5/CAN.c **** * Copyright 2008-2012, Cypress Semiconductor Corporation.  All rights reserved.
  15:.\Generated_Source\PSoC5/CAN.c **** * You may use this file only in accordance with the license, terms, conditions,
  16:.\Generated_Source\PSoC5/CAN.c **** * disclaimers, and limitations in the end user license agreement accompanying
  17:.\Generated_Source\PSoC5/CAN.c **** * the software package with which this file was provided.
  18:.\Generated_Source\PSoC5/CAN.c **** *******************************************************************************/
  19:.\Generated_Source\PSoC5/CAN.c **** 
  20:.\Generated_Source\PSoC5/CAN.c **** #include "CAN.h"
  21:.\Generated_Source\PSoC5/CAN.c **** 
  22:.\Generated_Source\PSoC5/CAN.c **** uint8 CAN_initVar = 0u;
  23:.\Generated_Source\PSoC5/CAN.c **** 
  24:.\Generated_Source\PSoC5/CAN.c **** 
  25:.\Generated_Source\PSoC5/CAN.c **** /*******************************************************************************
ARM GAS  C:\Users\CHAIYA~1\AppData\Local\Temp\ccQBCuX6.s 			page 2


  26:.\Generated_Source\PSoC5/CAN.c **** * FUNCTION NAME:   CAN_Init
  27:.\Generated_Source\PSoC5/CAN.c **** ********************************************************************************
  28:.\Generated_Source\PSoC5/CAN.c **** *
  29:.\Generated_Source\PSoC5/CAN.c **** * Summary:
  30:.\Generated_Source\PSoC5/CAN.c **** *  Inits/Restores default CAN configuration provided with customizer.
  31:.\Generated_Source\PSoC5/CAN.c **** *
  32:.\Generated_Source\PSoC5/CAN.c **** * Parameters:
  33:.\Generated_Source\PSoC5/CAN.c **** *  None.
  34:.\Generated_Source\PSoC5/CAN.c **** *
  35:.\Generated_Source\PSoC5/CAN.c **** * Return:
  36:.\Generated_Source\PSoC5/CAN.c **** *  Indication whether the configuration has been accepted or rejected.
  37:.\Generated_Source\PSoC5/CAN.c **** *   Define                             Description
  38:.\Generated_Source\PSoC5/CAN.c **** *    CYRET_SUCCESS                      Function passed successfully
  39:.\Generated_Source\PSoC5/CAN.c **** *    CAN_FAIL              Function failed
  40:.\Generated_Source\PSoC5/CAN.c **** *
  41:.\Generated_Source\PSoC5/CAN.c **** * Side Effects:
  42:.\Generated_Source\PSoC5/CAN.c **** *  All registers will be reset to their initial values. This will re-initialize 
  43:.\Generated_Source\PSoC5/CAN.c **** *  the component with the following exceptions - it will not clear data from 
  44:.\Generated_Source\PSoC5/CAN.c **** *  the mailboxes.
  45:.\Generated_Source\PSoC5/CAN.c **** *  Enable power to the CAN Core.
  46:.\Generated_Source\PSoC5/CAN.c **** *
  47:.\Generated_Source\PSoC5/CAN.c **** *******************************************************************************/
  48:.\Generated_Source\PSoC5/CAN.c **** uint8 CAN_Init(void) 
  49:.\Generated_Source\PSoC5/CAN.c **** {
  33              		.loc 1 49 0
  34              		.cfi_startproc
  35              		@ args = 0, pretend = 0, frame = 8
  36              		@ frame_needed = 1, uses_anonymous_args = 0
  37 0000 80B5     		push	{r7, lr}
  38              	.LCFI0:
  39              		.cfi_def_cfa_offset 8
  40              		.cfi_offset 7, -8
  41              		.cfi_offset 14, -4
  42 0002 82B0     		sub	sp, sp, #8
  43              	.LCFI1:
  44              		.cfi_def_cfa_offset 16
  45 0004 00AF     		add	r7, sp, #0
  46              	.LCFI2:
  47              		.cfi_def_cfa_register 7
  50:.\Generated_Source\PSoC5/CAN.c ****     /* Iniital values of CAN RX and TX registers */
  51:.\Generated_Source\PSoC5/CAN.c ****     static const CAN_RX_CFG CYCODE CAN_RXConfigStruct[] =
  52:.\Generated_Source\PSoC5/CAN.c ****     {
  53:.\Generated_Source\PSoC5/CAN.c ****         { 0u, 0x28u, 0x1FFFF9u, 0x200000u },
  54:.\Generated_Source\PSoC5/CAN.c ****         { 1u, 0x0u, 0x0u, 0x0u },
  55:.\Generated_Source\PSoC5/CAN.c ****         { 2u, 0x0u, 0x0u, 0x0u },
  56:.\Generated_Source\PSoC5/CAN.c ****         { 3u, 0x0u, 0x0u, 0x0u },
  57:.\Generated_Source\PSoC5/CAN.c ****         { 4u, 0x0u, 0x0u, 0x0u },
  58:.\Generated_Source\PSoC5/CAN.c ****         { 5u, 0x0u, 0x0u, 0x0u },
  59:.\Generated_Source\PSoC5/CAN.c ****         { 6u, 0x0u, 0x0u, 0x0u },
  60:.\Generated_Source\PSoC5/CAN.c ****         { 7u, 0x0u, 0x0u, 0x0u },
  61:.\Generated_Source\PSoC5/CAN.c ****         { 8u, 0x0u, 0x0u, 0x0u },
  62:.\Generated_Source\PSoC5/CAN.c ****         { 9u, 0x0u, 0x0u, 0x0u },
  63:.\Generated_Source\PSoC5/CAN.c ****         { 10u, 0x0u, 0x0u, 0x0u },
  64:.\Generated_Source\PSoC5/CAN.c ****         { 11u, 0x0u, 0x0u, 0x0u },
  65:.\Generated_Source\PSoC5/CAN.c ****         { 12u, 0x0u, 0x0u, 0x0u },
  66:.\Generated_Source\PSoC5/CAN.c ****         { 13u, 0x0u, 0x0u, 0x0u },
  67:.\Generated_Source\PSoC5/CAN.c ****         { 14u, 0x0u, 0x0u, 0x0u },
ARM GAS  C:\Users\CHAIYA~1\AppData\Local\Temp\ccQBCuX6.s 			page 3


  68:.\Generated_Source\PSoC5/CAN.c ****         { 15u, 0x0u, 0x0u, 0x0u }
  69:.\Generated_Source\PSoC5/CAN.c ****     };
  70:.\Generated_Source\PSoC5/CAN.c **** 
  71:.\Generated_Source\PSoC5/CAN.c ****     static const CAN_TX_CFG CYCODE CAN_TXConfigStruct[] =
  72:.\Generated_Source\PSoC5/CAN.c ****     {
  73:.\Generated_Source\PSoC5/CAN.c ****         { 0u, 0x40004u, 0x200000u },
  74:.\Generated_Source\PSoC5/CAN.c ****         { 1u, 0x60004u, 0x200000u },
  75:.\Generated_Source\PSoC5/CAN.c ****         { 2u, 0x10004u, 0x200000u },
  76:.\Generated_Source\PSoC5/CAN.c ****         { 3u, 0x0u, 0x0u },
  77:.\Generated_Source\PSoC5/CAN.c ****         { 4u, 0x0u, 0x0u },
  78:.\Generated_Source\PSoC5/CAN.c ****         { 5u, 0x0u, 0x0u },
  79:.\Generated_Source\PSoC5/CAN.c ****         { 6u, 0x0u, 0x0u },
  80:.\Generated_Source\PSoC5/CAN.c ****         { 7u, 0x0u, 0x0u }
  81:.\Generated_Source\PSoC5/CAN.c ****     };
  82:.\Generated_Source\PSoC5/CAN.c ****     
  83:.\Generated_Source\PSoC5/CAN.c ****     uint8 i;
  84:.\Generated_Source\PSoC5/CAN.c ****     uint8 result = CAN_FAIL;
  48              		.loc 1 84 0
  49 0006 4FF00103 		mov	r3, #1
  50 000a BB71     		strb	r3, [r7, #6]
  85:.\Generated_Source\PSoC5/CAN.c ****     uint8 localResult = CAN_FAIL;
  51              		.loc 1 85 0
  52 000c 4FF00103 		mov	r3, #1
  53 0010 7B71     		strb	r3, [r7, #5]
  86:.\Generated_Source\PSoC5/CAN.c ****     uint8 enableInterrupts;
  87:.\Generated_Source\PSoC5/CAN.c ****     
  88:.\Generated_Source\PSoC5/CAN.c ****     enableInterrupts = CyEnterCriticalSection();
  54              		.loc 1 88 0
  55 0012 FFF7FEFF 		bl	CyEnterCriticalSection
  56 0016 0346     		mov	r3, r0
  57 0018 3B71     		strb	r3, [r7, #4]
  89:.\Generated_Source\PSoC5/CAN.c ****     
  90:.\Generated_Source\PSoC5/CAN.c ****     /* Enable CAN block in Active mode */
  91:.\Generated_Source\PSoC5/CAN.c ****     CAN_PM_ACT_CFG_REG |= CAN_ACT_PWR_EN;
  58              		.loc 1 91 0
  59 001a 44F2A633 		movw	r3, #17318
  60 001e C4F20003 		movt	r3, 16384
  61 0022 44F2A632 		movw	r2, #17318
  62 0026 C4F20002 		movt	r2, 16384
  63 002a 1278     		ldrb	r2, [r2, #0]
  64 002c D2B2     		uxtb	r2, r2
  65 002e 42F00102 		orr	r2, r2, #1
  66 0032 D2B2     		uxtb	r2, r2
  67 0034 1A70     		strb	r2, [r3, #0]
  92:.\Generated_Source\PSoC5/CAN.c ****         
  93:.\Generated_Source\PSoC5/CAN.c ****     /* Enable CAN block in Alternate Active (Standby) mode */
  94:.\Generated_Source\PSoC5/CAN.c ****     CAN_PM_STBY_CFG_REG |= CAN_STBY_PWR_EN; 
  68              		.loc 1 94 0
  69 0036 44F2B633 		movw	r3, #17334
  70 003a C4F20003 		movt	r3, 16384
  71 003e 44F2B632 		movw	r2, #17334
  72 0042 C4F20002 		movt	r2, 16384
  73 0046 1278     		ldrb	r2, [r2, #0]
  74 0048 D2B2     		uxtb	r2, r2
  75 004a 42F00102 		orr	r2, r2, #1
  76 004e D2B2     		uxtb	r2, r2
  77 0050 1A70     		strb	r2, [r3, #0]
ARM GAS  C:\Users\CHAIYA~1\AppData\Local\Temp\ccQBCuX6.s 			page 4


  95:.\Generated_Source\PSoC5/CAN.c ****     
  96:.\Generated_Source\PSoC5/CAN.c ****     CyExitCriticalSection(enableInterrupts);
  78              		.loc 1 96 0
  79 0052 3B79     		ldrb	r3, [r7, #4]	@ zero_extendqisi2
  80 0054 1846     		mov	r0, r3
  81 0056 FFF7FEFF 		bl	CyExitCriticalSection
  97:.\Generated_Source\PSoC5/CAN.c ****     
  98:.\Generated_Source\PSoC5/CAN.c ****     /* Sets the CAN controller to stop mode */
  99:.\Generated_Source\PSoC5/CAN.c ****     CAN_CMD_REG.byte[0u] &= (uint8) (~CAN_MODE_MASK);
  82              		.loc 1 99 0
  83 005a 4AF21003 		movw	r3, #40976
  84 005e C4F20003 		movt	r3, 16384
  85 0062 4AF21002 		movw	r2, #40976
  86 0066 C4F20002 		movt	r2, 16384
  87 006a 1278     		ldrb	r2, [r2, #0]
  88 006c D2B2     		uxtb	r2, r2
  89 006e 22F00102 		bic	r2, r2, #1
  90 0072 D2B2     		uxtb	r2, r2
  91 0074 1A70     		strb	r2, [r3, #0]
 100:.\Generated_Source\PSoC5/CAN.c **** 
 101:.\Generated_Source\PSoC5/CAN.c ****     /* Verify that bit is cleared */
 102:.\Generated_Source\PSoC5/CAN.c ****     if ((CAN_CMD_REG.byte[0u] & CAN_MODE_MASK) == 0u)
  92              		.loc 1 102 0
  93 0076 4AF21003 		movw	r3, #40976
  94 007a C4F20003 		movt	r3, 16384
  95 007e 1B78     		ldrb	r3, [r3, #0]
  96 0080 DBB2     		uxtb	r3, r3
  97 0082 03F00103 		and	r3, r3, #1
  98 0086 002B     		cmp	r3, #0
  99 0088 40F09980 		bne	.L2
 103:.\Generated_Source\PSoC5/CAN.c ****     {                
 104:.\Generated_Source\PSoC5/CAN.c ****         /* Disable Interrupt. */
 105:.\Generated_Source\PSoC5/CAN.c ****         CyIntDisable(CAN_ISR_NUMBER);
 100              		.loc 1 105 0
 101 008c 4EF28013 		movw	r3, #57728
 102 0090 CEF20003 		movt	r3, 57344
 103 0094 4FF48032 		mov	r2, #65536
 104 0098 1A60     		str	r2, [r3, #0]
 106:.\Generated_Source\PSoC5/CAN.c ****         
 107:.\Generated_Source\PSoC5/CAN.c ****         /* Set the ISR to point to the CAN_ISR Interrupt. */
 108:.\Generated_Source\PSoC5/CAN.c ****         (void) CyIntSetVector(CAN_ISR_NUMBER, & CAN_ISR);
 105              		.loc 1 108 0
 106 009a 4FF01000 		mov	r0, #16
 107 009e 40F20001 		movw	r1, #:lower16:CAN_ISR
 108 00a2 C0F20001 		movt	r1, #:upper16:CAN_ISR
 109 00a6 FFF7FEFF 		bl	CyIntSetVector
 109:.\Generated_Source\PSoC5/CAN.c ****         
 110:.\Generated_Source\PSoC5/CAN.c ****         /* Set the priority. */
 111:.\Generated_Source\PSoC5/CAN.c ****         CyIntSetPriority(CAN_ISR_NUMBER, CAN_ISR_PRIORITY);
 110              		.loc 1 111 0
 111 00aa 4FF01000 		mov	r0, #16
 112 00ae 4FF00701 		mov	r1, #7
 113 00b2 FFF7FEFF 		bl	CyIntSetPriority
 112:.\Generated_Source\PSoC5/CAN.c **** 
 113:.\Generated_Source\PSoC5/CAN.c ****         if (CAN_SetPreScaler(CAN_BITRATE) == CYRET_SUCCESS)
 114              		.loc 1 113 0
 115 00b6 4FF00200 		mov	r0, #2
ARM GAS  C:\Users\CHAIYA~1\AppData\Local\Temp\ccQBCuX6.s 			page 5


 116 00ba FFF7FEFF 		bl	CAN_SetPreScaler
 117 00be 0346     		mov	r3, r0
 118 00c0 002B     		cmp	r3, #0
 119 00c2 24D1     		bne	.L3
 114:.\Generated_Source\PSoC5/CAN.c ****         {
 115:.\Generated_Source\PSoC5/CAN.c ****             if (CAN_SetArbiter(CAN_ARBITER) == CYRET_SUCCESS)
 120              		.loc 1 115 0
 121 00c4 4FF00100 		mov	r0, #1
 122 00c8 FFF7FEFF 		bl	CAN_SetArbiter
 123 00cc 0346     		mov	r3, r0
 124 00ce 002B     		cmp	r3, #0
 125 00d0 1DD1     		bne	.L3
 116:.\Generated_Source\PSoC5/CAN.c ****             {
 117:.\Generated_Source\PSoC5/CAN.c ****                 if (CAN_SetTsegSample(CAN_CFG_REG_TSEG1, CAN_CFG_REG_TSEG2,
 126              		.loc 1 117 0
 127 00d2 4FF00A00 		mov	r0, #10
 128 00d6 4FF00301 		mov	r1, #3
 129 00da 4FF00002 		mov	r2, #0
 130 00de 4FF00003 		mov	r3, #0
 131 00e2 FFF7FEFF 		bl	CAN_SetTsegSample
 132 00e6 0346     		mov	r3, r0
 133 00e8 002B     		cmp	r3, #0
 134 00ea 10D1     		bne	.L3
 118:.\Generated_Source\PSoC5/CAN.c ****                     CAN_CFG_REG_SJW, CAN_SAMPLING_MODE) == CYRET_SUCCESS)
 119:.\Generated_Source\PSoC5/CAN.c ****                 {
 120:.\Generated_Source\PSoC5/CAN.c ****                     if (CAN_SetRestartType(CAN_RESET_TYPE) == CYRET_SUCCESS)
 135              		.loc 1 120 0
 136 00ec 4FF00100 		mov	r0, #1
 137 00f0 FFF7FEFF 		bl	CAN_SetRestartType
 138 00f4 0346     		mov	r3, r0
 139 00f6 002B     		cmp	r3, #0
 140 00f8 09D1     		bne	.L3
 121:.\Generated_Source\PSoC5/CAN.c ****                     {
 122:.\Generated_Source\PSoC5/CAN.c ****                         if (CAN_SetEdgeMode(CAN_SYNC_EDGE) == CYRET_SUCCESS)
 141              		.loc 1 122 0
 142 00fa 4FF00000 		mov	r0, #0
 143 00fe FFF7FEFF 		bl	CAN_SetEdgeMode
 144 0102 0346     		mov	r3, r0
 145 0104 002B     		cmp	r3, #0
 146 0106 02D1     		bne	.L3
 123:.\Generated_Source\PSoC5/CAN.c ****                         {
 124:.\Generated_Source\PSoC5/CAN.c ****                             localResult = CYRET_SUCCESS;
 147              		.loc 1 124 0
 148 0108 4FF00003 		mov	r3, #0
 149 010c 7B71     		strb	r3, [r7, #5]
 150              	.L3:
 125:.\Generated_Source\PSoC5/CAN.c ****                         }
 126:.\Generated_Source\PSoC5/CAN.c ****                     }
 127:.\Generated_Source\PSoC5/CAN.c ****                 }
 128:.\Generated_Source\PSoC5/CAN.c ****             }
 129:.\Generated_Source\PSoC5/CAN.c ****         }
 130:.\Generated_Source\PSoC5/CAN.c ****         
 131:.\Generated_Source\PSoC5/CAN.c ****         if (localResult == CYRET_SUCCESS)
 151              		.loc 1 131 0
 152 010e 7B79     		ldrb	r3, [r7, #5]	@ zero_extendqisi2
 153 0110 002B     		cmp	r3, #0
 154 0112 54D1     		bne	.L2
ARM GAS  C:\Users\CHAIYA~1\AppData\Local\Temp\ccQBCuX6.s 			page 6


 132:.\Generated_Source\PSoC5/CAN.c ****         {
 133:.\Generated_Source\PSoC5/CAN.c ****             /* Initialize TX maiboxes */
 134:.\Generated_Source\PSoC5/CAN.c ****             for (i = 0u; i < CAN_NUMBER_OF_TX_MAILBOXES; i++)
 155              		.loc 1 134 0
 156 0114 4FF00003 		mov	r3, #0
 157 0118 FB71     		strb	r3, [r7, #7]
 158 011a 19E0     		b	.L4
 159              	.L7:
 135:.\Generated_Source\PSoC5/CAN.c ****             {
 136:.\Generated_Source\PSoC5/CAN.c ****                 if (CAN_TxBufConfig((const CAN_TX_CFG *)
 137:.\Generated_Source\PSoC5/CAN.c ****                     (&CAN_TXConfigStruct[i])) != CYRET_SUCCESS)
 160              		.loc 1 137 0
 161 011c FA79     		ldrb	r2, [r7, #7]	@ zero_extendqisi2
 136:.\Generated_Source\PSoC5/CAN.c ****                 if (CAN_TxBufConfig((const CAN_TX_CFG *)
 162              		.loc 1 136 0
 163 011e 1346     		mov	r3, r2
 164 0120 4FEA4303 		lsl	r3, r3, #1
 165 0124 9B18     		adds	r3, r3, r2
 166 0126 4FEA8303 		lsl	r3, r3, #2
 167 012a 40F20002 		movw	r2, #:lower16:CAN_TXConfigStruct.4856
 168 012e C0F20002 		movt	r2, #:upper16:CAN_TXConfigStruct.4856
 169 0132 9B18     		adds	r3, r3, r2
 170 0134 1846     		mov	r0, r3
 171 0136 FFF7FEFF 		bl	CAN_TxBufConfig
 172 013a 0346     		mov	r3, r0
 173 013c 002B     		cmp	r3, #0
 174 013e 03D0     		beq	.L5
 138:.\Generated_Source\PSoC5/CAN.c ****                 {
 139:.\Generated_Source\PSoC5/CAN.c ****                     localResult = CAN_FAIL;
 175              		.loc 1 139 0
 176 0140 4FF00103 		mov	r3, #1
 177 0144 7B71     		strb	r3, [r7, #5]
 140:.\Generated_Source\PSoC5/CAN.c ****                     break;
 178              		.loc 1 140 0
 179 0146 06E0     		b	.L6
 180              	.L5:
 134:.\Generated_Source\PSoC5/CAN.c ****             for (i = 0u; i < CAN_NUMBER_OF_TX_MAILBOXES; i++)
 181              		.loc 1 134 0
 182 0148 FB79     		ldrb	r3, [r7, #7]
 183 014a 03F10103 		add	r3, r3, #1
 184 014e FB71     		strb	r3, [r7, #7]
 185              	.L4:
 134:.\Generated_Source\PSoC5/CAN.c ****             for (i = 0u; i < CAN_NUMBER_OF_TX_MAILBOXES; i++)
 186              		.loc 1 134 0 is_stmt 0 discriminator 1
 187 0150 FB79     		ldrb	r3, [r7, #7]	@ zero_extendqisi2
 188 0152 072B     		cmp	r3, #7
 189 0154 E2D9     		bls	.L7
 190              	.L6:
 141:.\Generated_Source\PSoC5/CAN.c ****                 }
 142:.\Generated_Source\PSoC5/CAN.c ****             }
 143:.\Generated_Source\PSoC5/CAN.c **** 
 144:.\Generated_Source\PSoC5/CAN.c ****             if (localResult == CYRET_SUCCESS)
 191              		.loc 1 144 0 is_stmt 1
 192 0156 7B79     		ldrb	r3, [r7, #5]	@ zero_extendqisi2
 193 0158 002B     		cmp	r3, #0
 194 015a 30D1     		bne	.L2
 145:.\Generated_Source\PSoC5/CAN.c ****             {
ARM GAS  C:\Users\CHAIYA~1\AppData\Local\Temp\ccQBCuX6.s 			page 7


 146:.\Generated_Source\PSoC5/CAN.c ****                 /* Initialize RX mailboxes */
 147:.\Generated_Source\PSoC5/CAN.c ****                 for (i = 0u; i < CAN_NUMBER_OF_RX_MAILBOXES; i++)
 195              		.loc 1 147 0
 196 015c 4FF00003 		mov	r3, #0
 197 0160 FB71     		strb	r3, [r7, #7]
 198 0162 15E0     		b	.L8
 199              	.L11:
 148:.\Generated_Source\PSoC5/CAN.c ****                 {
 149:.\Generated_Source\PSoC5/CAN.c ****                     if (CAN_RxBufConfig((const CAN_RX_CFG *)
 150:.\Generated_Source\PSoC5/CAN.c ****                         (&CAN_RXConfigStruct[i])) != CYRET_SUCCESS)
 200              		.loc 1 150 0
 201 0164 FB79     		ldrb	r3, [r7, #7]	@ zero_extendqisi2
 149:.\Generated_Source\PSoC5/CAN.c ****                     if (CAN_RxBufConfig((const CAN_RX_CFG *)
 202              		.loc 1 149 0
 203 0166 4FEA0312 		lsl	r2, r3, #4
 204 016a 40F20003 		movw	r3, #:lower16:CAN_RXConfigStruct.4855
 205 016e C0F20003 		movt	r3, #:upper16:CAN_RXConfigStruct.4855
 206 0172 D318     		adds	r3, r2, r3
 207 0174 1846     		mov	r0, r3
 208 0176 FFF7FEFF 		bl	CAN_RxBufConfig
 209 017a 0346     		mov	r3, r0
 210 017c 002B     		cmp	r3, #0
 211 017e 03D0     		beq	.L9
 151:.\Generated_Source\PSoC5/CAN.c ****                     {
 152:.\Generated_Source\PSoC5/CAN.c ****                         localResult = CAN_FAIL;
 212              		.loc 1 152 0
 213 0180 4FF00103 		mov	r3, #1
 214 0184 7B71     		strb	r3, [r7, #5]
 153:.\Generated_Source\PSoC5/CAN.c ****                         break;
 215              		.loc 1 153 0
 216 0186 06E0     		b	.L10
 217              	.L9:
 147:.\Generated_Source\PSoC5/CAN.c ****                 for (i = 0u; i < CAN_NUMBER_OF_RX_MAILBOXES; i++)
 218              		.loc 1 147 0
 219 0188 FB79     		ldrb	r3, [r7, #7]
 220 018a 03F10103 		add	r3, r3, #1
 221 018e FB71     		strb	r3, [r7, #7]
 222              	.L8:
 147:.\Generated_Source\PSoC5/CAN.c ****                 for (i = 0u; i < CAN_NUMBER_OF_RX_MAILBOXES; i++)
 223              		.loc 1 147 0 is_stmt 0 discriminator 1
 224 0190 FB79     		ldrb	r3, [r7, #7]	@ zero_extendqisi2
 225 0192 0F2B     		cmp	r3, #15
 226 0194 E6D9     		bls	.L11
 227              	.L10:
 154:.\Generated_Source\PSoC5/CAN.c ****                     }
 155:.\Generated_Source\PSoC5/CAN.c ****                 }
 156:.\Generated_Source\PSoC5/CAN.c **** 
 157:.\Generated_Source\PSoC5/CAN.c ****                 if (localResult == CYRET_SUCCESS)
 228              		.loc 1 157 0 is_stmt 1
 229 0196 7B79     		ldrb	r3, [r7, #5]	@ zero_extendqisi2
 230 0198 002B     		cmp	r3, #0
 231 019a 10D1     		bne	.L2
 158:.\Generated_Source\PSoC5/CAN.c ****                 {
 159:.\Generated_Source\PSoC5/CAN.c ****                     /* Write IRQ Mask */
 160:.\Generated_Source\PSoC5/CAN.c ****                     if (CAN_SetIrqMask(CAN_INIT_INTERRUPT_MASK) ==
 232              		.loc 1 160 0
 233 019c 41F60120 		movw	r0, #6657
ARM GAS  C:\Users\CHAIYA~1\AppData\Local\Temp\ccQBCuX6.s 			page 8


 234 01a0 FFF7FEFF 		bl	CAN_SetIrqMask
 235 01a4 0346     		mov	r3, r0
 236 01a6 002B     		cmp	r3, #0
 237 01a8 09D1     		bne	.L2
 161:.\Generated_Source\PSoC5/CAN.c ****                         CYRET_SUCCESS)
 162:.\Generated_Source\PSoC5/CAN.c ****                     {
 163:.\Generated_Source\PSoC5/CAN.c ****                         /* Active mode always */
 164:.\Generated_Source\PSoC5/CAN.c ****                         if (CAN_SetOpMode(CAN_ACTIVE_MODE) == CYRET_SUCCESS)
 238              		.loc 1 164 0
 239 01aa 4FF00000 		mov	r0, #0
 240 01ae FFF7FEFF 		bl	CAN_SetOpMode
 241 01b2 0346     		mov	r3, r0
 242 01b4 002B     		cmp	r3, #0
 243 01b6 02D1     		bne	.L2
 165:.\Generated_Source\PSoC5/CAN.c ****                         {
 166:.\Generated_Source\PSoC5/CAN.c ****                             result = CYRET_SUCCESS;
 244              		.loc 1 166 0
 245 01b8 4FF00003 		mov	r3, #0
 246 01bc BB71     		strb	r3, [r7, #6]
 247              	.L2:
 167:.\Generated_Source\PSoC5/CAN.c ****                         }
 168:.\Generated_Source\PSoC5/CAN.c ****                     }
 169:.\Generated_Source\PSoC5/CAN.c ****                 }
 170:.\Generated_Source\PSoC5/CAN.c ****             }
 171:.\Generated_Source\PSoC5/CAN.c ****         }
 172:.\Generated_Source\PSoC5/CAN.c ****                             
 173:.\Generated_Source\PSoC5/CAN.c ****     }
 174:.\Generated_Source\PSoC5/CAN.c **** 
 175:.\Generated_Source\PSoC5/CAN.c ****     return (result);
 248              		.loc 1 175 0
 249 01be BB79     		ldrb	r3, [r7, #6]	@ zero_extendqisi2
 176:.\Generated_Source\PSoC5/CAN.c **** }
 250              		.loc 1 176 0
 251 01c0 1846     		mov	r0, r3
 252 01c2 07F10807 		add	r7, r7, #8
 253 01c6 BD46     		mov	sp, r7
 254 01c8 80BD     		pop	{r7, pc}
 255              		.cfi_endproc
 256              	.LFE0:
 257              		.size	CAN_Init, .-CAN_Init
 258 01ca 00BF     		.section	.text.CAN_Enable,"ax",%progbits
 259              		.align	2
 260              		.global	CAN_Enable
 261              		.thumb
 262              		.thumb_func
 263              		.type	CAN_Enable, %function
 264              	CAN_Enable:
 265              	.LFB1:
 177:.\Generated_Source\PSoC5/CAN.c **** 
 178:.\Generated_Source\PSoC5/CAN.c **** 
 179:.\Generated_Source\PSoC5/CAN.c **** /*******************************************************************************
 180:.\Generated_Source\PSoC5/CAN.c **** * Function Name: CAN_Enable
 181:.\Generated_Source\PSoC5/CAN.c **** ********************************************************************************
 182:.\Generated_Source\PSoC5/CAN.c **** *
 183:.\Generated_Source\PSoC5/CAN.c **** * Summary:   
 184:.\Generated_Source\PSoC5/CAN.c **** *  This function enable CAN Component and ISR of CAN Component. 
 185:.\Generated_Source\PSoC5/CAN.c **** *
ARM GAS  C:\Users\CHAIYA~1\AppData\Local\Temp\ccQBCuX6.s 			page 9


 186:.\Generated_Source\PSoC5/CAN.c **** * Parameters:  
 187:.\Generated_Source\PSoC5/CAN.c **** *  None.
 188:.\Generated_Source\PSoC5/CAN.c **** *
 189:.\Generated_Source\PSoC5/CAN.c **** * Return: 
 190:.\Generated_Source\PSoC5/CAN.c **** *  Indication whether register is written and verified.
 191:.\Generated_Source\PSoC5/CAN.c **** *   Define                             Description
 192:.\Generated_Source\PSoC5/CAN.c **** *    CYRET_SUCCESS                      Function passed successfully
 193:.\Generated_Source\PSoC5/CAN.c **** *    CAN_FAIL              Function failed
 194:.\Generated_Source\PSoC5/CAN.c **** *
 195:.\Generated_Source\PSoC5/CAN.c **** *******************************************************************************/
 196:.\Generated_Source\PSoC5/CAN.c **** uint8 CAN_Enable(void) 
 197:.\Generated_Source\PSoC5/CAN.c **** {
 266              		.loc 1 197 0
 267              		.cfi_startproc
 268              		@ args = 0, pretend = 0, frame = 8
 269              		@ frame_needed = 1, uses_anonymous_args = 0
 270 0000 80B5     		push	{r7, lr}
 271              	.LCFI3:
 272              		.cfi_def_cfa_offset 8
 273              		.cfi_offset 7, -8
 274              		.cfi_offset 14, -4
 275 0002 82B0     		sub	sp, sp, #8
 276              	.LCFI4:
 277              		.cfi_def_cfa_offset 16
 278 0004 00AF     		add	r7, sp, #0
 279              	.LCFI5:
 280              		.cfi_def_cfa_register 7
 198:.\Generated_Source\PSoC5/CAN.c ****     uint8 result = CAN_FAIL;
 281              		.loc 1 198 0
 282 0006 4FF00103 		mov	r3, #1
 283 000a FB71     		strb	r3, [r7, #7]
 199:.\Generated_Source\PSoC5/CAN.c ****     uint8 enableInterrupts;
 200:.\Generated_Source\PSoC5/CAN.c ****     
 201:.\Generated_Source\PSoC5/CAN.c ****     enableInterrupts = CyEnterCriticalSection();
 284              		.loc 1 201 0
 285 000c FFF7FEFF 		bl	CyEnterCriticalSection
 286 0010 0346     		mov	r3, r0
 287 0012 BB71     		strb	r3, [r7, #6]
 202:.\Generated_Source\PSoC5/CAN.c ****     
 203:.\Generated_Source\PSoC5/CAN.c ****     /* Enable CAN block in Active mode */
 204:.\Generated_Source\PSoC5/CAN.c ****     CAN_PM_ACT_CFG_REG |= CAN_ACT_PWR_EN;
 288              		.loc 1 204 0
 289 0014 44F2A633 		movw	r3, #17318
 290 0018 C4F20003 		movt	r3, 16384
 291 001c 44F2A632 		movw	r2, #17318
 292 0020 C4F20002 		movt	r2, 16384
 293 0024 1278     		ldrb	r2, [r2, #0]
 294 0026 D2B2     		uxtb	r2, r2
 295 0028 42F00102 		orr	r2, r2, #1
 296 002c D2B2     		uxtb	r2, r2
 297 002e 1A70     		strb	r2, [r3, #0]
 205:.\Generated_Source\PSoC5/CAN.c **** 
 206:.\Generated_Source\PSoC5/CAN.c ****     /* Enable CAN block in Alternate Active (Standby) mode */
 207:.\Generated_Source\PSoC5/CAN.c ****     CAN_PM_STBY_CFG_REG |= CAN_STBY_PWR_EN;
 298              		.loc 1 207 0
 299 0030 44F2B633 		movw	r3, #17334
 300 0034 C4F20003 		movt	r3, 16384
ARM GAS  C:\Users\CHAIYA~1\AppData\Local\Temp\ccQBCuX6.s 			page 10


 301 0038 44F2B632 		movw	r2, #17334
 302 003c C4F20002 		movt	r2, 16384
 303 0040 1278     		ldrb	r2, [r2, #0]
 304 0042 D2B2     		uxtb	r2, r2
 305 0044 42F00102 		orr	r2, r2, #1
 306 0048 D2B2     		uxtb	r2, r2
 307 004a 1A70     		strb	r2, [r3, #0]
 208:.\Generated_Source\PSoC5/CAN.c ****     
 209:.\Generated_Source\PSoC5/CAN.c ****     CyExitCriticalSection(enableInterrupts);
 308              		.loc 1 209 0
 309 004c BB79     		ldrb	r3, [r7, #6]	@ zero_extendqisi2
 310 004e 1846     		mov	r0, r3
 311 0050 FFF7FEFF 		bl	CyExitCriticalSection
 210:.\Generated_Source\PSoC5/CAN.c ****     
 211:.\Generated_Source\PSoC5/CAN.c ****     /* Enable isr */
 212:.\Generated_Source\PSoC5/CAN.c ****     CyIntEnable(CAN_ISR_NUMBER);
 312              		.loc 1 212 0
 313 0054 4FF46143 		mov	r3, #57600
 314 0058 CEF20003 		movt	r3, 57344
 315 005c 4FF48032 		mov	r2, #65536
 316 0060 1A60     		str	r2, [r3, #0]
 213:.\Generated_Source\PSoC5/CAN.c **** 
 214:.\Generated_Source\PSoC5/CAN.c **** 
 215:.\Generated_Source\PSoC5/CAN.c ****     /* Sets the CAN controller to run mode */
 216:.\Generated_Source\PSoC5/CAN.c ****     CY_SET_REG32(CAN_CMD_PTR, (CY_GET_REG32(CAN_CMD_PTR) | CAN_MODE_MASK));
 317              		.loc 1 216 0
 318 0062 4AF21003 		movw	r3, #40976
 319 0066 C4F20003 		movt	r3, 16384
 320 006a 4AF21002 		movw	r2, #40976
 321 006e C4F20002 		movt	r2, 16384
 322 0072 1268     		ldr	r2, [r2, #0]
 323 0074 42F00102 		orr	r2, r2, #1
 324 0078 1A60     		str	r2, [r3, #0]
 217:.\Generated_Source\PSoC5/CAN.c ****     
 218:.\Generated_Source\PSoC5/CAN.c ****     /* Verify that bit is set */
 219:.\Generated_Source\PSoC5/CAN.c ****     if (0u != (CY_GET_REG32(CAN_CMD_PTR) & CAN_MODE_MASK))
 325              		.loc 1 219 0
 326 007a 4AF21003 		movw	r3, #40976
 327 007e C4F20003 		movt	r3, 16384
 328 0082 1B68     		ldr	r3, [r3, #0]
 329 0084 03F00103 		and	r3, r3, #1
 330 0088 002B     		cmp	r3, #0
 331 008a 02D0     		beq	.L14
 220:.\Generated_Source\PSoC5/CAN.c ****     {
 221:.\Generated_Source\PSoC5/CAN.c ****         result = CYRET_SUCCESS;
 332              		.loc 1 221 0
 333 008c 4FF00003 		mov	r3, #0
 334 0090 FB71     		strb	r3, [r7, #7]
 335              	.L14:
 222:.\Generated_Source\PSoC5/CAN.c ****     }
 223:.\Generated_Source\PSoC5/CAN.c ****     
 224:.\Generated_Source\PSoC5/CAN.c ****     return (result);
 336              		.loc 1 224 0
 337 0092 FB79     		ldrb	r3, [r7, #7]	@ zero_extendqisi2
 225:.\Generated_Source\PSoC5/CAN.c **** }
 338              		.loc 1 225 0
 339 0094 1846     		mov	r0, r3
ARM GAS  C:\Users\CHAIYA~1\AppData\Local\Temp\ccQBCuX6.s 			page 11


 340 0096 07F10807 		add	r7, r7, #8
 341 009a BD46     		mov	sp, r7
 342 009c 80BD     		pop	{r7, pc}
 343              		.cfi_endproc
 344              	.LFE1:
 345              		.size	CAN_Enable, .-CAN_Enable
 346 009e 00BF     		.section	.text.CAN_Start,"ax",%progbits
 347              		.align	2
 348              		.global	CAN_Start
 349              		.thumb
 350              		.thumb_func
 351              		.type	CAN_Start, %function
 352              	CAN_Start:
 353              	.LFB2:
 226:.\Generated_Source\PSoC5/CAN.c **** 
 227:.\Generated_Source\PSoC5/CAN.c **** 
 228:.\Generated_Source\PSoC5/CAN.c **** /*******************************************************************************
 229:.\Generated_Source\PSoC5/CAN.c **** * FUNCTION NAME:   CAN_Start
 230:.\Generated_Source\PSoC5/CAN.c **** ********************************************************************************
 231:.\Generated_Source\PSoC5/CAN.c **** *
 232:.\Generated_Source\PSoC5/CAN.c **** * Summary:
 233:.\Generated_Source\PSoC5/CAN.c **** *  This function sets CAN Component into Run mode. Starts the Rate Counter if
 234:.\Generated_Source\PSoC5/CAN.c **** *  polling mailboxes available.
 235:.\Generated_Source\PSoC5/CAN.c **** *
 236:.\Generated_Source\PSoC5/CAN.c **** * Parameters:
 237:.\Generated_Source\PSoC5/CAN.c **** *  None. 
 238:.\Generated_Source\PSoC5/CAN.c **** *
 239:.\Generated_Source\PSoC5/CAN.c **** * Return:
 240:.\Generated_Source\PSoC5/CAN.c **** *  Indication whether register is written and verified.
 241:.\Generated_Source\PSoC5/CAN.c **** *   Define                             Description
 242:.\Generated_Source\PSoC5/CAN.c **** *    CYRET_SUCCESS                      Function passed successfully
 243:.\Generated_Source\PSoC5/CAN.c **** *    CAN_FAIL              Function failed
 244:.\Generated_Source\PSoC5/CAN.c **** *
 245:.\Generated_Source\PSoC5/CAN.c **** * Global variables:
 246:.\Generated_Source\PSoC5/CAN.c **** *  CAN_initVar - used to check initial configuration, modified on
 247:.\Generated_Source\PSoC5/CAN.c **** *  first function call.
 248:.\Generated_Source\PSoC5/CAN.c **** *
 249:.\Generated_Source\PSoC5/CAN.c **** * Reentrant:
 250:.\Generated_Source\PSoC5/CAN.c **** *  No.
 251:.\Generated_Source\PSoC5/CAN.c **** *
 252:.\Generated_Source\PSoC5/CAN.c **** *******************************************************************************/
 253:.\Generated_Source\PSoC5/CAN.c **** uint8 CAN_Start(void) 
 254:.\Generated_Source\PSoC5/CAN.c **** {
 354              		.loc 1 254 0
 355              		.cfi_startproc
 356              		@ args = 0, pretend = 0, frame = 8
 357              		@ frame_needed = 1, uses_anonymous_args = 0
 358 0000 80B5     		push	{r7, lr}
 359              	.LCFI6:
 360              		.cfi_def_cfa_offset 8
 361              		.cfi_offset 7, -8
 362              		.cfi_offset 14, -4
 363 0002 82B0     		sub	sp, sp, #8
 364              	.LCFI7:
 365              		.cfi_def_cfa_offset 16
 366 0004 00AF     		add	r7, sp, #0
 367              	.LCFI8:
ARM GAS  C:\Users\CHAIYA~1\AppData\Local\Temp\ccQBCuX6.s 			page 12


 368              		.cfi_def_cfa_register 7
 255:.\Generated_Source\PSoC5/CAN.c ****     uint8 result = CYRET_SUCCESS;
 369              		.loc 1 255 0
 370 0006 4FF00003 		mov	r3, #0
 371 000a FB71     		strb	r3, [r7, #7]
 256:.\Generated_Source\PSoC5/CAN.c ****     
 257:.\Generated_Source\PSoC5/CAN.c ****     if (CAN_initVar == 0u)
 372              		.loc 1 257 0
 373 000c 40F20003 		movw	r3, #:lower16:CAN_initVar
 374 0010 C0F20003 		movt	r3, #:upper16:CAN_initVar
 375 0014 1B78     		ldrb	r3, [r3, #0]	@ zero_extendqisi2
 376 0016 002B     		cmp	r3, #0
 377 0018 0AD1     		bne	.L17
 258:.\Generated_Source\PSoC5/CAN.c ****     {
 259:.\Generated_Source\PSoC5/CAN.c ****         result = CAN_Init();
 378              		.loc 1 259 0
 379 001a FFF7FEFF 		bl	CAN_Init
 380 001e 0346     		mov	r3, r0
 381 0020 FB71     		strb	r3, [r7, #7]
 260:.\Generated_Source\PSoC5/CAN.c ****         CAN_initVar = 1u;        
 382              		.loc 1 260 0
 383 0022 40F20003 		movw	r3, #:lower16:CAN_initVar
 384 0026 C0F20003 		movt	r3, #:upper16:CAN_initVar
 385 002a 4FF00102 		mov	r2, #1
 386 002e 1A70     		strb	r2, [r3, #0]
 387              	.L17:
 261:.\Generated_Source\PSoC5/CAN.c ****     }
 262:.\Generated_Source\PSoC5/CAN.c ****     
 263:.\Generated_Source\PSoC5/CAN.c ****     if (result == CYRET_SUCCESS)
 388              		.loc 1 263 0
 389 0030 FB79     		ldrb	r3, [r7, #7]	@ zero_extendqisi2
 390 0032 002B     		cmp	r3, #0
 391 0034 03D1     		bne	.L18
 264:.\Generated_Source\PSoC5/CAN.c ****     {
 265:.\Generated_Source\PSoC5/CAN.c ****         result = CAN_Enable();
 392              		.loc 1 265 0
 393 0036 FFF7FEFF 		bl	CAN_Enable
 394 003a 0346     		mov	r3, r0
 395 003c FB71     		strb	r3, [r7, #7]
 396              	.L18:
 266:.\Generated_Source\PSoC5/CAN.c ****     }
 267:.\Generated_Source\PSoC5/CAN.c **** 
 268:.\Generated_Source\PSoC5/CAN.c ****     return (result);
 397              		.loc 1 268 0
 398 003e FB79     		ldrb	r3, [r7, #7]	@ zero_extendqisi2
 269:.\Generated_Source\PSoC5/CAN.c **** }
 399              		.loc 1 269 0
 400 0040 1846     		mov	r0, r3
 401 0042 07F10807 		add	r7, r7, #8
 402 0046 BD46     		mov	sp, r7
 403 0048 80BD     		pop	{r7, pc}
 404              		.cfi_endproc
 405              	.LFE2:
 406              		.size	CAN_Start, .-CAN_Start
 407 004a 00BF     		.section	.text.CAN_Stop,"ax",%progbits
 408              		.align	2
 409              		.global	CAN_Stop
ARM GAS  C:\Users\CHAIYA~1\AppData\Local\Temp\ccQBCuX6.s 			page 13


 410              		.thumb
 411              		.thumb_func
 412              		.type	CAN_Stop, %function
 413              	CAN_Stop:
 414              	.LFB3:
 270:.\Generated_Source\PSoC5/CAN.c **** 
 271:.\Generated_Source\PSoC5/CAN.c **** 
 272:.\Generated_Source\PSoC5/CAN.c **** /*******************************************************************************
 273:.\Generated_Source\PSoC5/CAN.c **** * FUNCTION NAME:   CAN_Stop
 274:.\Generated_Source\PSoC5/CAN.c **** ********************************************************************************
 275:.\Generated_Source\PSoC5/CAN.c **** *
 276:.\Generated_Source\PSoC5/CAN.c **** * Summary:
 277:.\Generated_Source\PSoC5/CAN.c **** *  This function sets CAN Component into Stop mode.
 278:.\Generated_Source\PSoC5/CAN.c **** *
 279:.\Generated_Source\PSoC5/CAN.c **** * Parameters:
 280:.\Generated_Source\PSoC5/CAN.c **** *  None.
 281:.\Generated_Source\PSoC5/CAN.c **** *
 282:.\Generated_Source\PSoC5/CAN.c **** * Return:
 283:.\Generated_Source\PSoC5/CAN.c **** *  Indication whether register is written and verified.
 284:.\Generated_Source\PSoC5/CAN.c **** *   Define                             Description
 285:.\Generated_Source\PSoC5/CAN.c **** *    CYRET_SUCCESS                      Function passed successfully
 286:.\Generated_Source\PSoC5/CAN.c **** *    CAN_FAIL              Function failed
 287:.\Generated_Source\PSoC5/CAN.c **** *
 288:.\Generated_Source\PSoC5/CAN.c **** * Side Effects:
 289:.\Generated_Source\PSoC5/CAN.c **** *  Disable power to the CAN Core.
 290:.\Generated_Source\PSoC5/CAN.c **** *
 291:.\Generated_Source\PSoC5/CAN.c **** *******************************************************************************/
 292:.\Generated_Source\PSoC5/CAN.c **** uint8 CAN_Stop(void) 
 293:.\Generated_Source\PSoC5/CAN.c **** {
 415              		.loc 1 293 0
 416              		.cfi_startproc
 417              		@ args = 0, pretend = 0, frame = 8
 418              		@ frame_needed = 1, uses_anonymous_args = 0
 419 0000 80B5     		push	{r7, lr}
 420              	.LCFI9:
 421              		.cfi_def_cfa_offset 8
 422              		.cfi_offset 7, -8
 423              		.cfi_offset 14, -4
 424 0002 82B0     		sub	sp, sp, #8
 425              	.LCFI10:
 426              		.cfi_def_cfa_offset 16
 427 0004 00AF     		add	r7, sp, #0
 428              	.LCFI11:
 429              		.cfi_def_cfa_register 7
 294:.\Generated_Source\PSoC5/CAN.c ****     uint8 result = CAN_FAIL;
 430              		.loc 1 294 0
 431 0006 4FF00103 		mov	r3, #1
 432 000a FB71     		strb	r3, [r7, #7]
 295:.\Generated_Source\PSoC5/CAN.c ****     uint8 enableInterrupts;        
 296:.\Generated_Source\PSoC5/CAN.c ****     
 297:.\Generated_Source\PSoC5/CAN.c ****     /* Sets the CAN controller to stop mode */
 298:.\Generated_Source\PSoC5/CAN.c ****     CY_SET_REG32(CAN_CMD_PTR, (CY_GET_REG32(CAN_CMD_PTR) & 
 433              		.loc 1 298 0
 434 000c 4AF21003 		movw	r3, #40976
 435 0010 C4F20003 		movt	r3, 16384
 436 0014 4AF21002 		movw	r2, #40976
 437 0018 C4F20002 		movt	r2, 16384
ARM GAS  C:\Users\CHAIYA~1\AppData\Local\Temp\ccQBCuX6.s 			page 14


 438 001c 1268     		ldr	r2, [r2, #0]
 439 001e 02F0FE02 		and	r2, r2, #254
 440 0022 1A60     		str	r2, [r3, #0]
 299:.\Generated_Source\PSoC5/CAN.c ****                                             ((uint8) (~CAN_MODE_MASK))));
 300:.\Generated_Source\PSoC5/CAN.c **** 
 301:.\Generated_Source\PSoC5/CAN.c ****     /* Verify that bit is cleared */
 302:.\Generated_Source\PSoC5/CAN.c ****     if (0u == (CY_GET_REG32(CAN_CMD_PTR) & CAN_MODE_MASK))
 441              		.loc 1 302 0
 442 0024 4AF21003 		movw	r3, #40976
 443 0028 C4F20003 		movt	r3, 16384
 444 002c 1B68     		ldr	r3, [r3, #0]
 445 002e 03F00103 		and	r3, r3, #1
 446 0032 002B     		cmp	r3, #0
 447 0034 02D1     		bne	.L21
 303:.\Generated_Source\PSoC5/CAN.c ****     {
 304:.\Generated_Source\PSoC5/CAN.c ****         result = CYRET_SUCCESS;
 448              		.loc 1 304 0
 449 0036 4FF00003 		mov	r3, #0
 450 003a FB71     		strb	r3, [r7, #7]
 451              	.L21:
 305:.\Generated_Source\PSoC5/CAN.c ****     }
 306:.\Generated_Source\PSoC5/CAN.c ****     
 307:.\Generated_Source\PSoC5/CAN.c ****     /* Disable isr */
 308:.\Generated_Source\PSoC5/CAN.c ****     CyIntDisable(CAN_ISR_NUMBER);
 452              		.loc 1 308 0
 453 003c 4EF28013 		movw	r3, #57728
 454 0040 CEF20003 		movt	r3, 57344
 455 0044 4FF48032 		mov	r2, #65536
 456 0048 1A60     		str	r2, [r3, #0]
 309:.\Generated_Source\PSoC5/CAN.c **** 
 310:.\Generated_Source\PSoC5/CAN.c ****     enableInterrupts = CyEnterCriticalSection(); 
 457              		.loc 1 310 0
 458 004a FFF7FEFF 		bl	CyEnterCriticalSection
 459 004e 0346     		mov	r3, r0
 460 0050 BB71     		strb	r3, [r7, #6]
 311:.\Generated_Source\PSoC5/CAN.c **** 
 312:.\Generated_Source\PSoC5/CAN.c ****     /* Disable CAN block in Active mode */
 313:.\Generated_Source\PSoC5/CAN.c ****     CAN_PM_ACT_CFG_REG &= (uint8) (~CAN_ACT_PWR_EN);
 461              		.loc 1 313 0
 462 0052 44F2A633 		movw	r3, #17318
 463 0056 C4F20003 		movt	r3, 16384
 464 005a 44F2A632 		movw	r2, #17318
 465 005e C4F20002 		movt	r2, 16384
 466 0062 1278     		ldrb	r2, [r2, #0]
 467 0064 D2B2     		uxtb	r2, r2
 468 0066 22F00102 		bic	r2, r2, #1
 469 006a D2B2     		uxtb	r2, r2
 470 006c 1A70     		strb	r2, [r3, #0]
 314:.\Generated_Source\PSoC5/CAN.c **** 
 315:.\Generated_Source\PSoC5/CAN.c ****     /* Disable CAN block in Alternate Active (Standby) mode template */
 316:.\Generated_Source\PSoC5/CAN.c ****     CAN_PM_STBY_CFG_REG &= (uint8) (~CAN_STBY_PWR_EN);
 471              		.loc 1 316 0
 472 006e 44F2B633 		movw	r3, #17334
 473 0072 C4F20003 		movt	r3, 16384
 474 0076 44F2B632 		movw	r2, #17334
 475 007a C4F20002 		movt	r2, 16384
 476 007e 1278     		ldrb	r2, [r2, #0]
ARM GAS  C:\Users\CHAIYA~1\AppData\Local\Temp\ccQBCuX6.s 			page 15


 477 0080 D2B2     		uxtb	r2, r2
 478 0082 22F00102 		bic	r2, r2, #1
 479 0086 D2B2     		uxtb	r2, r2
 480 0088 1A70     		strb	r2, [r3, #0]
 317:.\Generated_Source\PSoC5/CAN.c ****     
 318:.\Generated_Source\PSoC5/CAN.c ****     CyExitCriticalSection(enableInterrupts);
 481              		.loc 1 318 0
 482 008a BB79     		ldrb	r3, [r7, #6]	@ zero_extendqisi2
 483 008c 1846     		mov	r0, r3
 484 008e FFF7FEFF 		bl	CyExitCriticalSection
 319:.\Generated_Source\PSoC5/CAN.c **** 
 320:.\Generated_Source\PSoC5/CAN.c ****     return (result);
 485              		.loc 1 320 0
 486 0092 FB79     		ldrb	r3, [r7, #7]	@ zero_extendqisi2
 321:.\Generated_Source\PSoC5/CAN.c **** }
 487              		.loc 1 321 0
 488 0094 1846     		mov	r0, r3
 489 0096 07F10807 		add	r7, r7, #8
 490 009a BD46     		mov	sp, r7
 491 009c 80BD     		pop	{r7, pc}
 492              		.cfi_endproc
 493              	.LFE3:
 494              		.size	CAN_Stop, .-CAN_Stop
 495 009e 00BF     		.section	.text.CAN_GlobalIntEnable,"ax",%progbits
 496              		.align	2
 497              		.global	CAN_GlobalIntEnable
 498              		.thumb
 499              		.thumb_func
 500              		.type	CAN_GlobalIntEnable, %function
 501              	CAN_GlobalIntEnable:
 502              	.LFB4:
 322:.\Generated_Source\PSoC5/CAN.c **** 
 323:.\Generated_Source\PSoC5/CAN.c **** 
 324:.\Generated_Source\PSoC5/CAN.c **** /*******************************************************************************
 325:.\Generated_Source\PSoC5/CAN.c **** * FUNCTION NAME:   CAN_GlobalIntEnable
 326:.\Generated_Source\PSoC5/CAN.c **** ********************************************************************************
 327:.\Generated_Source\PSoC5/CAN.c **** *
 328:.\Generated_Source\PSoC5/CAN.c **** * Summary:
 329:.\Generated_Source\PSoC5/CAN.c **** *  This function enables Global Interrupts from CAN Core.
 330:.\Generated_Source\PSoC5/CAN.c **** *
 331:.\Generated_Source\PSoC5/CAN.c **** * Parameters:
 332:.\Generated_Source\PSoC5/CAN.c **** *  None.
 333:.\Generated_Source\PSoC5/CAN.c **** *
 334:.\Generated_Source\PSoC5/CAN.c **** * Return:
 335:.\Generated_Source\PSoC5/CAN.c **** *  Indication whether register is written and verified.
 336:.\Generated_Source\PSoC5/CAN.c **** *   Define                             Description
 337:.\Generated_Source\PSoC5/CAN.c **** *    CYRET_SUCCESS                      Function passed successfully
 338:.\Generated_Source\PSoC5/CAN.c **** *    CAN_FAIL              Function failed
 339:.\Generated_Source\PSoC5/CAN.c **** *
 340:.\Generated_Source\PSoC5/CAN.c **** *******************************************************************************/
 341:.\Generated_Source\PSoC5/CAN.c **** uint8 CAN_GlobalIntEnable(void) 
 342:.\Generated_Source\PSoC5/CAN.c **** {
 503              		.loc 1 342 0
 504              		.cfi_startproc
 505              		@ args = 0, pretend = 0, frame = 8
 506              		@ frame_needed = 1, uses_anonymous_args = 0
 507              		@ link register save eliminated.
ARM GAS  C:\Users\CHAIYA~1\AppData\Local\Temp\ccQBCuX6.s 			page 16


 508 0000 80B4     		push	{r7}
 509              	.LCFI12:
 510              		.cfi_def_cfa_offset 4
 511              		.cfi_offset 7, -4
 512 0002 83B0     		sub	sp, sp, #12
 513              	.LCFI13:
 514              		.cfi_def_cfa_offset 16
 515 0004 00AF     		add	r7, sp, #0
 516              	.LCFI14:
 517              		.cfi_def_cfa_register 7
 343:.\Generated_Source\PSoC5/CAN.c ****     uint8 result = CAN_FAIL;
 518              		.loc 1 343 0
 519 0006 4FF00103 		mov	r3, #1
 520 000a FB71     		strb	r3, [r7, #7]
 344:.\Generated_Source\PSoC5/CAN.c **** 
 345:.\Generated_Source\PSoC5/CAN.c ****     CAN_INT_EN_REG.byte[0u] |= CAN_GLOBAL_INT_MASK;
 521              		.loc 1 345 0
 522 000c 4AF20403 		movw	r3, #40964
 523 0010 C4F20003 		movt	r3, 16384
 524 0014 4AF20402 		movw	r2, #40964
 525 0018 C4F20002 		movt	r2, 16384
 526 001c 1278     		ldrb	r2, [r2, #0]
 527 001e D2B2     		uxtb	r2, r2
 528 0020 42F00102 		orr	r2, r2, #1
 529 0024 D2B2     		uxtb	r2, r2
 530 0026 1A70     		strb	r2, [r3, #0]
 346:.\Generated_Source\PSoC5/CAN.c **** 
 347:.\Generated_Source\PSoC5/CAN.c ****     /* Verify that bit is set */
 348:.\Generated_Source\PSoC5/CAN.c ****     if ((CAN_INT_EN_REG.byte[0u] & CAN_GLOBAL_INT_MASK) == CAN_GLOBAL_INT_MASK)
 531              		.loc 1 348 0
 532 0028 4AF20403 		movw	r3, #40964
 533 002c C4F20003 		movt	r3, 16384
 534 0030 1B78     		ldrb	r3, [r3, #0]
 535 0032 DBB2     		uxtb	r3, r3
 536 0034 03F00103 		and	r3, r3, #1
 537 0038 002B     		cmp	r3, #0
 538 003a 02D0     		beq	.L24
 349:.\Generated_Source\PSoC5/CAN.c ****     {
 350:.\Generated_Source\PSoC5/CAN.c ****         result = CYRET_SUCCESS;
 539              		.loc 1 350 0
 540 003c 4FF00003 		mov	r3, #0
 541 0040 FB71     		strb	r3, [r7, #7]
 542              	.L24:
 351:.\Generated_Source\PSoC5/CAN.c ****     }
 352:.\Generated_Source\PSoC5/CAN.c **** 
 353:.\Generated_Source\PSoC5/CAN.c ****     return (result);
 543              		.loc 1 353 0
 544 0042 FB79     		ldrb	r3, [r7, #7]	@ zero_extendqisi2
 354:.\Generated_Source\PSoC5/CAN.c **** }
 545              		.loc 1 354 0
 546 0044 1846     		mov	r0, r3
 547 0046 07F10C07 		add	r7, r7, #12
 548 004a BD46     		mov	sp, r7
 549 004c 80BC     		pop	{r7}
 550 004e 7047     		bx	lr
 551              		.cfi_endproc
 552              	.LFE4:
ARM GAS  C:\Users\CHAIYA~1\AppData\Local\Temp\ccQBCuX6.s 			page 17


 553              		.size	CAN_GlobalIntEnable, .-CAN_GlobalIntEnable
 554              		.section	.text.CAN_GlobalIntDisable,"ax",%progbits
 555              		.align	2
 556              		.global	CAN_GlobalIntDisable
 557              		.thumb
 558              		.thumb_func
 559              		.type	CAN_GlobalIntDisable, %function
 560              	CAN_GlobalIntDisable:
 561              	.LFB5:
 355:.\Generated_Source\PSoC5/CAN.c **** 
 356:.\Generated_Source\PSoC5/CAN.c **** 
 357:.\Generated_Source\PSoC5/CAN.c **** /*******************************************************************************
 358:.\Generated_Source\PSoC5/CAN.c **** * FUNCTION NAME:   CAN_GlobalIntDisable
 359:.\Generated_Source\PSoC5/CAN.c **** ********************************************************************************
 360:.\Generated_Source\PSoC5/CAN.c **** *
 361:.\Generated_Source\PSoC5/CAN.c **** * Summary:
 362:.\Generated_Source\PSoC5/CAN.c **** *  This function disables Global Interrupts from CAN Core.
 363:.\Generated_Source\PSoC5/CAN.c **** *
 364:.\Generated_Source\PSoC5/CAN.c **** * Parameters:
 365:.\Generated_Source\PSoC5/CAN.c **** *  None.
 366:.\Generated_Source\PSoC5/CAN.c **** *
 367:.\Generated_Source\PSoC5/CAN.c **** * Return:
 368:.\Generated_Source\PSoC5/CAN.c **** *  Indication whether register is written and verified.
 369:.\Generated_Source\PSoC5/CAN.c **** *   Define                             Description
 370:.\Generated_Source\PSoC5/CAN.c **** *    CYRET_SUCCESS                      Function passed successfully
 371:.\Generated_Source\PSoC5/CAN.c **** *    CAN_FAIL              Function failed
 372:.\Generated_Source\PSoC5/CAN.c **** *
 373:.\Generated_Source\PSoC5/CAN.c **** *******************************************************************************/
 374:.\Generated_Source\PSoC5/CAN.c **** uint8 CAN_GlobalIntDisable(void) 
 375:.\Generated_Source\PSoC5/CAN.c **** {
 562              		.loc 1 375 0
 563              		.cfi_startproc
 564              		@ args = 0, pretend = 0, frame = 8
 565              		@ frame_needed = 1, uses_anonymous_args = 0
 566              		@ link register save eliminated.
 567 0000 80B4     		push	{r7}
 568              	.LCFI15:
 569              		.cfi_def_cfa_offset 4
 570              		.cfi_offset 7, -4
 571 0002 83B0     		sub	sp, sp, #12
 572              	.LCFI16:
 573              		.cfi_def_cfa_offset 16
 574 0004 00AF     		add	r7, sp, #0
 575              	.LCFI17:
 576              		.cfi_def_cfa_register 7
 376:.\Generated_Source\PSoC5/CAN.c ****     uint8 result = CAN_FAIL;
 577              		.loc 1 376 0
 578 0006 4FF00103 		mov	r3, #1
 579 000a FB71     		strb	r3, [r7, #7]
 377:.\Generated_Source\PSoC5/CAN.c **** 
 378:.\Generated_Source\PSoC5/CAN.c ****     CAN_INT_EN_REG.byte[0u] &= (uint8) (~CAN_GLOBAL_INT_MASK);
 580              		.loc 1 378 0
 581 000c 4AF20403 		movw	r3, #40964
 582 0010 C4F20003 		movt	r3, 16384
 583 0014 4AF20402 		movw	r2, #40964
 584 0018 C4F20002 		movt	r2, 16384
 585 001c 1278     		ldrb	r2, [r2, #0]
ARM GAS  C:\Users\CHAIYA~1\AppData\Local\Temp\ccQBCuX6.s 			page 18


 586 001e D2B2     		uxtb	r2, r2
 587 0020 22F00102 		bic	r2, r2, #1
 588 0024 D2B2     		uxtb	r2, r2
 589 0026 1A70     		strb	r2, [r3, #0]
 379:.\Generated_Source\PSoC5/CAN.c **** 
 380:.\Generated_Source\PSoC5/CAN.c ****     /* Verify that bit is cleared */
 381:.\Generated_Source\PSoC5/CAN.c ****     if ((CAN_INT_EN_REG.byte[0u] & CAN_GLOBAL_INT_MASK) == 0u)
 590              		.loc 1 381 0
 591 0028 4AF20403 		movw	r3, #40964
 592 002c C4F20003 		movt	r3, 16384
 593 0030 1B78     		ldrb	r3, [r3, #0]
 594 0032 DBB2     		uxtb	r3, r3
 595 0034 03F00103 		and	r3, r3, #1
 596 0038 002B     		cmp	r3, #0
 597 003a 02D1     		bne	.L27
 382:.\Generated_Source\PSoC5/CAN.c ****     {
 383:.\Generated_Source\PSoC5/CAN.c ****         result = CYRET_SUCCESS;
 598              		.loc 1 383 0
 599 003c 4FF00003 		mov	r3, #0
 600 0040 FB71     		strb	r3, [r7, #7]
 601              	.L27:
 384:.\Generated_Source\PSoC5/CAN.c ****     }
 385:.\Generated_Source\PSoC5/CAN.c **** 
 386:.\Generated_Source\PSoC5/CAN.c ****     return (result);
 602              		.loc 1 386 0
 603 0042 FB79     		ldrb	r3, [r7, #7]	@ zero_extendqisi2
 387:.\Generated_Source\PSoC5/CAN.c **** }
 604              		.loc 1 387 0
 605 0044 1846     		mov	r0, r3
 606 0046 07F10C07 		add	r7, r7, #12
 607 004a BD46     		mov	sp, r7
 608 004c 80BC     		pop	{r7}
 609 004e 7047     		bx	lr
 610              		.cfi_endproc
 611              	.LFE5:
 612              		.size	CAN_GlobalIntDisable, .-CAN_GlobalIntDisable
 613              		.section	.text.CAN_SetPreScaler,"ax",%progbits
 614              		.align	2
 615              		.global	CAN_SetPreScaler
 616              		.thumb
 617              		.thumb_func
 618              		.type	CAN_SetPreScaler, %function
 619              	CAN_SetPreScaler:
 620              	.LFB6:
 388:.\Generated_Source\PSoC5/CAN.c **** 
 389:.\Generated_Source\PSoC5/CAN.c **** 
 390:.\Generated_Source\PSoC5/CAN.c **** /*******************************************************************************
 391:.\Generated_Source\PSoC5/CAN.c **** * FUNCTION NAME:   CAN_SetPreScaler
 392:.\Generated_Source\PSoC5/CAN.c **** ********************************************************************************
 393:.\Generated_Source\PSoC5/CAN.c **** *
 394:.\Generated_Source\PSoC5/CAN.c **** * Summary:
 395:.\Generated_Source\PSoC5/CAN.c **** *  This function sets PreScaler for generation the time quantum which defines
 396:.\Generated_Source\PSoC5/CAN.c **** *  the time quanta. Value between 0x0 and 0x7FFF are valid.
 397:.\Generated_Source\PSoC5/CAN.c **** *
 398:.\Generated_Source\PSoC5/CAN.c **** * Parameters:
 399:.\Generated_Source\PSoC5/CAN.c **** *  bitrate: PreScaler value.
 400:.\Generated_Source\PSoC5/CAN.c **** *   Value           Description
ARM GAS  C:\Users\CHAIYA~1\AppData\Local\Temp\ccQBCuX6.s 			page 19


 401:.\Generated_Source\PSoC5/CAN.c **** *    0               One time quantum equals 1 clock cycle
 402:.\Generated_Source\PSoC5/CAN.c **** *    1               One time quantum equals 2 clock cycles
 403:.\Generated_Source\PSoC5/CAN.c **** *    ...             ...
 404:.\Generated_Source\PSoC5/CAN.c **** *    32767           One time quantum equals 32768 clock cycles
 405:.\Generated_Source\PSoC5/CAN.c **** *
 406:.\Generated_Source\PSoC5/CAN.c **** * Return:
 407:.\Generated_Source\PSoC5/CAN.c **** *  Indication whether register is written and verified.
 408:.\Generated_Source\PSoC5/CAN.c **** *   Define                             Description
 409:.\Generated_Source\PSoC5/CAN.c **** *    CYRET_SUCCESS                      Function passed successfully
 410:.\Generated_Source\PSoC5/CAN.c **** *    CAN_FAIL              Function failed
 411:.\Generated_Source\PSoC5/CAN.c **** *    CAN_OUT_OF_RANGE      Function parameter is out of range
 412:.\Generated_Source\PSoC5/CAN.c **** *
 413:.\Generated_Source\PSoC5/CAN.c **** *******************************************************************************/
 414:.\Generated_Source\PSoC5/CAN.c **** uint8 CAN_SetPreScaler(uint16 bitrate) 
 415:.\Generated_Source\PSoC5/CAN.c **** {
 621              		.loc 1 415 0
 622              		.cfi_startproc
 623              		@ args = 0, pretend = 0, frame = 16
 624              		@ frame_needed = 1, uses_anonymous_args = 0
 625              		@ link register save eliminated.
 626 0000 80B4     		push	{r7}
 627              	.LCFI18:
 628              		.cfi_def_cfa_offset 4
 629              		.cfi_offset 7, -4
 630 0002 85B0     		sub	sp, sp, #20
 631              	.LCFI19:
 632              		.cfi_def_cfa_offset 24
 633 0004 00AF     		add	r7, sp, #0
 634              	.LCFI20:
 635              		.cfi_def_cfa_register 7
 636 0006 0346     		mov	r3, r0
 637 0008 FB80     		strh	r3, [r7, #6]	@ movhi
 416:.\Generated_Source\PSoC5/CAN.c ****     uint8 result = CAN_OUT_OF_RANGE;
 638              		.loc 1 416 0
 639 000a 4FF00203 		mov	r3, #2
 640 000e FB73     		strb	r3, [r7, #15]
 417:.\Generated_Source\PSoC5/CAN.c **** 
 418:.\Generated_Source\PSoC5/CAN.c ****     if (bitrate <= CAN_BITRATE_MASK)
 641              		.loc 1 418 0
 642 0010 FB88     		ldrh	r3, [r7, #6]
 643 0012 1BB2     		sxth	r3, r3
 644 0014 002B     		cmp	r3, #0
 645 0016 14DB     		blt	.L30
 419:.\Generated_Source\PSoC5/CAN.c ****     {
 420:.\Generated_Source\PSoC5/CAN.c ****         result = CAN_FAIL;
 646              		.loc 1 420 0
 647 0018 4FF00103 		mov	r3, #1
 648 001c FB73     		strb	r3, [r7, #15]
 421:.\Generated_Source\PSoC5/CAN.c **** 
 422:.\Generated_Source\PSoC5/CAN.c ****         /* Set prescaler */
 423:.\Generated_Source\PSoC5/CAN.c ****         CY_SET_REG16((reg16 *) &CAN_CFG_REG.byte[2u], bitrate);
 649              		.loc 1 423 0
 650 001e 4AF21603 		movw	r3, #40982
 651 0022 C4F20003 		movt	r3, 16384
 652 0026 FA88     		ldrh	r2, [r7, #6]	@ movhi
 653 0028 1A80     		strh	r2, [r3, #0]	@ movhi
 424:.\Generated_Source\PSoC5/CAN.c **** 
ARM GAS  C:\Users\CHAIYA~1\AppData\Local\Temp\ccQBCuX6.s 			page 20


 425:.\Generated_Source\PSoC5/CAN.c ****         /* Verify that prescaler is set */
 426:.\Generated_Source\PSoC5/CAN.c ****         if (CY_GET_REG16((reg16 *) &CAN_CFG_REG.byte[2u]) == bitrate)
 654              		.loc 1 426 0
 655 002a 4AF21603 		movw	r3, #40982
 656 002e C4F20003 		movt	r3, 16384
 657 0032 1B88     		ldrh	r3, [r3, #0]	@ movhi
 658 0034 9BB2     		uxth	r3, r3
 659 0036 FA88     		ldrh	r2, [r7, #6]
 660 0038 9A42     		cmp	r2, r3
 661 003a 02D1     		bne	.L30
 427:.\Generated_Source\PSoC5/CAN.c ****         {
 428:.\Generated_Source\PSoC5/CAN.c ****             result = CYRET_SUCCESS;
 662              		.loc 1 428 0
 663 003c 4FF00003 		mov	r3, #0
 664 0040 FB73     		strb	r3, [r7, #15]
 665              	.L30:
 429:.\Generated_Source\PSoC5/CAN.c ****         }
 430:.\Generated_Source\PSoC5/CAN.c ****     }
 431:.\Generated_Source\PSoC5/CAN.c **** 
 432:.\Generated_Source\PSoC5/CAN.c ****     return (result);
 666              		.loc 1 432 0
 667 0042 FB7B     		ldrb	r3, [r7, #15]	@ zero_extendqisi2
 433:.\Generated_Source\PSoC5/CAN.c **** }
 668              		.loc 1 433 0
 669 0044 1846     		mov	r0, r3
 670 0046 07F11407 		add	r7, r7, #20
 671 004a BD46     		mov	sp, r7
 672 004c 80BC     		pop	{r7}
 673 004e 7047     		bx	lr
 674              		.cfi_endproc
 675              	.LFE6:
 676              		.size	CAN_SetPreScaler, .-CAN_SetPreScaler
 677              		.section	.text.CAN_SetArbiter,"ax",%progbits
 678              		.align	2
 679              		.global	CAN_SetArbiter
 680              		.thumb
 681              		.thumb_func
 682              		.type	CAN_SetArbiter, %function
 683              	CAN_SetArbiter:
 684              	.LFB7:
 434:.\Generated_Source\PSoC5/CAN.c **** 
 435:.\Generated_Source\PSoC5/CAN.c **** 
 436:.\Generated_Source\PSoC5/CAN.c **** /*******************************************************************************
 437:.\Generated_Source\PSoC5/CAN.c **** * FUNCTION NAME:   CAN_SetArbiter
 438:.\Generated_Source\PSoC5/CAN.c **** ********************************************************************************
 439:.\Generated_Source\PSoC5/CAN.c **** *
 440:.\Generated_Source\PSoC5/CAN.c **** * Summary:
 441:.\Generated_Source\PSoC5/CAN.c **** *  This function sets arbitration type for transmit mailboxes. Types of
 442:.\Generated_Source\PSoC5/CAN.c **** *  arbiters are Round Robin and Fixed priority. Value 0 and 1 are valid.
 443:.\Generated_Source\PSoC5/CAN.c **** *
 444:.\Generated_Source\PSoC5/CAN.c **** * Parameters:
 445:.\Generated_Source\PSoC5/CAN.c **** *  arbiter: Arbitaration type for transmit mailboxes.
 446:.\Generated_Source\PSoC5/CAN.c **** *   Value                              Description
 447:.\Generated_Source\PSoC5/CAN.c **** *    CAN_ROUND_ROBIN       Round robin arbitration
 448:.\Generated_Source\PSoC5/CAN.c **** *    CAN_FIXED_PRIORITY    Fixed priority arbitration.
 449:.\Generated_Source\PSoC5/CAN.c **** *
 450:.\Generated_Source\PSoC5/CAN.c **** * Return:
ARM GAS  C:\Users\CHAIYA~1\AppData\Local\Temp\ccQBCuX6.s 			page 21


 451:.\Generated_Source\PSoC5/CAN.c **** *  Indication whether register is written and verified.
 452:.\Generated_Source\PSoC5/CAN.c **** *   Define                             Description
 453:.\Generated_Source\PSoC5/CAN.c **** *    CYRET_SUCCESS                      Function passed successfully
 454:.\Generated_Source\PSoC5/CAN.c **** *    CAN_FAIL              Function failed
 455:.\Generated_Source\PSoC5/CAN.c **** *
 456:.\Generated_Source\PSoC5/CAN.c **** *******************************************************************************/
 457:.\Generated_Source\PSoC5/CAN.c **** uint8 CAN_SetArbiter(uint8 arbiter) 
 458:.\Generated_Source\PSoC5/CAN.c **** {
 685              		.loc 1 458 0
 686              		.cfi_startproc
 687              		@ args = 0, pretend = 0, frame = 16
 688              		@ frame_needed = 1, uses_anonymous_args = 0
 689              		@ link register save eliminated.
 690 0000 80B4     		push	{r7}
 691              	.LCFI21:
 692              		.cfi_def_cfa_offset 4
 693              		.cfi_offset 7, -4
 694 0002 85B0     		sub	sp, sp, #20
 695              	.LCFI22:
 696              		.cfi_def_cfa_offset 24
 697 0004 00AF     		add	r7, sp, #0
 698              	.LCFI23:
 699              		.cfi_def_cfa_register 7
 700 0006 0346     		mov	r3, r0
 701 0008 FB71     		strb	r3, [r7, #7]
 459:.\Generated_Source\PSoC5/CAN.c ****     uint8 result = CAN_FAIL;
 702              		.loc 1 459 0
 703 000a 4FF00103 		mov	r3, #1
 704 000e FB73     		strb	r3, [r7, #15]
 460:.\Generated_Source\PSoC5/CAN.c **** 
 461:.\Generated_Source\PSoC5/CAN.c ****     if (arbiter == CAN_ROUND_ROBIN)
 705              		.loc 1 461 0
 706 0010 FB79     		ldrb	r3, [r7, #7]	@ zero_extendqisi2
 707 0012 002B     		cmp	r3, #0
 708 0014 1BD1     		bne	.L33
 462:.\Generated_Source\PSoC5/CAN.c ****     {
 463:.\Generated_Source\PSoC5/CAN.c ****         CAN_CFG_REG.byte[1u] &= (uint8) (~CAN_ARBITRATION_MASK);    /* Round Robin */
 709              		.loc 1 463 0
 710 0016 4AF21403 		movw	r3, #40980
 711 001a C4F20003 		movt	r3, 16384
 712 001e 4AF21402 		movw	r2, #40980
 713 0022 C4F20002 		movt	r2, 16384
 714 0026 5278     		ldrb	r2, [r2, #1]
 715 0028 D2B2     		uxtb	r2, r2
 716 002a 22F01002 		bic	r2, r2, #16
 717 002e D2B2     		uxtb	r2, r2
 718 0030 5A70     		strb	r2, [r3, #1]
 464:.\Generated_Source\PSoC5/CAN.c **** 
 465:.\Generated_Source\PSoC5/CAN.c ****         /* Verify that bit is cleared */
 466:.\Generated_Source\PSoC5/CAN.c ****         if ((CAN_CFG_REG.byte[1u] & CAN_ARBITRATION_MASK) == 0u)
 719              		.loc 1 466 0
 720 0032 4AF21403 		movw	r3, #40980
 721 0036 C4F20003 		movt	r3, 16384
 722 003a 5B78     		ldrb	r3, [r3, #1]
 723 003c DBB2     		uxtb	r3, r3
 724 003e 03F01003 		and	r3, r3, #16
 725 0042 002B     		cmp	r3, #0
ARM GAS  C:\Users\CHAIYA~1\AppData\Local\Temp\ccQBCuX6.s 			page 22


 726 0044 1ED1     		bne	.L34
 467:.\Generated_Source\PSoC5/CAN.c ****         {
 468:.\Generated_Source\PSoC5/CAN.c ****             result = CYRET_SUCCESS;
 727              		.loc 1 468 0
 728 0046 4FF00003 		mov	r3, #0
 729 004a FB73     		strb	r3, [r7, #15]
 730 004c 1AE0     		b	.L34
 731              	.L33:
 469:.\Generated_Source\PSoC5/CAN.c ****         }        
 470:.\Generated_Source\PSoC5/CAN.c ****     }
 471:.\Generated_Source\PSoC5/CAN.c ****     else
 472:.\Generated_Source\PSoC5/CAN.c ****     {
 473:.\Generated_Source\PSoC5/CAN.c ****         CAN_CFG_REG.byte[1u] |= CAN_ARBITRATION_MASK;    /* Fixed priority */
 732              		.loc 1 473 0
 733 004e 4AF21403 		movw	r3, #40980
 734 0052 C4F20003 		movt	r3, 16384
 735 0056 4AF21402 		movw	r2, #40980
 736 005a C4F20002 		movt	r2, 16384
 737 005e 5278     		ldrb	r2, [r2, #1]
 738 0060 D2B2     		uxtb	r2, r2
 739 0062 42F01002 		orr	r2, r2, #16
 740 0066 D2B2     		uxtb	r2, r2
 741 0068 5A70     		strb	r2, [r3, #1]
 474:.\Generated_Source\PSoC5/CAN.c **** 
 475:.\Generated_Source\PSoC5/CAN.c ****         /* Verify that bit is set */
 476:.\Generated_Source\PSoC5/CAN.c ****         if ((CAN_CFG_REG.byte[1u] & CAN_ARBITRATION_MASK) ==
 742              		.loc 1 476 0
 743 006a 4AF21403 		movw	r3, #40980
 744 006e C4F20003 		movt	r3, 16384
 745 0072 5B78     		ldrb	r3, [r3, #1]
 746 0074 DBB2     		uxtb	r3, r3
 747 0076 03F01003 		and	r3, r3, #16
 748 007a 002B     		cmp	r3, #0
 749 007c 02D0     		beq	.L34
 477:.\Generated_Source\PSoC5/CAN.c ****             CAN_ARBITRATION_MASK)
 478:.\Generated_Source\PSoC5/CAN.c ****         {
 479:.\Generated_Source\PSoC5/CAN.c ****             result = CYRET_SUCCESS;
 750              		.loc 1 479 0
 751 007e 4FF00003 		mov	r3, #0
 752 0082 FB73     		strb	r3, [r7, #15]
 753              	.L34:
 480:.\Generated_Source\PSoC5/CAN.c ****         }
 481:.\Generated_Source\PSoC5/CAN.c ****     }
 482:.\Generated_Source\PSoC5/CAN.c **** 
 483:.\Generated_Source\PSoC5/CAN.c ****     return (result);
 754              		.loc 1 483 0
 755 0084 FB7B     		ldrb	r3, [r7, #15]	@ zero_extendqisi2
 484:.\Generated_Source\PSoC5/CAN.c **** }
 756              		.loc 1 484 0
 757 0086 1846     		mov	r0, r3
 758 0088 07F11407 		add	r7, r7, #20
 759 008c BD46     		mov	sp, r7
 760 008e 80BC     		pop	{r7}
 761 0090 7047     		bx	lr
 762              		.cfi_endproc
 763              	.LFE7:
 764              		.size	CAN_SetArbiter, .-CAN_SetArbiter
ARM GAS  C:\Users\CHAIYA~1\AppData\Local\Temp\ccQBCuX6.s 			page 23


 765 0092 00BF     		.section	.text.CAN_SetTsegSample,"ax",%progbits
 766              		.align	2
 767              		.global	CAN_SetTsegSample
 768              		.thumb
 769              		.thumb_func
 770              		.type	CAN_SetTsegSample, %function
 771              	CAN_SetTsegSample:
 772              	.LFB8:
 485:.\Generated_Source\PSoC5/CAN.c **** 
 486:.\Generated_Source\PSoC5/CAN.c **** 
 487:.\Generated_Source\PSoC5/CAN.c **** /*******************************************************************************
 488:.\Generated_Source\PSoC5/CAN.c **** * FUNCTION NAME: CAN_SetTsegSample
 489:.\Generated_Source\PSoC5/CAN.c **** ********************************************************************************
 490:.\Generated_Source\PSoC5/CAN.c **** *
 491:.\Generated_Source\PSoC5/CAN.c **** * Summary:
 492:.\Generated_Source\PSoC5/CAN.c **** *  This function configures: Time segment 1, Time segment 2, Sampling Mode
 493:.\Generated_Source\PSoC5/CAN.c **** *  and Synchronization Jump Width.
 494:.\Generated_Source\PSoC5/CAN.c **** *
 495:.\Generated_Source\PSoC5/CAN.c **** * Parameters:
 496:.\Generated_Source\PSoC5/CAN.c **** *  cfgTseg1: Length of time segment 1, value between 0x2 and 0xF are valid;
 497:.\Generated_Source\PSoC5/CAN.c **** *  cfgTseg2: Length of time segment 2, value between 0x1 and 0x7 are valid;
 498:.\Generated_Source\PSoC5/CAN.c **** *  sjw: Synchronization Jump Width, value between 0x0 and 0x3 are valid;
 499:.\Generated_Source\PSoC5/CAN.c **** *  sm: Sampling Mode.
 500:.\Generated_Source\PSoC5/CAN.c **** *   Define                               Description
 501:.\Generated_Source\PSoC5/CAN.c **** *   CAN_ONE_SAMPLE_POINT     one sampling points is used
 502:.\Generated_Source\PSoC5/CAN.c **** *   CAN_THREE_SAMPLE_POINTS  three sampling points are used
 503:.\Generated_Source\PSoC5/CAN.c **** *
 504:.\Generated_Source\PSoC5/CAN.c **** * Return:
 505:.\Generated_Source\PSoC5/CAN.c **** *  Indication whether register is written and verified.
 506:.\Generated_Source\PSoC5/CAN.c **** *   Define                             Description
 507:.\Generated_Source\PSoC5/CAN.c **** *    CYRET_SUCCESS                      Function passed successfully
 508:.\Generated_Source\PSoC5/CAN.c **** *    CAN_FAIL              Function failed
 509:.\Generated_Source\PSoC5/CAN.c **** *    CAN_OUT_OF_RANGE      Function parameter is out of range
 510:.\Generated_Source\PSoC5/CAN.c **** *
 511:.\Generated_Source\PSoC5/CAN.c **** *******************************************************************************/
 512:.\Generated_Source\PSoC5/CAN.c **** uint8 CAN_SetTsegSample(uint8 cfgTseg1, uint8 cfgTseg2, uint8 sjw, uint8 sm)
 513:.\Generated_Source\PSoC5/CAN.c ****                                      
 514:.\Generated_Source\PSoC5/CAN.c **** {
 773              		.loc 1 514 0
 774              		.cfi_startproc
 775              		@ args = 0, pretend = 0, frame = 16
 776              		@ frame_needed = 1, uses_anonymous_args = 0
 777              		@ link register save eliminated.
 778 0000 80B4     		push	{r7}
 779              	.LCFI24:
 780              		.cfi_def_cfa_offset 4
 781              		.cfi_offset 7, -4
 782 0002 85B0     		sub	sp, sp, #20
 783              	.LCFI25:
 784              		.cfi_def_cfa_offset 24
 785 0004 00AF     		add	r7, sp, #0
 786              	.LCFI26:
 787              		.cfi_def_cfa_register 7
 788 0006 F871     		strb	r0, [r7, #7]
 789 0008 B971     		strb	r1, [r7, #6]
 790 000a 7A71     		strb	r2, [r7, #5]
 791 000c 3B71     		strb	r3, [r7, #4]
ARM GAS  C:\Users\CHAIYA~1\AppData\Local\Temp\ccQBCuX6.s 			page 24


 515:.\Generated_Source\PSoC5/CAN.c ****     uint8 result = CAN_OUT_OF_RANGE;
 792              		.loc 1 515 0
 793 000e 4FF00203 		mov	r3, #2
 794 0012 FB73     		strb	r3, [r7, #15]
 516:.\Generated_Source\PSoC5/CAN.c ****     uint8 cfgTemp;
 517:.\Generated_Source\PSoC5/CAN.c **** 
 518:.\Generated_Source\PSoC5/CAN.c ****     if ((cfgTseg1 >= CAN_CFG_REG_TSEG1_LOWER_LIMIT) && (cfgTseg1 <=
 795              		.loc 1 518 0
 796 0014 FB79     		ldrb	r3, [r7, #7]	@ zero_extendqisi2
 797 0016 012B     		cmp	r3, #1
 798 0018 61D9     		bls	.L37
 799              		.loc 1 518 0 is_stmt 0 discriminator 1
 800 001a FB79     		ldrb	r3, [r7, #7]	@ zero_extendqisi2
 801 001c 0F2B     		cmp	r3, #15
 802 001e 5ED8     		bhi	.L37
 519:.\Generated_Source\PSoC5/CAN.c ****          CAN_CFG_REG_TSEG1_UPPER_LIMIT))
 520:.\Generated_Source\PSoC5/CAN.c ****     {
 521:.\Generated_Source\PSoC5/CAN.c ****         if (((cfgTseg2 >= CAN_CFG_REG_TSEG2_LOWER_LIMIT) &&
 803              		.loc 1 521 0 is_stmt 1
 804 0020 BB79     		ldrb	r3, [r7, #6]	@ zero_extendqisi2
 805 0022 012B     		cmp	r3, #1
 806 0024 02D9     		bls	.L38
 807              		.loc 1 521 0 is_stmt 0 discriminator 1
 808 0026 BB79     		ldrb	r3, [r7, #6]	@ zero_extendqisi2
 809 0028 072B     		cmp	r3, #7
 810 002a 05D9     		bls	.L39
 811              	.L38:
 522:.\Generated_Source\PSoC5/CAN.c ****              (cfgTseg2 <= CAN_CFG_REG_TSEG2_UPPER_LIMIT)) || ((sm == CAN_ONE_SAMPLE_POINT) &&
 812              		.loc 1 522 0 is_stmt 1
 813 002c 3B79     		ldrb	r3, [r7, #4]	@ zero_extendqisi2
 814 002e 002B     		cmp	r3, #0
 815 0030 55D1     		bne	.L37
 816              		.loc 1 522 0 is_stmt 0 discriminator 1
 817 0032 BB79     		ldrb	r3, [r7, #6]	@ zero_extendqisi2
 818 0034 012B     		cmp	r3, #1
 819 0036 52D1     		bne	.L37
 820              	.L39:
 523:.\Generated_Source\PSoC5/CAN.c ****              (cfgTseg2 == CAN_CFG_REG_TSEG2_EXCEPTION)))
 524:.\Generated_Source\PSoC5/CAN.c ****         {
 525:.\Generated_Source\PSoC5/CAN.c ****             if ((sjw <= CAN_CFG_REG_SJW_LOWER_LIMIT) && (sjw <= cfgTseg1) && (sjw <= cfgTseg2))
 821              		.loc 1 525 0 is_stmt 1
 822 0038 7B79     		ldrb	r3, [r7, #5]	@ zero_extendqisi2
 823 003a 032B     		cmp	r3, #3
 824 003c 4FD8     		bhi	.L37
 825              		.loc 1 525 0 is_stmt 0 discriminator 1
 826 003e 7A79     		ldrb	r2, [r7, #5]	@ zero_extendqisi2
 827 0040 FB79     		ldrb	r3, [r7, #7]	@ zero_extendqisi2
 828 0042 9A42     		cmp	r2, r3
 829 0044 4BD8     		bhi	.L37
 830 0046 7A79     		ldrb	r2, [r7, #5]	@ zero_extendqisi2
 831 0048 BB79     		ldrb	r3, [r7, #6]	@ zero_extendqisi2
 832 004a 9A42     		cmp	r2, r3
 833 004c 47D8     		bhi	.L37
 526:.\Generated_Source\PSoC5/CAN.c ****             {
 527:.\Generated_Source\PSoC5/CAN.c ****                 result = CAN_FAIL;
 834              		.loc 1 527 0 is_stmt 1
 835 004e 4FF00103 		mov	r3, #1
ARM GAS  C:\Users\CHAIYA~1\AppData\Local\Temp\ccQBCuX6.s 			page 25


 836 0052 FB73     		strb	r3, [r7, #15]
 528:.\Generated_Source\PSoC5/CAN.c **** 
 529:.\Generated_Source\PSoC5/CAN.c ****                 cfgTemp = CAN_CFG_REG.byte[1];
 837              		.loc 1 529 0
 838 0054 4AF21403 		movw	r3, #40980
 839 0058 C4F20003 		movt	r3, 16384
 840 005c 5B78     		ldrb	r3, [r3, #1]
 841 005e BB73     		strb	r3, [r7, #14]
 530:.\Generated_Source\PSoC5/CAN.c ****                 cfgTemp &= (uint8) (~CAN_CFG_REG_TSEG1_MASK);
 842              		.loc 1 530 0
 843 0060 BB7B     		ldrb	r3, [r7, #14]
 844 0062 23F00F03 		bic	r3, r3, #15
 845 0066 BB73     		strb	r3, [r7, #14]
 531:.\Generated_Source\PSoC5/CAN.c ****                 cfgTemp |= cfgTseg1;
 846              		.loc 1 531 0
 847 0068 BA7B     		ldrb	r2, [r7, #14]
 848 006a FB79     		ldrb	r3, [r7, #7]
 849 006c 1343     		orrs	r3, r3, r2
 850 006e BB73     		strb	r3, [r7, #14]
 532:.\Generated_Source\PSoC5/CAN.c **** 
 533:.\Generated_Source\PSoC5/CAN.c ****                 /* write register byte 1 */
 534:.\Generated_Source\PSoC5/CAN.c ****                 CAN_CFG_REG.byte[1u] = cfgTemp;
 851              		.loc 1 534 0
 852 0070 4AF21403 		movw	r3, #40980
 853 0074 C4F20003 		movt	r3, 16384
 854 0078 BA7B     		ldrb	r2, [r7, #14]
 855 007a 5A70     		strb	r2, [r3, #1]
 535:.\Generated_Source\PSoC5/CAN.c **** 
 536:.\Generated_Source\PSoC5/CAN.c ****                 /* Verify 2nd byte of CAN_CFG_REG register */
 537:.\Generated_Source\PSoC5/CAN.c ****                 if (CAN_CFG_REG.byte[1u] == cfgTemp)
 856              		.loc 1 537 0
 857 007c 4AF21403 		movw	r3, #40980
 858 0080 C4F20003 		movt	r3, 16384
 859 0084 5B78     		ldrb	r3, [r3, #1]
 860 0086 DBB2     		uxtb	r3, r3
 861 0088 BA7B     		ldrb	r2, [r7, #14]	@ zero_extendqisi2
 862 008a 9A42     		cmp	r2, r3
 863 008c 27D1     		bne	.L37
 538:.\Generated_Source\PSoC5/CAN.c ****                 {
 539:.\Generated_Source\PSoC5/CAN.c ****                     cfgTemp = 0u;
 864              		.loc 1 539 0
 865 008e 4FF00003 		mov	r3, #0
 866 0092 BB73     		strb	r3, [r7, #14]
 540:.\Generated_Source\PSoC5/CAN.c ****                     /* Set appropriate bits */
 541:.\Generated_Source\PSoC5/CAN.c ****                     if (sm != CAN_ONE_SAMPLE_POINT)
 867              		.loc 1 541 0
 868 0094 3B79     		ldrb	r3, [r7, #4]	@ zero_extendqisi2
 869 0096 002B     		cmp	r3, #0
 870 0098 02D0     		beq	.L40
 542:.\Generated_Source\PSoC5/CAN.c ****                     {
 543:.\Generated_Source\PSoC5/CAN.c ****                         cfgTemp = CAN_SAMPLE_MODE_MASK;
 871              		.loc 1 543 0
 872 009a 4FF00203 		mov	r3, #2
 873 009e BB73     		strb	r3, [r7, #14]
 874              	.L40:
 544:.\Generated_Source\PSoC5/CAN.c ****                     }
 545:.\Generated_Source\PSoC5/CAN.c ****                     cfgTemp |= ((uint8) (cfgTseg2 << CAN_CFG_REG_TSEG2_SHIFT)) |
ARM GAS  C:\Users\CHAIYA~1\AppData\Local\Temp\ccQBCuX6.s 			page 26


 875              		.loc 1 545 0
 876 00a0 BB79     		ldrb	r3, [r7, #6]
 877 00a2 4FEA4313 		lsl	r3, r3, #5
 878 00a6 DAB2     		uxtb	r2, r3
 546:.\Generated_Source\PSoC5/CAN.c ****                                ((uint8) (sjw << CAN_CFG_REG_SJW_SHIFT));
 879              		.loc 1 546 0
 880 00a8 7B79     		ldrb	r3, [r7, #5]
 881 00aa 4FEA8303 		lsl	r3, r3, #2
 882 00ae DBB2     		uxtb	r3, r3
 545:.\Generated_Source\PSoC5/CAN.c ****                     cfgTemp |= ((uint8) (cfgTseg2 << CAN_CFG_REG_TSEG2_SHIFT)) |
 883              		.loc 1 545 0
 884 00b0 1343     		orrs	r3, r3, r2
 885 00b2 DAB2     		uxtb	r2, r3
 886 00b4 BB7B     		ldrb	r3, [r7, #14]
 887 00b6 1343     		orrs	r3, r3, r2
 888 00b8 BB73     		strb	r3, [r7, #14]
 547:.\Generated_Source\PSoC5/CAN.c **** 
 548:.\Generated_Source\PSoC5/CAN.c ****                     /* write register byte 0 */
 549:.\Generated_Source\PSoC5/CAN.c ****                     CAN_CFG_REG.byte[0u] = cfgTemp;
 889              		.loc 1 549 0
 890 00ba 4AF21403 		movw	r3, #40980
 891 00be C4F20003 		movt	r3, 16384
 892 00c2 BA7B     		ldrb	r2, [r7, #14]
 893 00c4 1A70     		strb	r2, [r3, #0]
 550:.\Generated_Source\PSoC5/CAN.c **** 
 551:.\Generated_Source\PSoC5/CAN.c ****                     /* Verify 1st byte of CAN_CFG_REG register */
 552:.\Generated_Source\PSoC5/CAN.c ****                     if (CAN_CFG_REG.byte[0u] == cfgTemp)
 894              		.loc 1 552 0
 895 00c6 4AF21403 		movw	r3, #40980
 896 00ca C4F20003 		movt	r3, 16384
 897 00ce 1B78     		ldrb	r3, [r3, #0]
 898 00d0 DBB2     		uxtb	r3, r3
 899 00d2 BA7B     		ldrb	r2, [r7, #14]	@ zero_extendqisi2
 900 00d4 9A42     		cmp	r2, r3
 901 00d6 02D1     		bne	.L37
 553:.\Generated_Source\PSoC5/CAN.c ****                     {
 554:.\Generated_Source\PSoC5/CAN.c ****                         result = CYRET_SUCCESS;
 902              		.loc 1 554 0
 903 00d8 4FF00003 		mov	r3, #0
 904 00dc FB73     		strb	r3, [r7, #15]
 905              	.L37:
 555:.\Generated_Source\PSoC5/CAN.c ****                     }
 556:.\Generated_Source\PSoC5/CAN.c ****                 }
 557:.\Generated_Source\PSoC5/CAN.c ****             }
 558:.\Generated_Source\PSoC5/CAN.c ****         }
 559:.\Generated_Source\PSoC5/CAN.c ****     }
 560:.\Generated_Source\PSoC5/CAN.c **** 
 561:.\Generated_Source\PSoC5/CAN.c ****     return (result);
 906              		.loc 1 561 0
 907 00de FB7B     		ldrb	r3, [r7, #15]	@ zero_extendqisi2
 562:.\Generated_Source\PSoC5/CAN.c **** }
 908              		.loc 1 562 0
 909 00e0 1846     		mov	r0, r3
 910 00e2 07F11407 		add	r7, r7, #20
 911 00e6 BD46     		mov	sp, r7
 912 00e8 80BC     		pop	{r7}
 913 00ea 7047     		bx	lr
ARM GAS  C:\Users\CHAIYA~1\AppData\Local\Temp\ccQBCuX6.s 			page 27


 914              		.cfi_endproc
 915              	.LFE8:
 916              		.size	CAN_SetTsegSample, .-CAN_SetTsegSample
 917              		.section	.text.CAN_SetRestartType,"ax",%progbits
 918              		.align	2
 919              		.global	CAN_SetRestartType
 920              		.thumb
 921              		.thumb_func
 922              		.type	CAN_SetRestartType, %function
 923              	CAN_SetRestartType:
 924              	.LFB9:
 563:.\Generated_Source\PSoC5/CAN.c **** 
 564:.\Generated_Source\PSoC5/CAN.c **** 
 565:.\Generated_Source\PSoC5/CAN.c **** /*******************************************************************************
 566:.\Generated_Source\PSoC5/CAN.c **** * FUNCTION NAME:   CAN_SetRestartType
 567:.\Generated_Source\PSoC5/CAN.c **** ********************************************************************************
 568:.\Generated_Source\PSoC5/CAN.c **** *
 569:.\Generated_Source\PSoC5/CAN.c **** * Summary:
 570:.\Generated_Source\PSoC5/CAN.c **** *  This function sets Reset type. Types of Reset are Automatic and Manual.
 571:.\Generated_Source\PSoC5/CAN.c **** *  Manual Reset is recommended setting.
 572:.\Generated_Source\PSoC5/CAN.c **** *
 573:.\Generated_Source\PSoC5/CAN.c **** * Parameters:
 574:.\Generated_Source\PSoC5/CAN.c **** *  reset: Reset Type.
 575:.\Generated_Source\PSoC5/CAN.c **** *   Define                             Description
 576:.\Generated_Source\PSoC5/CAN.c **** *    CAN_MANUAL_RESTART    After bus-off, the CAN must be restarted
 577:.\Generated_Source\PSoC5/CAN.c **** *                                       by hand. This is the recommended 
 578:.\Generated_Source\PSoC5/CAN.c **** *                                       setting.
 579:.\Generated_Source\PSoC5/CAN.c **** *    CAN_AUTO_RESTART      After bus-off, the CAN is restarting 
 580:.\Generated_Source\PSoC5/CAN.c **** *                                       automatically after 128 groups of 11 
 581:.\Generated_Source\PSoC5/CAN.c **** *                                       recessive bits.
 582:.\Generated_Source\PSoC5/CAN.c **** *
 583:.\Generated_Source\PSoC5/CAN.c **** * Return:
 584:.\Generated_Source\PSoC5/CAN.c **** *  Indication whether register is written and verified.
 585:.\Generated_Source\PSoC5/CAN.c **** *   Define                             Description
 586:.\Generated_Source\PSoC5/CAN.c **** *    CYRET_SUCCESS                      Function passed successfully
 587:.\Generated_Source\PSoC5/CAN.c **** *    CAN_FAIL              Function failed
 588:.\Generated_Source\PSoC5/CAN.c **** *
 589:.\Generated_Source\PSoC5/CAN.c **** *******************************************************************************/
 590:.\Generated_Source\PSoC5/CAN.c **** uint8 CAN_SetRestartType(uint8 reset) 
 591:.\Generated_Source\PSoC5/CAN.c **** {
 925              		.loc 1 591 0
 926              		.cfi_startproc
 927              		@ args = 0, pretend = 0, frame = 16
 928              		@ frame_needed = 1, uses_anonymous_args = 0
 929              		@ link register save eliminated.
 930 0000 80B4     		push	{r7}
 931              	.LCFI27:
 932              		.cfi_def_cfa_offset 4
 933              		.cfi_offset 7, -4
 934 0002 85B0     		sub	sp, sp, #20
 935              	.LCFI28:
 936              		.cfi_def_cfa_offset 24
 937 0004 00AF     		add	r7, sp, #0
 938              	.LCFI29:
 939              		.cfi_def_cfa_register 7
 940 0006 0346     		mov	r3, r0
 941 0008 FB71     		strb	r3, [r7, #7]
ARM GAS  C:\Users\CHAIYA~1\AppData\Local\Temp\ccQBCuX6.s 			page 28


 592:.\Generated_Source\PSoC5/CAN.c ****     uint8 result = CAN_FAIL;
 942              		.loc 1 592 0
 943 000a 4FF00103 		mov	r3, #1
 944 000e FB73     		strb	r3, [r7, #15]
 593:.\Generated_Source\PSoC5/CAN.c **** 
 594:.\Generated_Source\PSoC5/CAN.c ****     if (reset == CAN_RESTART_BY_HAND)
 945              		.loc 1 594 0
 946 0010 FB79     		ldrb	r3, [r7, #7]	@ zero_extendqisi2
 947 0012 002B     		cmp	r3, #0
 948 0014 1BD1     		bne	.L43
 595:.\Generated_Source\PSoC5/CAN.c ****     {
 596:.\Generated_Source\PSoC5/CAN.c ****         CAN_CFG_REG.byte[0u] &= (uint8) (~CAN_RESET_MASK);   /* Manual reset */
 949              		.loc 1 596 0
 950 0016 4AF21403 		movw	r3, #40980
 951 001a C4F20003 		movt	r3, 16384
 952 001e 4AF21402 		movw	r2, #40980
 953 0022 C4F20002 		movt	r2, 16384
 954 0026 1278     		ldrb	r2, [r2, #0]
 955 0028 D2B2     		uxtb	r2, r2
 956 002a 22F01002 		bic	r2, r2, #16
 957 002e D2B2     		uxtb	r2, r2
 958 0030 1A70     		strb	r2, [r3, #0]
 597:.\Generated_Source\PSoC5/CAN.c **** 
 598:.\Generated_Source\PSoC5/CAN.c ****         /* Verify that bit is cleared */
 599:.\Generated_Source\PSoC5/CAN.c ****         if ((CAN_CFG_REG.byte[0u] & CAN_RESET_MASK) == 0u)
 959              		.loc 1 599 0
 960 0032 4AF21403 		movw	r3, #40980
 961 0036 C4F20003 		movt	r3, 16384
 962 003a 1B78     		ldrb	r3, [r3, #0]
 963 003c DBB2     		uxtb	r3, r3
 964 003e 03F01003 		and	r3, r3, #16
 965 0042 002B     		cmp	r3, #0
 966 0044 1ED1     		bne	.L44
 600:.\Generated_Source\PSoC5/CAN.c ****         {
 601:.\Generated_Source\PSoC5/CAN.c ****             result = CYRET_SUCCESS;
 967              		.loc 1 601 0
 968 0046 4FF00003 		mov	r3, #0
 969 004a FB73     		strb	r3, [r7, #15]
 970 004c 1AE0     		b	.L44
 971              	.L43:
 602:.\Generated_Source\PSoC5/CAN.c ****         }
 603:.\Generated_Source\PSoC5/CAN.c ****     }
 604:.\Generated_Source\PSoC5/CAN.c ****     else
 605:.\Generated_Source\PSoC5/CAN.c ****     {
 606:.\Generated_Source\PSoC5/CAN.c ****         CAN_CFG_REG.byte[0u] |= CAN_RESET_MASK;    /* Automatic restart */
 972              		.loc 1 606 0
 973 004e 4AF21403 		movw	r3, #40980
 974 0052 C4F20003 		movt	r3, 16384
 975 0056 4AF21402 		movw	r2, #40980
 976 005a C4F20002 		movt	r2, 16384
 977 005e 1278     		ldrb	r2, [r2, #0]
 978 0060 D2B2     		uxtb	r2, r2
 979 0062 42F01002 		orr	r2, r2, #16
 980 0066 D2B2     		uxtb	r2, r2
 981 0068 1A70     		strb	r2, [r3, #0]
 607:.\Generated_Source\PSoC5/CAN.c **** 
 608:.\Generated_Source\PSoC5/CAN.c ****         /* Verify that bit is set */
ARM GAS  C:\Users\CHAIYA~1\AppData\Local\Temp\ccQBCuX6.s 			page 29


 609:.\Generated_Source\PSoC5/CAN.c ****         if ((CAN_CFG_REG.byte[0u] & CAN_RESET_MASK) == CAN_RESET_MASK)
 982              		.loc 1 609 0
 983 006a 4AF21403 		movw	r3, #40980
 984 006e C4F20003 		movt	r3, 16384
 985 0072 1B78     		ldrb	r3, [r3, #0]
 986 0074 DBB2     		uxtb	r3, r3
 987 0076 03F01003 		and	r3, r3, #16
 988 007a 002B     		cmp	r3, #0
 989 007c 02D0     		beq	.L44
 610:.\Generated_Source\PSoC5/CAN.c ****         {
 611:.\Generated_Source\PSoC5/CAN.c ****             result = CYRET_SUCCESS;
 990              		.loc 1 611 0
 991 007e 4FF00003 		mov	r3, #0
 992 0082 FB73     		strb	r3, [r7, #15]
 993              	.L44:
 612:.\Generated_Source\PSoC5/CAN.c ****         }
 613:.\Generated_Source\PSoC5/CAN.c ****     }
 614:.\Generated_Source\PSoC5/CAN.c **** 
 615:.\Generated_Source\PSoC5/CAN.c ****     return (result);
 994              		.loc 1 615 0
 995 0084 FB7B     		ldrb	r3, [r7, #15]	@ zero_extendqisi2
 616:.\Generated_Source\PSoC5/CAN.c **** }
 996              		.loc 1 616 0
 997 0086 1846     		mov	r0, r3
 998 0088 07F11407 		add	r7, r7, #20
 999 008c BD46     		mov	sp, r7
 1000 008e 80BC     		pop	{r7}
 1001 0090 7047     		bx	lr
 1002              		.cfi_endproc
 1003              	.LFE9:
 1004              		.size	CAN_SetRestartType, .-CAN_SetRestartType
 1005 0092 00BF     		.section	.text.CAN_SetEdgeMode,"ax",%progbits
 1006              		.align	2
 1007              		.global	CAN_SetEdgeMode
 1008              		.thumb
 1009              		.thumb_func
 1010              		.type	CAN_SetEdgeMode, %function
 1011              	CAN_SetEdgeMode:
 1012              	.LFB10:
 617:.\Generated_Source\PSoC5/CAN.c **** 
 618:.\Generated_Source\PSoC5/CAN.c **** 
 619:.\Generated_Source\PSoC5/CAN.c **** /*******************************************************************************
 620:.\Generated_Source\PSoC5/CAN.c **** * FUNCTION NAME:   CAN_SetEdgeMode
 621:.\Generated_Source\PSoC5/CAN.c **** ********************************************************************************
 622:.\Generated_Source\PSoC5/CAN.c **** *
 623:.\Generated_Source\PSoC5/CAN.c **** * Summary:
 624:.\Generated_Source\PSoC5/CAN.c **** *  This function sets Edge Mode. Modes are 'R' to 'D'(Reccessive to Dominant)
 625:.\Generated_Source\PSoC5/CAN.c **** *  and Both edges are used.
 626:.\Generated_Source\PSoC5/CAN.c **** *
 627:.\Generated_Source\PSoC5/CAN.c **** * Parameters:
 628:.\Generated_Source\PSoC5/CAN.c **** *  edge: Edge Mode.
 629:.\Generated_Source\PSoC5/CAN.c **** *   Define                             Description
 630:.\Generated_Source\PSoC5/CAN.c **** *    CAN_EDGE_R_TO_D       Edge from R to D is used for 
 631:.\Generated_Source\PSoC5/CAN.c **** *                                       synchronization
 632:.\Generated_Source\PSoC5/CAN.c **** *    CAN_BOTH_EDGES        Both edges are used
 633:.\Generated_Source\PSoC5/CAN.c **** *
 634:.\Generated_Source\PSoC5/CAN.c **** * Return:
ARM GAS  C:\Users\CHAIYA~1\AppData\Local\Temp\ccQBCuX6.s 			page 30


 635:.\Generated_Source\PSoC5/CAN.c **** *  Indication whether register is written and verified.
 636:.\Generated_Source\PSoC5/CAN.c **** *   Define                             Description
 637:.\Generated_Source\PSoC5/CAN.c **** *    CYRET_SUCCESS                      Function passed successfully
 638:.\Generated_Source\PSoC5/CAN.c **** *    CAN_FAIL              Function failed
 639:.\Generated_Source\PSoC5/CAN.c **** *
 640:.\Generated_Source\PSoC5/CAN.c **** *******************************************************************************/
 641:.\Generated_Source\PSoC5/CAN.c **** uint8 CAN_SetEdgeMode(uint8 edge) 
 642:.\Generated_Source\PSoC5/CAN.c **** {
 1013              		.loc 1 642 0
 1014              		.cfi_startproc
 1015              		@ args = 0, pretend = 0, frame = 16
 1016              		@ frame_needed = 1, uses_anonymous_args = 0
 1017              		@ link register save eliminated.
 1018 0000 80B4     		push	{r7}
 1019              	.LCFI30:
 1020              		.cfi_def_cfa_offset 4
 1021              		.cfi_offset 7, -4
 1022 0002 85B0     		sub	sp, sp, #20
 1023              	.LCFI31:
 1024              		.cfi_def_cfa_offset 24
 1025 0004 00AF     		add	r7, sp, #0
 1026              	.LCFI32:
 1027              		.cfi_def_cfa_register 7
 1028 0006 0346     		mov	r3, r0
 1029 0008 FB71     		strb	r3, [r7, #7]
 643:.\Generated_Source\PSoC5/CAN.c ****     uint8 result = CAN_FAIL;
 1030              		.loc 1 643 0
 1031 000a 4FF00103 		mov	r3, #1
 1032 000e FB73     		strb	r3, [r7, #15]
 644:.\Generated_Source\PSoC5/CAN.c **** 
 645:.\Generated_Source\PSoC5/CAN.c ****     if (edge == CAN_EDGE_R_TO_D)
 1033              		.loc 1 645 0
 1034 0010 FB79     		ldrb	r3, [r7, #7]	@ zero_extendqisi2
 1035 0012 002B     		cmp	r3, #0
 1036 0014 1BD1     		bne	.L47
 646:.\Generated_Source\PSoC5/CAN.c ****     {
 647:.\Generated_Source\PSoC5/CAN.c ****         /* Recessive to Dominant is used for synchronization */
 648:.\Generated_Source\PSoC5/CAN.c ****         CAN_CFG_REG.byte[0u] &= (uint8) (~CAN_EDGE_MODE_MASK);
 1037              		.loc 1 648 0
 1038 0016 4AF21403 		movw	r3, #40980
 1039 001a C4F20003 		movt	r3, 16384
 1040 001e 4AF21402 		movw	r2, #40980
 1041 0022 C4F20002 		movt	r2, 16384
 1042 0026 1278     		ldrb	r2, [r2, #0]
 1043 0028 D2B2     		uxtb	r2, r2
 1044 002a 22F00102 		bic	r2, r2, #1
 1045 002e D2B2     		uxtb	r2, r2
 1046 0030 1A70     		strb	r2, [r3, #0]
 649:.\Generated_Source\PSoC5/CAN.c **** 
 650:.\Generated_Source\PSoC5/CAN.c ****         /* Verify that bit is cleared */
 651:.\Generated_Source\PSoC5/CAN.c ****         if ((CAN_CFG_REG.byte[0u] & CAN_EDGE_MODE_MASK) == 0u)
 1047              		.loc 1 651 0
 1048 0032 4AF21403 		movw	r3, #40980
 1049 0036 C4F20003 		movt	r3, 16384
 1050 003a 1B78     		ldrb	r3, [r3, #0]
 1051 003c DBB2     		uxtb	r3, r3
 1052 003e 03F00103 		and	r3, r3, #1
ARM GAS  C:\Users\CHAIYA~1\AppData\Local\Temp\ccQBCuX6.s 			page 31


 1053 0042 002B     		cmp	r3, #0
 1054 0044 1ED1     		bne	.L48
 652:.\Generated_Source\PSoC5/CAN.c ****         {
 653:.\Generated_Source\PSoC5/CAN.c ****             result = CYRET_SUCCESS;
 1055              		.loc 1 653 0
 1056 0046 4FF00003 		mov	r3, #0
 1057 004a FB73     		strb	r3, [r7, #15]
 1058 004c 1AE0     		b	.L48
 1059              	.L47:
 654:.\Generated_Source\PSoC5/CAN.c ****         }                      
 655:.\Generated_Source\PSoC5/CAN.c ****     }
 656:.\Generated_Source\PSoC5/CAN.c ****     else
 657:.\Generated_Source\PSoC5/CAN.c ****     {
 658:.\Generated_Source\PSoC5/CAN.c ****         /* Both edges are to be used */
 659:.\Generated_Source\PSoC5/CAN.c ****         CAN_CFG_REG.byte[0u] |= CAN_EDGE_MODE_MASK;
 1060              		.loc 1 659 0
 1061 004e 4AF21403 		movw	r3, #40980
 1062 0052 C4F20003 		movt	r3, 16384
 1063 0056 4AF21402 		movw	r2, #40980
 1064 005a C4F20002 		movt	r2, 16384
 1065 005e 1278     		ldrb	r2, [r2, #0]
 1066 0060 D2B2     		uxtb	r2, r2
 1067 0062 42F00102 		orr	r2, r2, #1
 1068 0066 D2B2     		uxtb	r2, r2
 1069 0068 1A70     		strb	r2, [r3, #0]
 660:.\Generated_Source\PSoC5/CAN.c **** 
 661:.\Generated_Source\PSoC5/CAN.c ****         /* Verify that bit is set */
 662:.\Generated_Source\PSoC5/CAN.c ****         if ((CAN_CFG_REG.byte[0u] & CAN_EDGE_MODE_MASK) == CAN_EDGE_MODE_MASK)
 1070              		.loc 1 662 0
 1071 006a 4AF21403 		movw	r3, #40980
 1072 006e C4F20003 		movt	r3, 16384
 1073 0072 1B78     		ldrb	r3, [r3, #0]
 1074 0074 DBB2     		uxtb	r3, r3
 1075 0076 03F00103 		and	r3, r3, #1
 1076 007a 002B     		cmp	r3, #0
 1077 007c 02D0     		beq	.L48
 663:.\Generated_Source\PSoC5/CAN.c ****         {
 664:.\Generated_Source\PSoC5/CAN.c ****             result = CYRET_SUCCESS;
 1078              		.loc 1 664 0
 1079 007e 4FF00003 		mov	r3, #0
 1080 0082 FB73     		strb	r3, [r7, #15]
 1081              	.L48:
 665:.\Generated_Source\PSoC5/CAN.c ****         }
 666:.\Generated_Source\PSoC5/CAN.c ****     }
 667:.\Generated_Source\PSoC5/CAN.c **** 
 668:.\Generated_Source\PSoC5/CAN.c ****     return (result);
 1082              		.loc 1 668 0
 1083 0084 FB7B     		ldrb	r3, [r7, #15]	@ zero_extendqisi2
 669:.\Generated_Source\PSoC5/CAN.c **** }
 1084              		.loc 1 669 0
 1085 0086 1846     		mov	r0, r3
 1086 0088 07F11407 		add	r7, r7, #20
 1087 008c BD46     		mov	sp, r7
 1088 008e 80BC     		pop	{r7}
 1089 0090 7047     		bx	lr
 1090              		.cfi_endproc
 1091              	.LFE10:
ARM GAS  C:\Users\CHAIYA~1\AppData\Local\Temp\ccQBCuX6.s 			page 32


 1092              		.size	CAN_SetEdgeMode, .-CAN_SetEdgeMode
 1093 0092 00BF     		.section	.text.CAN_SetOpMode,"ax",%progbits
 1094              		.align	2
 1095              		.global	CAN_SetOpMode
 1096              		.thumb
 1097              		.thumb_func
 1098              		.type	CAN_SetOpMode, %function
 1099              	CAN_SetOpMode:
 1100              	.LFB11:
 670:.\Generated_Source\PSoC5/CAN.c **** 
 671:.\Generated_Source\PSoC5/CAN.c **** 
 672:.\Generated_Source\PSoC5/CAN.c **** /*******************************************************************************
 673:.\Generated_Source\PSoC5/CAN.c **** * FUNCTION NAME:   CAN_SetOpMode
 674:.\Generated_Source\PSoC5/CAN.c **** ********************************************************************************
 675:.\Generated_Source\PSoC5/CAN.c **** *
 676:.\Generated_Source\PSoC5/CAN.c **** * Summary:
 677:.\Generated_Source\PSoC5/CAN.c **** *  This function sets Operation Mode. Operations Modes are Active of Listen
 678:.\Generated_Source\PSoC5/CAN.c **** *  Only.
 679:.\Generated_Source\PSoC5/CAN.c **** *
 680:.\Generated_Source\PSoC5/CAN.c **** * Parameters:
 681:.\Generated_Source\PSoC5/CAN.c **** *  opMode: Operation Mode value.
 682:.\Generated_Source\PSoC5/CAN.c **** *   Define                             Description
 683:.\Generated_Source\PSoC5/CAN.c **** *    CAN_ACTIVE_MODE       Active mode
 684:.\Generated_Source\PSoC5/CAN.c **** *    CAN_LISTEN_ONLY       CAN listen only
 685:.\Generated_Source\PSoC5/CAN.c **** *
 686:.\Generated_Source\PSoC5/CAN.c **** * Return:
 687:.\Generated_Source\PSoC5/CAN.c **** *  Indication whether register is written and verified.
 688:.\Generated_Source\PSoC5/CAN.c **** *   Define                             Description
 689:.\Generated_Source\PSoC5/CAN.c **** *    CYRET_SUCCESS                      Function passed successfully
 690:.\Generated_Source\PSoC5/CAN.c **** *    CAN_FAIL              Function failed
 691:.\Generated_Source\PSoC5/CAN.c **** *
 692:.\Generated_Source\PSoC5/CAN.c **** *******************************************************************************/
 693:.\Generated_Source\PSoC5/CAN.c **** uint8 CAN_SetOpMode(uint8 opMode) 
 694:.\Generated_Source\PSoC5/CAN.c **** {
 1101              		.loc 1 694 0
 1102              		.cfi_startproc
 1103              		@ args = 0, pretend = 0, frame = 16
 1104              		@ frame_needed = 1, uses_anonymous_args = 0
 1105              		@ link register save eliminated.
 1106 0000 80B4     		push	{r7}
 1107              	.LCFI33:
 1108              		.cfi_def_cfa_offset 4
 1109              		.cfi_offset 7, -4
 1110 0002 85B0     		sub	sp, sp, #20
 1111              	.LCFI34:
 1112              		.cfi_def_cfa_offset 24
 1113 0004 00AF     		add	r7, sp, #0
 1114              	.LCFI35:
 1115              		.cfi_def_cfa_register 7
 1116 0006 0346     		mov	r3, r0
 1117 0008 FB71     		strb	r3, [r7, #7]
 695:.\Generated_Source\PSoC5/CAN.c ****     uint8 result = CAN_FAIL;
 1118              		.loc 1 695 0
 1119 000a 4FF00103 		mov	r3, #1
 1120 000e FB73     		strb	r3, [r7, #15]
 696:.\Generated_Source\PSoC5/CAN.c **** 
 697:.\Generated_Source\PSoC5/CAN.c ****     if (opMode == CAN_ACTIVE_MODE)
ARM GAS  C:\Users\CHAIYA~1\AppData\Local\Temp\ccQBCuX6.s 			page 33


 1121              		.loc 1 697 0
 1122 0010 FB79     		ldrb	r3, [r7, #7]	@ zero_extendqisi2
 1123 0012 002B     		cmp	r3, #0
 1124 0014 1BD1     		bne	.L51
 698:.\Generated_Source\PSoC5/CAN.c ****     {
 699:.\Generated_Source\PSoC5/CAN.c ****         /* CAN in Active mode */
 700:.\Generated_Source\PSoC5/CAN.c ****         CAN_CMD_REG.byte[0u] &= (uint8) (~CAN_OPMODE_MASK);
 1125              		.loc 1 700 0
 1126 0016 4AF21003 		movw	r3, #40976
 1127 001a C4F20003 		movt	r3, 16384
 1128 001e 4AF21002 		movw	r2, #40976
 1129 0022 C4F20002 		movt	r2, 16384
 1130 0026 1278     		ldrb	r2, [r2, #0]
 1131 0028 D2B2     		uxtb	r2, r2
 1132 002a 22F00202 		bic	r2, r2, #2
 1133 002e D2B2     		uxtb	r2, r2
 1134 0030 1A70     		strb	r2, [r3, #0]
 701:.\Generated_Source\PSoC5/CAN.c **** 
 702:.\Generated_Source\PSoC5/CAN.c ****         /* Verify that bit is cleared */
 703:.\Generated_Source\PSoC5/CAN.c ****         if ((CAN_CMD_REG.byte[0u] & CAN_OPMODE_MASK) == 0u)
 1135              		.loc 1 703 0
 1136 0032 4AF21003 		movw	r3, #40976
 1137 0036 C4F20003 		movt	r3, 16384
 1138 003a 1B78     		ldrb	r3, [r3, #0]
 1139 003c DBB2     		uxtb	r3, r3
 1140 003e 03F00203 		and	r3, r3, #2
 1141 0042 002B     		cmp	r3, #0
 1142 0044 1ED1     		bne	.L52
 704:.\Generated_Source\PSoC5/CAN.c ****         {
 705:.\Generated_Source\PSoC5/CAN.c ****             result = CYRET_SUCCESS;
 1143              		.loc 1 705 0
 1144 0046 4FF00003 		mov	r3, #0
 1145 004a FB73     		strb	r3, [r7, #15]
 1146 004c 1AE0     		b	.L52
 1147              	.L51:
 706:.\Generated_Source\PSoC5/CAN.c ****         }                
 707:.\Generated_Source\PSoC5/CAN.c ****     }
 708:.\Generated_Source\PSoC5/CAN.c ****     else
 709:.\Generated_Source\PSoC5/CAN.c ****     {
 710:.\Generated_Source\PSoC5/CAN.c ****         /* CAN listen only */
 711:.\Generated_Source\PSoC5/CAN.c ****         CAN_CMD_REG.byte[0u] |= CAN_OPMODE_MASK;
 1148              		.loc 1 711 0
 1149 004e 4AF21003 		movw	r3, #40976
 1150 0052 C4F20003 		movt	r3, 16384
 1151 0056 4AF21002 		movw	r2, #40976
 1152 005a C4F20002 		movt	r2, 16384
 1153 005e 1278     		ldrb	r2, [r2, #0]
 1154 0060 D2B2     		uxtb	r2, r2
 1155 0062 42F00202 		orr	r2, r2, #2
 1156 0066 D2B2     		uxtb	r2, r2
 1157 0068 1A70     		strb	r2, [r3, #0]
 712:.\Generated_Source\PSoC5/CAN.c **** 
 713:.\Generated_Source\PSoC5/CAN.c ****         /* Verify that bit is set */
 714:.\Generated_Source\PSoC5/CAN.c ****         if ((CAN_CMD_REG.byte[0u] & CAN_OPMODE_MASK) == CAN_OPMODE_MASK)
 1158              		.loc 1 714 0
 1159 006a 4AF21003 		movw	r3, #40976
 1160 006e C4F20003 		movt	r3, 16384
ARM GAS  C:\Users\CHAIYA~1\AppData\Local\Temp\ccQBCuX6.s 			page 34


 1161 0072 1B78     		ldrb	r3, [r3, #0]
 1162 0074 DBB2     		uxtb	r3, r3
 1163 0076 03F00203 		and	r3, r3, #2
 1164 007a 002B     		cmp	r3, #0
 1165 007c 02D0     		beq	.L52
 715:.\Generated_Source\PSoC5/CAN.c ****         {
 716:.\Generated_Source\PSoC5/CAN.c ****             result = CYRET_SUCCESS;
 1166              		.loc 1 716 0
 1167 007e 4FF00003 		mov	r3, #0
 1168 0082 FB73     		strb	r3, [r7, #15]
 1169              	.L52:
 717:.\Generated_Source\PSoC5/CAN.c ****         }
 718:.\Generated_Source\PSoC5/CAN.c ****     }
 719:.\Generated_Source\PSoC5/CAN.c **** 
 720:.\Generated_Source\PSoC5/CAN.c ****     return (result);
 1170              		.loc 1 720 0
 1171 0084 FB7B     		ldrb	r3, [r7, #15]	@ zero_extendqisi2
 721:.\Generated_Source\PSoC5/CAN.c **** }
 1172              		.loc 1 721 0
 1173 0086 1846     		mov	r0, r3
 1174 0088 07F11407 		add	r7, r7, #20
 1175 008c BD46     		mov	sp, r7
 1176 008e 80BC     		pop	{r7}
 1177 0090 7047     		bx	lr
 1178              		.cfi_endproc
 1179              	.LFE11:
 1180              		.size	CAN_SetOpMode, .-CAN_SetOpMode
 1181 0092 00BF     		.section	.text.CAN_RXRegisterInit,"ax",%progbits
 1182              		.align	2
 1183              		.global	CAN_RXRegisterInit
 1184              		.thumb
 1185              		.thumb_func
 1186              		.type	CAN_RXRegisterInit, %function
 1187              	CAN_RXRegisterInit:
 1188              	.LFB12:
 722:.\Generated_Source\PSoC5/CAN.c **** 
 723:.\Generated_Source\PSoC5/CAN.c **** 
 724:.\Generated_Source\PSoC5/CAN.c **** /*******************************************************************************
 725:.\Generated_Source\PSoC5/CAN.c **** * FUNCTION NAME:   CAN_RXRegisterInit
 726:.\Generated_Source\PSoC5/CAN.c **** ********************************************************************************
 727:.\Generated_Source\PSoC5/CAN.c **** *
 728:.\Generated_Source\PSoC5/CAN.c **** * Summary:
 729:.\Generated_Source\PSoC5/CAN.c **** *  This function writes only receive CAN registers.
 730:.\Generated_Source\PSoC5/CAN.c **** *
 731:.\Generated_Source\PSoC5/CAN.c **** * Parameters:
 732:.\Generated_Source\PSoC5/CAN.c **** *  regAddr: Pointer to CAN receive register;
 733:.\Generated_Source\PSoC5/CAN.c **** *  config:  Value that will be written in register.
 734:.\Generated_Source\PSoC5/CAN.c **** *
 735:.\Generated_Source\PSoC5/CAN.c **** * Return:
 736:.\Generated_Source\PSoC5/CAN.c **** *  Indication whether register is written and verified.
 737:.\Generated_Source\PSoC5/CAN.c **** *   Define                             Description
 738:.\Generated_Source\PSoC5/CAN.c **** *    CYRET_SUCCESS                      Function passed successfully
 739:.\Generated_Source\PSoC5/CAN.c **** *    CAN_FAIL              Function failed
 740:.\Generated_Source\PSoC5/CAN.c **** *    CAN_OUT_OF_RANGE      Function parameter is out of range
 741:.\Generated_Source\PSoC5/CAN.c **** *
 742:.\Generated_Source\PSoC5/CAN.c **** *******************************************************************************/
 743:.\Generated_Source\PSoC5/CAN.c **** uint8 CAN_RXRegisterInit(reg32 *regAddr, uint32 config)
ARM GAS  C:\Users\CHAIYA~1\AppData\Local\Temp\ccQBCuX6.s 			page 35


 744:.\Generated_Source\PSoC5/CAN.c ****                                       
 745:.\Generated_Source\PSoC5/CAN.c **** {
 1189              		.loc 1 745 0
 1190              		.cfi_startproc
 1191              		@ args = 0, pretend = 0, frame = 16
 1192              		@ frame_needed = 1, uses_anonymous_args = 0
 1193              		@ link register save eliminated.
 1194 0000 80B4     		push	{r7}
 1195              	.LCFI36:
 1196              		.cfi_def_cfa_offset 4
 1197              		.cfi_offset 7, -4
 1198 0002 85B0     		sub	sp, sp, #20
 1199              	.LCFI37:
 1200              		.cfi_def_cfa_offset 24
 1201 0004 00AF     		add	r7, sp, #0
 1202              	.LCFI38:
 1203              		.cfi_def_cfa_register 7
 1204 0006 7860     		str	r0, [r7, #4]
 1205 0008 3960     		str	r1, [r7, #0]
 746:.\Generated_Source\PSoC5/CAN.c ****     uint8 result = CAN_OUT_OF_RANGE;    
 1206              		.loc 1 746 0
 1207 000a 4FF00203 		mov	r3, #2
 1208 000e FB73     		strb	r3, [r7, #15]
 747:.\Generated_Source\PSoC5/CAN.c ****     
 748:.\Generated_Source\PSoC5/CAN.c ****     if ((((uint32) regAddr & 0x0000FFFFu) >= ((uint32) CAN_RX_FIRST_REGISTER_PTR & 0x0000FFFFu)) &&
 1209              		.loc 1 748 0
 1210 0010 7B68     		ldr	r3, [r7, #4]
 1211 0012 4FEA0343 		lsl	r3, r3, #16
 1212 0016 4FEA1343 		lsr	r3, r3, #16
 1213 001a 4AF29F02 		movw	r2, #41119
 1214 001e 9342     		cmp	r3, r2
 1215 0020 4AD9     		bls	.L55
 749:.\Generated_Source\PSoC5/CAN.c ****          ((((uint32) regAddr & 0x0000FFFFu)) <= ((uint32) CAN_RX_LAST_REGISTER_PTR & 0x0000FFFFu)))
 1216              		.loc 1 749 0 discriminator 1
 1217 0022 7B68     		ldr	r3, [r7, #4]
 1218 0024 4FEA0343 		lsl	r3, r3, #16
 1219 0028 4FEA1343 		lsr	r3, r3, #16
 748:.\Generated_Source\PSoC5/CAN.c ****     if ((((uint32) regAddr & 0x0000FFFFu) >= ((uint32) CAN_RX_FIRST_REGISTER_PTR & 0x0000FFFFu)) &&
 1220              		.loc 1 748 0 discriminator 1
 1221 002c 4AF29C22 		movw	r2, #41628
 1222 0030 9342     		cmp	r3, r2
 1223 0032 41D8     		bhi	.L55
 750:.\Generated_Source\PSoC5/CAN.c ****     {
 751:.\Generated_Source\PSoC5/CAN.c ****         result = CAN_FAIL;
 1224              		.loc 1 751 0
 1225 0034 4FF00103 		mov	r3, #1
 1226 0038 FB73     		strb	r3, [r7, #15]
 752:.\Generated_Source\PSoC5/CAN.c ****         
 753:.\Generated_Source\PSoC5/CAN.c ****         if ((((uint32) regAddr & 0x0000FFFFu) % CAN_RX_CMD_REG_WIDTH) == 0u)
 1227              		.loc 1 753 0
 1228 003a 7B68     		ldr	r3, [r7, #4]
 1229 003c 03F01F03 		and	r3, r3, #31
 1230 0040 002B     		cmp	r3, #0
 1231 0042 20D1     		bne	.L56
 754:.\Generated_Source\PSoC5/CAN.c ****         {
 755:.\Generated_Source\PSoC5/CAN.c ****             config |= CAN_RX_WPN_SET;
 1232              		.loc 1 755 0
ARM GAS  C:\Users\CHAIYA~1\AppData\Local\Temp\ccQBCuX6.s 			page 36


 1233 0044 3B68     		ldr	r3, [r7, #0]
 1234 0046 43F08013 		orr	r3, r3, #8388736
 1235 004a 3B60     		str	r3, [r7, #0]
 756:.\Generated_Source\PSoC5/CAN.c ****             
 757:.\Generated_Source\PSoC5/CAN.c ****     /* Disable isr */
 758:.\Generated_Source\PSoC5/CAN.c ****     CyIntDisable(CAN_ISR_NUMBER);
 1236              		.loc 1 758 0
 1237 004c 4EF28013 		movw	r3, #57728
 1238 0050 CEF20003 		movt	r3, 57344
 1239 0054 4FF48032 		mov	r2, #65536
 1240 0058 1A60     		str	r2, [r3, #0]
 759:.\Generated_Source\PSoC5/CAN.c **** 
 760:.\Generated_Source\PSoC5/CAN.c ****             /* Write defined RX CMD registers */
 761:.\Generated_Source\PSoC5/CAN.c ****             CY_SET_REG32(regAddr, config);
 1241              		.loc 1 761 0
 1242 005a 7B68     		ldr	r3, [r7, #4]
 1243 005c 3A68     		ldr	r2, [r7, #0]
 1244 005e 1A60     		str	r2, [r3, #0]
 762:.\Generated_Source\PSoC5/CAN.c ****             
 763:.\Generated_Source\PSoC5/CAN.c ****     /* Enable isr */
 764:.\Generated_Source\PSoC5/CAN.c ****     CyIntEnable(CAN_ISR_NUMBER);
 1245              		.loc 1 764 0
 1246 0060 4FF46143 		mov	r3, #57600
 1247 0064 CEF20003 		movt	r3, 57344
 1248 0068 4FF48032 		mov	r2, #65536
 1249 006c 1A60     		str	r2, [r3, #0]
 765:.\Generated_Source\PSoC5/CAN.c **** 
 766:.\Generated_Source\PSoC5/CAN.c ****             /* Verify register */
 767:.\Generated_Source\PSoC5/CAN.c ****             if ((CY_GET_REG32(regAddr) & CAN_RX_READ_BACK_MASK) ==
 1250              		.loc 1 767 0
 1251 006e 7B68     		ldr	r3, [r7, #4]
 1252 0070 1A68     		ldr	r2, [r3, #0]
 1253 0072 3B68     		ldr	r3, [r7, #0]
 1254 0074 5340     		eors	r3, r3, r2
 1255 0076 03F07F13 		and	r3, r3, #8323199
 1256 007a 002B     		cmp	r3, #0
 1257 007c 1CD1     		bne	.L55
 768:.\Generated_Source\PSoC5/CAN.c ****                 (config & CAN_RX_READ_BACK_MASK))
 769:.\Generated_Source\PSoC5/CAN.c ****             {
 770:.\Generated_Source\PSoC5/CAN.c ****                 result = CYRET_SUCCESS;
 1258              		.loc 1 770 0
 1259 007e 4FF00003 		mov	r3, #0
 1260 0082 FB73     		strb	r3, [r7, #15]
 1261 0084 18E0     		b	.L55
 1262              	.L56:
 771:.\Generated_Source\PSoC5/CAN.c ****             }
 772:.\Generated_Source\PSoC5/CAN.c ****         }
 773:.\Generated_Source\PSoC5/CAN.c ****         /* All registers except RX CMD*/
 774:.\Generated_Source\PSoC5/CAN.c ****         else
 775:.\Generated_Source\PSoC5/CAN.c ****         {            
 776:.\Generated_Source\PSoC5/CAN.c ****     /* Disable isr */
 777:.\Generated_Source\PSoC5/CAN.c ****     CyIntDisable(CAN_ISR_NUMBER);
 1263              		.loc 1 777 0
 1264 0086 4EF28013 		movw	r3, #57728
 1265 008a CEF20003 		movt	r3, 57344
 1266 008e 4FF48032 		mov	r2, #65536
 1267 0092 1A60     		str	r2, [r3, #0]
ARM GAS  C:\Users\CHAIYA~1\AppData\Local\Temp\ccQBCuX6.s 			page 37


 778:.\Generated_Source\PSoC5/CAN.c **** 
 779:.\Generated_Source\PSoC5/CAN.c ****             /* Write defined CAN receive register */
 780:.\Generated_Source\PSoC5/CAN.c ****             CY_SET_REG32(regAddr, config);
 1268              		.loc 1 780 0
 1269 0094 7B68     		ldr	r3, [r7, #4]
 1270 0096 3A68     		ldr	r2, [r7, #0]
 1271 0098 1A60     		str	r2, [r3, #0]
 781:.\Generated_Source\PSoC5/CAN.c ****             
 782:.\Generated_Source\PSoC5/CAN.c ****     /* Enable isr */
 783:.\Generated_Source\PSoC5/CAN.c ****     CyIntEnable(CAN_ISR_NUMBER);
 1272              		.loc 1 783 0
 1273 009a 4FF46143 		mov	r3, #57600
 1274 009e CEF20003 		movt	r3, 57344
 1275 00a2 4FF48032 		mov	r2, #65536
 1276 00a6 1A60     		str	r2, [r3, #0]
 784:.\Generated_Source\PSoC5/CAN.c **** 
 785:.\Generated_Source\PSoC5/CAN.c ****             /* Verify register */
 786:.\Generated_Source\PSoC5/CAN.c ****             if (CY_GET_REG32(regAddr) == config)
 1277              		.loc 1 786 0
 1278 00a8 7B68     		ldr	r3, [r7, #4]
 1279 00aa 1A68     		ldr	r2, [r3, #0]
 1280 00ac 3B68     		ldr	r3, [r7, #0]
 1281 00ae 9A42     		cmp	r2, r3
 1282 00b0 02D1     		bne	.L55
 787:.\Generated_Source\PSoC5/CAN.c ****             {
 788:.\Generated_Source\PSoC5/CAN.c ****                 result = CYRET_SUCCESS;
 1283              		.loc 1 788 0
 1284 00b2 4FF00003 		mov	r3, #0
 1285 00b6 FB73     		strb	r3, [r7, #15]
 1286              	.L55:
 789:.\Generated_Source\PSoC5/CAN.c ****             }
 790:.\Generated_Source\PSoC5/CAN.c ****         }
 791:.\Generated_Source\PSoC5/CAN.c ****     }
 792:.\Generated_Source\PSoC5/CAN.c ****     
 793:.\Generated_Source\PSoC5/CAN.c ****     return (result);
 1287              		.loc 1 793 0
 1288 00b8 FB7B     		ldrb	r3, [r7, #15]	@ zero_extendqisi2
 794:.\Generated_Source\PSoC5/CAN.c **** }
 1289              		.loc 1 794 0
 1290 00ba 1846     		mov	r0, r3
 1291 00bc 07F11407 		add	r7, r7, #20
 1292 00c0 BD46     		mov	sp, r7
 1293 00c2 80BC     		pop	{r7}
 1294 00c4 7047     		bx	lr
 1295              		.cfi_endproc
 1296              	.LFE12:
 1297              		.size	CAN_RXRegisterInit, .-CAN_RXRegisterInit
 1298 00c6 00BF     		.section	.text.CAN_SetIrqMask,"ax",%progbits
 1299              		.align	2
 1300              		.global	CAN_SetIrqMask
 1301              		.thumb
 1302              		.thumb_func
 1303              		.type	CAN_SetIrqMask, %function
 1304              	CAN_SetIrqMask:
 1305              	.LFB13:
 795:.\Generated_Source\PSoC5/CAN.c **** 
 796:.\Generated_Source\PSoC5/CAN.c **** 
ARM GAS  C:\Users\CHAIYA~1\AppData\Local\Temp\ccQBCuX6.s 			page 38


 797:.\Generated_Source\PSoC5/CAN.c **** /*******************************************************************************
 798:.\Generated_Source\PSoC5/CAN.c **** * FUNCTION NAME:   CAN_SetIrqMask
 799:.\Generated_Source\PSoC5/CAN.c **** ********************************************************************************
 800:.\Generated_Source\PSoC5/CAN.c **** *
 801:.\Generated_Source\PSoC5/CAN.c **** * Summary:
 802:.\Generated_Source\PSoC5/CAN.c **** *  This function sets to enable/disable particular interrupt sources. Interrupt
 803:.\Generated_Source\PSoC5/CAN.c **** *  Mask directly write to CAN Interrupt Enable register. A particular interrupt
 804:.\Generated_Source\PSoC5/CAN.c **** *  source is enabled by setting its respective flag to 1.
 805:.\Generated_Source\PSoC5/CAN.c **** *
 806:.\Generated_Source\PSoC5/CAN.c **** * Parameters:
 807:.\Generated_Source\PSoC5/CAN.c **** *  mask: Interrupt enable/disable request. 1 bit per interrupt source.
 808:.\Generated_Source\PSoC5/CAN.c **** *   Define                                    Description
 809:.\Generated_Source\PSoC5/CAN.c **** *    CAN_GLOBAL_INT_ENABLE        Global Interrupt Enable Flag
 810:.\Generated_Source\PSoC5/CAN.c **** *    CAN_ARBITRATION_LOST_ENABLE  Arbitration Loss Interrupt Enable
 811:.\Generated_Source\PSoC5/CAN.c **** *    CAN_OVERLOAD_ERROR_ENABLE    Overload Interrupt Enable
 812:.\Generated_Source\PSoC5/CAN.c **** *    CAN_BIT_ERROR_ENABLE         Bit Error Interrupt Enable
 813:.\Generated_Source\PSoC5/CAN.c **** *    CAN_STUFF_ERROR_ENABLE       Stuff Error Interrupt Enable
 814:.\Generated_Source\PSoC5/CAN.c **** *    CAN_ACK_ERROR_ENABLE         Ack Error Interrupt Enable
 815:.\Generated_Source\PSoC5/CAN.c **** *    CAN_FORM_ERROR_ENABLE        Form Error Interrupt Enable
 816:.\Generated_Source\PSoC5/CAN.c **** *    CAN_CRC_ERROR_ENABLE         CRC Error Interrupt Enable
 817:.\Generated_Source\PSoC5/CAN.c **** *    CAN_BUS_OFF_ENABLE           Busoff State Interrupt Enable
 818:.\Generated_Source\PSoC5/CAN.c **** *    CAN_RX_MSG_LOST_ENABLE       Rx Msg Loss Interrupt Enable
 819:.\Generated_Source\PSoC5/CAN.c **** *    CAN_TX_MESSAGE_ENABLE        Tx Msg Sent Interrupt Enable
 820:.\Generated_Source\PSoC5/CAN.c **** *    CAN_RX_MESSAGE_ENABLE        Msg Recived Interrupt Enable
 821:.\Generated_Source\PSoC5/CAN.c **** *
 822:.\Generated_Source\PSoC5/CAN.c **** * Return:
 823:.\Generated_Source\PSoC5/CAN.c **** *  Indication whether register is written and verified.
 824:.\Generated_Source\PSoC5/CAN.c **** *   Define                             Description
 825:.\Generated_Source\PSoC5/CAN.c **** *    CYRET_SUCCESS                      Function passed successfully
 826:.\Generated_Source\PSoC5/CAN.c **** *    CAN_FAIL              Function failed
 827:.\Generated_Source\PSoC5/CAN.c **** *
 828:.\Generated_Source\PSoC5/CAN.c **** *******************************************************************************/
 829:.\Generated_Source\PSoC5/CAN.c **** uint8 CAN_SetIrqMask(uint16 mask) 
 830:.\Generated_Source\PSoC5/CAN.c **** {
 1306              		.loc 1 830 0
 1307              		.cfi_startproc
 1308              		@ args = 0, pretend = 0, frame = 16
 1309              		@ frame_needed = 1, uses_anonymous_args = 0
 1310              		@ link register save eliminated.
 1311 0000 80B4     		push	{r7}
 1312              	.LCFI39:
 1313              		.cfi_def_cfa_offset 4
 1314              		.cfi_offset 7, -4
 1315 0002 85B0     		sub	sp, sp, #20
 1316              	.LCFI40:
 1317              		.cfi_def_cfa_offset 24
 1318 0004 00AF     		add	r7, sp, #0
 1319              	.LCFI41:
 1320              		.cfi_def_cfa_register 7
 1321 0006 0346     		mov	r3, r0
 1322 0008 FB80     		strh	r3, [r7, #6]	@ movhi
 831:.\Generated_Source\PSoC5/CAN.c ****     uint8 result = CAN_FAIL;
 1323              		.loc 1 831 0
 1324 000a 4FF00103 		mov	r3, #1
 1325 000e FB73     		strb	r3, [r7, #15]
 832:.\Generated_Source\PSoC5/CAN.c **** 
 833:.\Generated_Source\PSoC5/CAN.c ****     /* Write byte 0 and 1 of CAN_INT_EN_REG register */
ARM GAS  C:\Users\CHAIYA~1\AppData\Local\Temp\ccQBCuX6.s 			page 39


 834:.\Generated_Source\PSoC5/CAN.c ****     CY_SET_REG16((reg16 *) &CAN_INT_EN_REG, mask);
 1326              		.loc 1 834 0
 1327 0010 4AF20403 		movw	r3, #40964
 1328 0014 C4F20003 		movt	r3, 16384
 1329 0018 FA88     		ldrh	r2, [r7, #6]	@ movhi
 1330 001a 1A80     		strh	r2, [r3, #0]	@ movhi
 835:.\Generated_Source\PSoC5/CAN.c **** 
 836:.\Generated_Source\PSoC5/CAN.c ****     /* Verify CAN_INT_EN_REG register */
 837:.\Generated_Source\PSoC5/CAN.c ****     if (CY_GET_REG16((reg16 *) &CAN_INT_EN_REG) == mask)
 1331              		.loc 1 837 0
 1332 001c 4AF20403 		movw	r3, #40964
 1333 0020 C4F20003 		movt	r3, 16384
 1334 0024 1B88     		ldrh	r3, [r3, #0]	@ movhi
 1335 0026 9BB2     		uxth	r3, r3
 1336 0028 FA88     		ldrh	r2, [r7, #6]
 1337 002a 9A42     		cmp	r2, r3
 1338 002c 02D1     		bne	.L59
 838:.\Generated_Source\PSoC5/CAN.c ****     {
 839:.\Generated_Source\PSoC5/CAN.c ****         result = CYRET_SUCCESS;
 1339              		.loc 1 839 0
 1340 002e 4FF00003 		mov	r3, #0
 1341 0032 FB73     		strb	r3, [r7, #15]
 1342              	.L59:
 840:.\Generated_Source\PSoC5/CAN.c ****     }
 841:.\Generated_Source\PSoC5/CAN.c **** 
 842:.\Generated_Source\PSoC5/CAN.c ****     return (result);
 1343              		.loc 1 842 0
 1344 0034 FB7B     		ldrb	r3, [r7, #15]	@ zero_extendqisi2
 843:.\Generated_Source\PSoC5/CAN.c **** }
 1345              		.loc 1 843 0
 1346 0036 1846     		mov	r0, r3
 1347 0038 07F11407 		add	r7, r7, #20
 1348 003c BD46     		mov	sp, r7
 1349 003e 80BC     		pop	{r7}
 1350 0040 7047     		bx	lr
 1351              		.cfi_endproc
 1352              	.LFE13:
 1353              		.size	CAN_SetIrqMask, .-CAN_SetIrqMask
 1354 0042 00BF     		.section	.text.CAN_GetTXErrorFlag,"ax",%progbits
 1355              		.align	2
 1356              		.global	CAN_GetTXErrorFlag
 1357              		.thumb
 1358              		.thumb_func
 1359              		.type	CAN_GetTXErrorFlag, %function
 1360              	CAN_GetTXErrorFlag:
 1361              	.LFB14:
 844:.\Generated_Source\PSoC5/CAN.c **** 
 845:.\Generated_Source\PSoC5/CAN.c **** 
 846:.\Generated_Source\PSoC5/CAN.c **** /*******************************************************************************
 847:.\Generated_Source\PSoC5/CAN.c **** * FUNCTION NAME:   CAN_GetTXErrorflag
 848:.\Generated_Source\PSoC5/CAN.c **** ********************************************************************************
 849:.\Generated_Source\PSoC5/CAN.c **** *
 850:.\Generated_Source\PSoC5/CAN.c **** * Summary:
 851:.\Generated_Source\PSoC5/CAN.c **** *  This function returns the bit that indicates if the number of TX errors
 852:.\Generated_Source\PSoC5/CAN.c **** *  exceeds 0x60.
 853:.\Generated_Source\PSoC5/CAN.c **** *
 854:.\Generated_Source\PSoC5/CAN.c **** * Parameters:
ARM GAS  C:\Users\CHAIYA~1\AppData\Local\Temp\ccQBCuX6.s 			page 40


 855:.\Generated_Source\PSoC5/CAN.c **** *  None.
 856:.\Generated_Source\PSoC5/CAN.c **** *
 857:.\Generated_Source\PSoC5/CAN.c **** * Return:
 858:.\Generated_Source\PSoC5/CAN.c **** *  Indication whether the number of TX errors exceeds 0x60.
 859:.\Generated_Source\PSoC5/CAN.c **** *
 860:.\Generated_Source\PSoC5/CAN.c **** *******************************************************************************/
 861:.\Generated_Source\PSoC5/CAN.c **** uint8 CAN_GetTXErrorFlag(void) 
 862:.\Generated_Source\PSoC5/CAN.c **** {
 1362              		.loc 1 862 0
 1363              		.cfi_startproc
 1364              		@ args = 0, pretend = 0, frame = 0
 1365              		@ frame_needed = 1, uses_anonymous_args = 0
 1366              		@ link register save eliminated.
 1367 0000 80B4     		push	{r7}
 1368              	.LCFI42:
 1369              		.cfi_def_cfa_offset 4
 1370              		.cfi_offset 7, -4
 1371 0002 00AF     		add	r7, sp, #0
 1372              	.LCFI43:
 1373              		.cfi_def_cfa_register 7
 863:.\Generated_Source\PSoC5/CAN.c ****     /* Get the state of the transmit error flag */
 864:.\Generated_Source\PSoC5/CAN.c ****     return (((CAN_ERR_SR_REG.byte[2u] & CAN_TX_ERROR_FLAG_MASK) ==
 1374              		.loc 1 864 0
 1375 0004 4AF20C03 		movw	r3, #40972
 1376 0008 C4F20003 		movt	r3, 16384
 1377 000c 9B78     		ldrb	r3, [r3, #2]
 1378 000e DBB2     		uxtb	r3, r3
 1379 0010 03F00403 		and	r3, r3, #4
 1380 0014 002B     		cmp	r3, #0
 1381 0016 02D0     		beq	.L62
 1382              		.loc 1 864 0 is_stmt 0 discriminator 1
 1383 0018 4FF00103 		mov	r3, #1
 1384 001c 01E0     		b	.L63
 1385              	.L62:
 1386              		.loc 1 864 0 discriminator 2
 1387 001e 4FF00003 		mov	r3, #0
 1388              	.L63:
 865:.\Generated_Source\PSoC5/CAN.c ****               CAN_TX_ERROR_FLAG_MASK) ? 1u : 0u);
 866:.\Generated_Source\PSoC5/CAN.c **** }
 1389              		.loc 1 866 0 is_stmt 1 discriminator 3
 1390 0022 1846     		mov	r0, r3
 1391 0024 BD46     		mov	sp, r7
 1392 0026 80BC     		pop	{r7}
 1393 0028 7047     		bx	lr
 1394              		.cfi_endproc
 1395              	.LFE14:
 1396              		.size	CAN_GetTXErrorFlag, .-CAN_GetTXErrorFlag
 1397 002a 00BF     		.section	.text.CAN_GetRXErrorFlag,"ax",%progbits
 1398              		.align	2
 1399              		.global	CAN_GetRXErrorFlag
 1400              		.thumb
 1401              		.thumb_func
 1402              		.type	CAN_GetRXErrorFlag, %function
 1403              	CAN_GetRXErrorFlag:
 1404              	.LFB15:
 867:.\Generated_Source\PSoC5/CAN.c **** 
 868:.\Generated_Source\PSoC5/CAN.c **** 
ARM GAS  C:\Users\CHAIYA~1\AppData\Local\Temp\ccQBCuX6.s 			page 41


 869:.\Generated_Source\PSoC5/CAN.c **** /*******************************************************************************
 870:.\Generated_Source\PSoC5/CAN.c **** * FUNCTION NAME:   CAN_GetRXErrorFlag
 871:.\Generated_Source\PSoC5/CAN.c **** ********************************************************************************
 872:.\Generated_Source\PSoC5/CAN.c **** *
 873:.\Generated_Source\PSoC5/CAN.c **** * Summary:
 874:.\Generated_Source\PSoC5/CAN.c **** *  This function returns the bit that indicates if the number of RX errors
 875:.\Generated_Source\PSoC5/CAN.c **** *  exceeds 0x60.
 876:.\Generated_Source\PSoC5/CAN.c **** *
 877:.\Generated_Source\PSoC5/CAN.c **** * Parameters:
 878:.\Generated_Source\PSoC5/CAN.c **** *  None.
 879:.\Generated_Source\PSoC5/CAN.c **** *
 880:.\Generated_Source\PSoC5/CAN.c **** * Return:
 881:.\Generated_Source\PSoC5/CAN.c **** *  Indication whether the number of TX errors exceeds 0x60.
 882:.\Generated_Source\PSoC5/CAN.c **** *
 883:.\Generated_Source\PSoC5/CAN.c **** *******************************************************************************/
 884:.\Generated_Source\PSoC5/CAN.c **** uint8 CAN_GetRXErrorFlag(void) 
 885:.\Generated_Source\PSoC5/CAN.c **** {
 1405              		.loc 1 885 0
 1406              		.cfi_startproc
 1407              		@ args = 0, pretend = 0, frame = 0
 1408              		@ frame_needed = 1, uses_anonymous_args = 0
 1409              		@ link register save eliminated.
 1410 0000 80B4     		push	{r7}
 1411              	.LCFI44:
 1412              		.cfi_def_cfa_offset 4
 1413              		.cfi_offset 7, -4
 1414 0002 00AF     		add	r7, sp, #0
 1415              	.LCFI45:
 1416              		.cfi_def_cfa_register 7
 886:.\Generated_Source\PSoC5/CAN.c ****     /* Get the state of the receive error flag */
 887:.\Generated_Source\PSoC5/CAN.c ****     return (((CAN_ERR_SR_REG.byte[2u] & CAN_RX_ERROR_FLAG_MASK) ==
 1417              		.loc 1 887 0
 1418 0004 4AF20C03 		movw	r3, #40972
 1419 0008 C4F20003 		movt	r3, 16384
 1420 000c 9B78     		ldrb	r3, [r3, #2]
 1421 000e DBB2     		uxtb	r3, r3
 1422 0010 03F00803 		and	r3, r3, #8
 1423 0014 002B     		cmp	r3, #0
 1424 0016 02D0     		beq	.L66
 1425              		.loc 1 887 0 is_stmt 0 discriminator 1
 1426 0018 4FF00103 		mov	r3, #1
 1427 001c 01E0     		b	.L67
 1428              	.L66:
 1429              		.loc 1 887 0 discriminator 2
 1430 001e 4FF00003 		mov	r3, #0
 1431              	.L67:
 888:.\Generated_Source\PSoC5/CAN.c ****               CAN_RX_ERROR_FLAG_MASK) ? 1u : 0u);
 889:.\Generated_Source\PSoC5/CAN.c **** }
 1432              		.loc 1 889 0 is_stmt 1 discriminator 3
 1433 0022 1846     		mov	r0, r3
 1434 0024 BD46     		mov	sp, r7
 1435 0026 80BC     		pop	{r7}
 1436 0028 7047     		bx	lr
 1437              		.cfi_endproc
 1438              	.LFE15:
 1439              		.size	CAN_GetRXErrorFlag, .-CAN_GetRXErrorFlag
 1440 002a 00BF     		.section	.text.CAN_GetTXErrorCount,"ax",%progbits
ARM GAS  C:\Users\CHAIYA~1\AppData\Local\Temp\ccQBCuX6.s 			page 42


 1441              		.align	2
 1442              		.global	CAN_GetTXErrorCount
 1443              		.thumb
 1444              		.thumb_func
 1445              		.type	CAN_GetTXErrorCount, %function
 1446              	CAN_GetTXErrorCount:
 1447              	.LFB16:
 890:.\Generated_Source\PSoC5/CAN.c **** 
 891:.\Generated_Source\PSoC5/CAN.c **** 
 892:.\Generated_Source\PSoC5/CAN.c **** /*******************************************************************************
 893:.\Generated_Source\PSoC5/CAN.c **** * FUNCTION NAME:   CAN_TXErrorCount
 894:.\Generated_Source\PSoC5/CAN.c **** ********************************************************************************
 895:.\Generated_Source\PSoC5/CAN.c **** *
 896:.\Generated_Source\PSoC5/CAN.c **** * Summary:
 897:.\Generated_Source\PSoC5/CAN.c **** *  This function returns the number of Transmit Errors.
 898:.\Generated_Source\PSoC5/CAN.c **** *
 899:.\Generated_Source\PSoC5/CAN.c **** * Parameters:
 900:.\Generated_Source\PSoC5/CAN.c **** *  None.
 901:.\Generated_Source\PSoC5/CAN.c **** *
 902:.\Generated_Source\PSoC5/CAN.c **** * Return:
 903:.\Generated_Source\PSoC5/CAN.c **** *  Number of Transmit Errors.
 904:.\Generated_Source\PSoC5/CAN.c **** *
 905:.\Generated_Source\PSoC5/CAN.c **** *******************************************************************************/
 906:.\Generated_Source\PSoC5/CAN.c **** uint8 CAN_GetTXErrorCount(void) 
 907:.\Generated_Source\PSoC5/CAN.c **** {
 1448              		.loc 1 907 0
 1449              		.cfi_startproc
 1450              		@ args = 0, pretend = 0, frame = 0
 1451              		@ frame_needed = 1, uses_anonymous_args = 0
 1452              		@ link register save eliminated.
 1453 0000 80B4     		push	{r7}
 1454              	.LCFI46:
 1455              		.cfi_def_cfa_offset 4
 1456              		.cfi_offset 7, -4
 1457 0002 00AF     		add	r7, sp, #0
 1458              	.LCFI47:
 1459              		.cfi_def_cfa_register 7
 908:.\Generated_Source\PSoC5/CAN.c ****     /* Get the state of the transmit error count */
 909:.\Generated_Source\PSoC5/CAN.c ****     return (CAN_ERR_SR_REG.byte[0u]);    /* bits 7-0 */
 1460              		.loc 1 909 0
 1461 0004 4AF20C03 		movw	r3, #40972
 1462 0008 C4F20003 		movt	r3, 16384
 1463 000c 1B78     		ldrb	r3, [r3, #0]
 1464 000e DBB2     		uxtb	r3, r3
 910:.\Generated_Source\PSoC5/CAN.c **** }
 1465              		.loc 1 910 0
 1466 0010 1846     		mov	r0, r3
 1467 0012 BD46     		mov	sp, r7
 1468 0014 80BC     		pop	{r7}
 1469 0016 7047     		bx	lr
 1470              		.cfi_endproc
 1471              	.LFE16:
 1472              		.size	CAN_GetTXErrorCount, .-CAN_GetTXErrorCount
 1473              		.section	.text.CAN_GetRXErrorCount,"ax",%progbits
 1474              		.align	2
 1475              		.global	CAN_GetRXErrorCount
 1476              		.thumb
ARM GAS  C:\Users\CHAIYA~1\AppData\Local\Temp\ccQBCuX6.s 			page 43


 1477              		.thumb_func
 1478              		.type	CAN_GetRXErrorCount, %function
 1479              	CAN_GetRXErrorCount:
 1480              	.LFB17:
 911:.\Generated_Source\PSoC5/CAN.c **** 
 912:.\Generated_Source\PSoC5/CAN.c **** 
 913:.\Generated_Source\PSoC5/CAN.c **** /*******************************************************************************
 914:.\Generated_Source\PSoC5/CAN.c **** * FUNCTION NAME:   CAN_RXErrorCount
 915:.\Generated_Source\PSoC5/CAN.c **** ********************************************************************************
 916:.\Generated_Source\PSoC5/CAN.c **** *
 917:.\Generated_Source\PSoC5/CAN.c **** * Summary:
 918:.\Generated_Source\PSoC5/CAN.c **** *  This function returns the number of Receive Errors.
 919:.\Generated_Source\PSoC5/CAN.c **** *
 920:.\Generated_Source\PSoC5/CAN.c **** * Parameters:
 921:.\Generated_Source\PSoC5/CAN.c **** *  None.
 922:.\Generated_Source\PSoC5/CAN.c **** *
 923:.\Generated_Source\PSoC5/CAN.c **** * Return:
 924:.\Generated_Source\PSoC5/CAN.c **** *  Number of Receive Errors.
 925:.\Generated_Source\PSoC5/CAN.c **** *
 926:.\Generated_Source\PSoC5/CAN.c **** *******************************************************************************/
 927:.\Generated_Source\PSoC5/CAN.c **** uint8 CAN_GetRXErrorCount(void) 
 928:.\Generated_Source\PSoC5/CAN.c **** {
 1481              		.loc 1 928 0
 1482              		.cfi_startproc
 1483              		@ args = 0, pretend = 0, frame = 0
 1484              		@ frame_needed = 1, uses_anonymous_args = 0
 1485              		@ link register save eliminated.
 1486 0000 80B4     		push	{r7}
 1487              	.LCFI48:
 1488              		.cfi_def_cfa_offset 4
 1489              		.cfi_offset 7, -4
 1490 0002 00AF     		add	r7, sp, #0
 1491              	.LCFI49:
 1492              		.cfi_def_cfa_register 7
 929:.\Generated_Source\PSoC5/CAN.c ****     /* Get the state of the receive error count */
 930:.\Generated_Source\PSoC5/CAN.c ****     return (CAN_ERR_SR_REG.byte[1u]);    /* bits 15-8 */
 1493              		.loc 1 930 0
 1494 0004 4AF20C03 		movw	r3, #40972
 1495 0008 C4F20003 		movt	r3, 16384
 1496 000c 5B78     		ldrb	r3, [r3, #1]
 1497 000e DBB2     		uxtb	r3, r3
 931:.\Generated_Source\PSoC5/CAN.c **** }
 1498              		.loc 1 931 0
 1499 0010 1846     		mov	r0, r3
 1500 0012 BD46     		mov	sp, r7
 1501 0014 80BC     		pop	{r7}
 1502 0016 7047     		bx	lr
 1503              		.cfi_endproc
 1504              	.LFE17:
 1505              		.size	CAN_GetRXErrorCount, .-CAN_GetRXErrorCount
 1506              		.section	.text.CAN_GetErrorState,"ax",%progbits
 1507              		.align	2
 1508              		.global	CAN_GetErrorState
 1509              		.thumb
 1510              		.thumb_func
 1511              		.type	CAN_GetErrorState, %function
 1512              	CAN_GetErrorState:
ARM GAS  C:\Users\CHAIYA~1\AppData\Local\Temp\ccQBCuX6.s 			page 44


 1513              	.LFB18:
 932:.\Generated_Source\PSoC5/CAN.c **** 
 933:.\Generated_Source\PSoC5/CAN.c **** 
 934:.\Generated_Source\PSoC5/CAN.c **** /*******************************************************************************
 935:.\Generated_Source\PSoC5/CAN.c **** * FUNCTION NAME:   CAN_GetErrorState
 936:.\Generated_Source\PSoC5/CAN.c **** ********************************************************************************
 937:.\Generated_Source\PSoC5/CAN.c **** *
 938:.\Generated_Source\PSoC5/CAN.c **** * Summary:
 939:.\Generated_Source\PSoC5/CAN.c **** *  This function returns error status of CAN Component.
 940:.\Generated_Source\PSoC5/CAN.c **** *
 941:.\Generated_Source\PSoC5/CAN.c **** * Parameters:
 942:.\Generated_Source\PSoC5/CAN.c **** *  None.
 943:.\Generated_Source\PSoC5/CAN.c **** *
 944:.\Generated_Source\PSoC5/CAN.c **** * Return:
 945:.\Generated_Source\PSoC5/CAN.c **** *  Error status.
 946:.\Generated_Source\PSoC5/CAN.c **** *
 947:.\Generated_Source\PSoC5/CAN.c **** *******************************************************************************/
 948:.\Generated_Source\PSoC5/CAN.c **** uint8 CAN_GetErrorState(void) 
 949:.\Generated_Source\PSoC5/CAN.c **** {
 1514              		.loc 1 949 0
 1515              		.cfi_startproc
 1516              		@ args = 0, pretend = 0, frame = 0
 1517              		@ frame_needed = 1, uses_anonymous_args = 0
 1518              		@ link register save eliminated.
 1519 0000 80B4     		push	{r7}
 1520              	.LCFI50:
 1521              		.cfi_def_cfa_offset 4
 1522              		.cfi_offset 7, -4
 1523 0002 00AF     		add	r7, sp, #0
 1524              	.LCFI51:
 1525              		.cfi_def_cfa_register 7
 950:.\Generated_Source\PSoC5/CAN.c ****     /* Get the error state of the receiver */
 951:.\Generated_Source\PSoC5/CAN.c ****     return (CAN_ERR_SR_REG.byte[2u] & CAN_ERROR_STATE_MASK);
 1526              		.loc 1 951 0
 1527 0004 4AF20C03 		movw	r3, #40972
 1528 0008 C4F20003 		movt	r3, 16384
 1529 000c 9B78     		ldrb	r3, [r3, #2]
 1530 000e DBB2     		uxtb	r3, r3
 1531 0010 03F00303 		and	r3, r3, #3
 1532 0014 DBB2     		uxtb	r3, r3
 952:.\Generated_Source\PSoC5/CAN.c **** }
 1533              		.loc 1 952 0
 1534 0016 1846     		mov	r0, r3
 1535 0018 BD46     		mov	sp, r7
 1536 001a 80BC     		pop	{r7}
 1537 001c 7047     		bx	lr
 1538              		.cfi_endproc
 1539              	.LFE18:
 1540              		.size	CAN_GetErrorState, .-CAN_GetErrorState
 1541 001e 00BF     		.section	.text.CAN_RxBufConfig,"ax",%progbits
 1542              		.align	2
 1543              		.global	CAN_RxBufConfig
 1544              		.thumb
 1545              		.thumb_func
 1546              		.type	CAN_RxBufConfig, %function
 1547              	CAN_RxBufConfig:
 1548              	.LFB19:
ARM GAS  C:\Users\CHAIYA~1\AppData\Local\Temp\ccQBCuX6.s 			page 45


 953:.\Generated_Source\PSoC5/CAN.c **** 
 954:.\Generated_Source\PSoC5/CAN.c **** 
 955:.\Generated_Source\PSoC5/CAN.c **** /*******************************************************************************
 956:.\Generated_Source\PSoC5/CAN.c **** * FUNCTION NAME:   CAN_RxBufConfig
 957:.\Generated_Source\PSoC5/CAN.c **** ********************************************************************************
 958:.\Generated_Source\PSoC5/CAN.c **** *
 959:.\Generated_Source\PSoC5/CAN.c **** * Summary:
 960:.\Generated_Source\PSoC5/CAN.c **** *  This function configures all receive registers for particular mailbox.
 961:.\Generated_Source\PSoC5/CAN.c **** *
 962:.\Generated_Source\PSoC5/CAN.c **** * Parameters:
 963:.\Generated_Source\PSoC5/CAN.c **** *  rxConfig: Pointer to structure that contain all required values to configure
 964:.\Generated_Source\PSoC5/CAN.c **** *  all receive registers for particular mailbox.
 965:.\Generated_Source\PSoC5/CAN.c **** *
 966:.\Generated_Source\PSoC5/CAN.c **** * Return:
 967:.\Generated_Source\PSoC5/CAN.c **** *  Indication if particular configuration has been accepted or rejected.
 968:.\Generated_Source\PSoC5/CAN.c **** *   Define                             Description
 969:.\Generated_Source\PSoC5/CAN.c **** *    CYRET_SUCCESS                      Function passed successfully
 970:.\Generated_Source\PSoC5/CAN.c **** *    CAN_FAIL              Function failed
 971:.\Generated_Source\PSoC5/CAN.c **** *
 972:.\Generated_Source\PSoC5/CAN.c **** *******************************************************************************/
 973:.\Generated_Source\PSoC5/CAN.c **** uint8 CAN_RxBufConfig(const CAN_RX_CFG *rxConfig)
 974:.\Generated_Source\PSoC5/CAN.c ****                                    
 975:.\Generated_Source\PSoC5/CAN.c **** {
 1549              		.loc 1 975 0
 1550              		.cfi_startproc
 1551              		@ args = 0, pretend = 0, frame = 16
 1552              		@ frame_needed = 1, uses_anonymous_args = 0
 1553              		@ link register save eliminated.
 1554 0000 80B4     		push	{r7}
 1555              	.LCFI52:
 1556              		.cfi_def_cfa_offset 4
 1557              		.cfi_offset 7, -4
 1558 0002 85B0     		sub	sp, sp, #20
 1559              	.LCFI53:
 1560              		.cfi_def_cfa_offset 24
 1561 0004 00AF     		add	r7, sp, #0
 1562              	.LCFI54:
 1563              		.cfi_def_cfa_register 7
 1564 0006 7860     		str	r0, [r7, #4]
 976:.\Generated_Source\PSoC5/CAN.c ****     uint8 result = CAN_FAIL;
 1565              		.loc 1 976 0
 1566 0008 4FF00103 		mov	r3, #1
 1567 000c FB73     		strb	r3, [r7, #15]
 977:.\Generated_Source\PSoC5/CAN.c **** 
 978:.\Generated_Source\PSoC5/CAN.c ****     /* Write RX CMD Register */
 979:.\Generated_Source\PSoC5/CAN.c ****     CY_SET_REG32((reg32 *) &CAN_RX[rxConfig->rxmailbox].rxcmd, (rxConfig->rxcmd |
 1568              		.loc 1 979 0
 1569 000e 7B68     		ldr	r3, [r7, #4]
 1570 0010 1B78     		ldrb	r3, [r3, #0]	@ zero_extendqisi2
 1571 0012 4FEA4312 		lsl	r2, r3, #5
 1572 0016 4AF2A003 		movw	r3, #41120
 1573 001a C4F20003 		movt	r3, 16384
 1574 001e D318     		adds	r3, r2, r3
 1575 0020 7A68     		ldr	r2, [r7, #4]
 1576 0022 5268     		ldr	r2, [r2, #4]
 1577 0024 42F08012 		orr	r2, r2, #8388736
 1578 0028 1A60     		str	r2, [r3, #0]
ARM GAS  C:\Users\CHAIYA~1\AppData\Local\Temp\ccQBCuX6.s 			page 46


 980:.\Generated_Source\PSoC5/CAN.c ****                  CAN_RX_WPN_SET));
 981:.\Generated_Source\PSoC5/CAN.c ****     if ((CY_GET_REG32((reg32 *) &CAN_RX[rxConfig->rxmailbox].rxcmd) &
 1579              		.loc 1 981 0
 1580 002a 7B68     		ldr	r3, [r7, #4]
 1581 002c 1B78     		ldrb	r3, [r3, #0]	@ zero_extendqisi2
 1582 002e 4FEA4312 		lsl	r2, r3, #5
 1583 0032 4AF2A003 		movw	r3, #41120
 1584 0036 C4F20003 		movt	r3, 16384
 1585 003a D318     		adds	r3, r2, r3
 1586 003c 1B68     		ldr	r3, [r3, #0]
 1587 003e 03F07F12 		and	r2, r3, #8323199
 982:.\Generated_Source\PSoC5/CAN.c ****          CAN_RX_READ_BACK_MASK) == (rxConfig->rxcmd & CAN_RX_WPN_CLEAR))
 1588              		.loc 1 982 0
 1589 0042 7B68     		ldr	r3, [r7, #4]
 1590 0044 5B68     		ldr	r3, [r3, #4]
 1591 0046 23F08013 		bic	r3, r3, #8388736
 981:.\Generated_Source\PSoC5/CAN.c ****     if ((CY_GET_REG32((reg32 *) &CAN_RX[rxConfig->rxmailbox].rxcmd) &
 1592              		.loc 1 981 0
 1593 004a 9A42     		cmp	r2, r3
 1594 004c 77D1     		bne	.L76
 983:.\Generated_Source\PSoC5/CAN.c ****     {
 984:.\Generated_Source\PSoC5/CAN.c ****         /* Write RX AMR Register */
 985:.\Generated_Source\PSoC5/CAN.c ****         CY_SET_REG32((reg32 *) &CAN_RX[rxConfig->rxmailbox].rxamr, rxConfig->rxamr);
 1595              		.loc 1 985 0
 1596 004e 7B68     		ldr	r3, [r7, #4]
 1597 0050 1B78     		ldrb	r3, [r3, #0]	@ zero_extendqisi2
 1598 0052 4FEA4312 		lsl	r2, r3, #5
 1599 0056 4AF2A003 		movw	r3, #41120
 1600 005a C4F20003 		movt	r3, 16384
 1601 005e D318     		adds	r3, r2, r3
 1602 0060 03F11003 		add	r3, r3, #16
 1603 0064 7A68     		ldr	r2, [r7, #4]
 1604 0066 9268     		ldr	r2, [r2, #8]
 1605 0068 1A60     		str	r2, [r3, #0]
 986:.\Generated_Source\PSoC5/CAN.c ****         if (CY_GET_REG32((reg32 *) &CAN_RX[rxConfig->rxmailbox].rxamr) == rxConfig->rxamr)
 1606              		.loc 1 986 0
 1607 006a 7B68     		ldr	r3, [r7, #4]
 1608 006c 1B78     		ldrb	r3, [r3, #0]	@ zero_extendqisi2
 1609 006e 4FEA4312 		lsl	r2, r3, #5
 1610 0072 4AF2A003 		movw	r3, #41120
 1611 0076 C4F20003 		movt	r3, 16384
 1612 007a D318     		adds	r3, r2, r3
 1613 007c 03F11003 		add	r3, r3, #16
 1614 0080 1A68     		ldr	r2, [r3, #0]
 1615 0082 7B68     		ldr	r3, [r7, #4]
 1616 0084 9B68     		ldr	r3, [r3, #8]
 1617 0086 9A42     		cmp	r2, r3
 1618 0088 59D1     		bne	.L76
 987:.\Generated_Source\PSoC5/CAN.c ****         {
 988:.\Generated_Source\PSoC5/CAN.c ****             /* Write RX ACR Register */
 989:.\Generated_Source\PSoC5/CAN.c ****             CY_SET_REG32((reg32 *) &CAN_RX[rxConfig->rxmailbox].rxacr, rxConfig->rxacr);
 1619              		.loc 1 989 0
 1620 008a 7B68     		ldr	r3, [r7, #4]
 1621 008c 1B78     		ldrb	r3, [r3, #0]	@ zero_extendqisi2
 1622 008e 4FEA4312 		lsl	r2, r3, #5
 1623 0092 4AF2A003 		movw	r3, #41120
 1624 0096 C4F20003 		movt	r3, 16384
ARM GAS  C:\Users\CHAIYA~1\AppData\Local\Temp\ccQBCuX6.s 			page 47


 1625 009a D318     		adds	r3, r2, r3
 1626 009c 03F11403 		add	r3, r3, #20
 1627 00a0 7A68     		ldr	r2, [r7, #4]
 1628 00a2 D268     		ldr	r2, [r2, #12]
 1629 00a4 1A60     		str	r2, [r3, #0]
 990:.\Generated_Source\PSoC5/CAN.c ****             if (CY_GET_REG32((reg32 *) &CAN_RX[rxConfig->rxmailbox].rxacr) == rxConfig->rxacr)
 1630              		.loc 1 990 0
 1631 00a6 7B68     		ldr	r3, [r7, #4]
 1632 00a8 1B78     		ldrb	r3, [r3, #0]	@ zero_extendqisi2
 1633 00aa 4FEA4312 		lsl	r2, r3, #5
 1634 00ae 4AF2A003 		movw	r3, #41120
 1635 00b2 C4F20003 		movt	r3, 16384
 1636 00b6 D318     		adds	r3, r2, r3
 1637 00b8 03F11403 		add	r3, r3, #20
 1638 00bc 1A68     		ldr	r2, [r3, #0]
 1639 00be 7B68     		ldr	r3, [r7, #4]
 1640 00c0 DB68     		ldr	r3, [r3, #12]
 1641 00c2 9A42     		cmp	r2, r3
 1642 00c4 3BD1     		bne	.L76
 991:.\Generated_Source\PSoC5/CAN.c ****             {
 992:.\Generated_Source\PSoC5/CAN.c ****                 /* Write RX AMRD Register */
 993:.\Generated_Source\PSoC5/CAN.c ****                 CY_SET_REG32((reg32 *) &CAN_RX[rxConfig->rxmailbox].rxamrd, 0xFFFFFFFFu);
 1643              		.loc 1 993 0
 1644 00c6 7B68     		ldr	r3, [r7, #4]
 1645 00c8 1B78     		ldrb	r3, [r3, #0]	@ zero_extendqisi2
 1646 00ca 4FEA4312 		lsl	r2, r3, #5
 1647 00ce 4AF2A003 		movw	r3, #41120
 1648 00d2 C4F20003 		movt	r3, 16384
 1649 00d6 D318     		adds	r3, r2, r3
 1650 00d8 03F11803 		add	r3, r3, #24
 1651 00dc 4FF0FF32 		mov	r2, #-1
 1652 00e0 1A60     		str	r2, [r3, #0]
 994:.\Generated_Source\PSoC5/CAN.c ****                 if (CY_GET_REG32((reg32 *) &CAN_RX[rxConfig->rxmailbox].rxamrd) == 0xFFFFFFFFu)
 1653              		.loc 1 994 0
 1654 00e2 7B68     		ldr	r3, [r7, #4]
 1655 00e4 1B78     		ldrb	r3, [r3, #0]	@ zero_extendqisi2
 1656 00e6 4FEA4312 		lsl	r2, r3, #5
 1657 00ea 4AF2A003 		movw	r3, #41120
 1658 00ee C4F20003 		movt	r3, 16384
 1659 00f2 D318     		adds	r3, r2, r3
 1660 00f4 03F11803 		add	r3, r3, #24
 1661 00f8 1B68     		ldr	r3, [r3, #0]
 1662 00fa B3F1FF3F 		cmp	r3, #-1
 1663 00fe 1ED1     		bne	.L76
 995:.\Generated_Source\PSoC5/CAN.c ****                 {
 996:.\Generated_Source\PSoC5/CAN.c ****                     /* Write RX ACRD Register */
 997:.\Generated_Source\PSoC5/CAN.c ****                     CY_SET_REG32((reg32 *) &CAN_RX[rxConfig->rxmailbox].rxacrd, 0x00000000u);
 1664              		.loc 1 997 0
 1665 0100 7B68     		ldr	r3, [r7, #4]
 1666 0102 1B78     		ldrb	r3, [r3, #0]	@ zero_extendqisi2
 1667 0104 4FEA4312 		lsl	r2, r3, #5
 1668 0108 4AF2A003 		movw	r3, #41120
 1669 010c C4F20003 		movt	r3, 16384
 1670 0110 D318     		adds	r3, r2, r3
 1671 0112 03F11C03 		add	r3, r3, #28
 1672 0116 4FF00002 		mov	r2, #0
 1673 011a 1A60     		str	r2, [r3, #0]
ARM GAS  C:\Users\CHAIYA~1\AppData\Local\Temp\ccQBCuX6.s 			page 48


 998:.\Generated_Source\PSoC5/CAN.c ****                     if (CY_GET_REG32((reg32 *) &CAN_RX[rxConfig->rxmailbox].rxacrd) == 0x00000000u)
 1674              		.loc 1 998 0
 1675 011c 7B68     		ldr	r3, [r7, #4]
 1676 011e 1B78     		ldrb	r3, [r3, #0]	@ zero_extendqisi2
 1677 0120 4FEA4312 		lsl	r2, r3, #5
 1678 0124 4AF2A003 		movw	r3, #41120
 1679 0128 C4F20003 		movt	r3, 16384
 1680 012c D318     		adds	r3, r2, r3
 1681 012e 03F11C03 		add	r3, r3, #28
 1682 0132 1B68     		ldr	r3, [r3, #0]
 1683 0134 002B     		cmp	r3, #0
 1684 0136 02D1     		bne	.L76
 999:.\Generated_Source\PSoC5/CAN.c ****                     {
1000:.\Generated_Source\PSoC5/CAN.c ****                             result = CYRET_SUCCESS;
 1685              		.loc 1 1000 0
 1686 0138 4FF00003 		mov	r3, #0
 1687 013c FB73     		strb	r3, [r7, #15]
 1688              	.L76:
1001:.\Generated_Source\PSoC5/CAN.c ****                     }
1002:.\Generated_Source\PSoC5/CAN.c ****                 }
1003:.\Generated_Source\PSoC5/CAN.c ****             }
1004:.\Generated_Source\PSoC5/CAN.c ****         }
1005:.\Generated_Source\PSoC5/CAN.c ****     }
1006:.\Generated_Source\PSoC5/CAN.c **** 
1007:.\Generated_Source\PSoC5/CAN.c ****     return (result);
 1689              		.loc 1 1007 0
 1690 013e FB7B     		ldrb	r3, [r7, #15]	@ zero_extendqisi2
1008:.\Generated_Source\PSoC5/CAN.c **** }
 1691              		.loc 1 1008 0
 1692 0140 1846     		mov	r0, r3
 1693 0142 07F11407 		add	r7, r7, #20
 1694 0146 BD46     		mov	sp, r7
 1695 0148 80BC     		pop	{r7}
 1696 014a 7047     		bx	lr
 1697              		.cfi_endproc
 1698              	.LFE19:
 1699              		.size	CAN_RxBufConfig, .-CAN_RxBufConfig
 1700              		.section	.text.CAN_TxBufConfig,"ax",%progbits
 1701              		.align	2
 1702              		.global	CAN_TxBufConfig
 1703              		.thumb
 1704              		.thumb_func
 1705              		.type	CAN_TxBufConfig, %function
 1706              	CAN_TxBufConfig:
 1707              	.LFB20:
1009:.\Generated_Source\PSoC5/CAN.c **** 
1010:.\Generated_Source\PSoC5/CAN.c **** 
1011:.\Generated_Source\PSoC5/CAN.c **** /*******************************************************************************
1012:.\Generated_Source\PSoC5/CAN.c **** * FUNCTION NAME:   CAN_TxBufConfig
1013:.\Generated_Source\PSoC5/CAN.c **** ********************************************************************************
1014:.\Generated_Source\PSoC5/CAN.c **** *
1015:.\Generated_Source\PSoC5/CAN.c **** * Summary:
1016:.\Generated_Source\PSoC5/CAN.c **** *  This function configures all transmit registers for particular mailbox.
1017:.\Generated_Source\PSoC5/CAN.c **** *  Mailbox number contains CAN_TX_CFG structure.
1018:.\Generated_Source\PSoC5/CAN.c **** *
1019:.\Generated_Source\PSoC5/CAN.c **** * Parameters:
1020:.\Generated_Source\PSoC5/CAN.c **** *  txConfig: Pointer to structure that contain all required values to configure
ARM GAS  C:\Users\CHAIYA~1\AppData\Local\Temp\ccQBCuX6.s 			page 49


1021:.\Generated_Source\PSoC5/CAN.c **** *  all transmit registers for particular mailbox.
1022:.\Generated_Source\PSoC5/CAN.c **** *
1023:.\Generated_Source\PSoC5/CAN.c **** * Return:
1024:.\Generated_Source\PSoC5/CAN.c **** *  Indication if particular configuration has been accepted or rejected.
1025:.\Generated_Source\PSoC5/CAN.c **** *   Define                             Description
1026:.\Generated_Source\PSoC5/CAN.c **** *    CYRET_SUCCESS                      Function passed successfully
1027:.\Generated_Source\PSoC5/CAN.c **** *    CAN_FAIL              Function failed
1028:.\Generated_Source\PSoC5/CAN.c **** *
1029:.\Generated_Source\PSoC5/CAN.c **** *******************************************************************************/
1030:.\Generated_Source\PSoC5/CAN.c **** uint8 CAN_TxBufConfig(const CAN_TX_CFG *txConfig) 
1031:.\Generated_Source\PSoC5/CAN.c ****                                    
1032:.\Generated_Source\PSoC5/CAN.c **** {
 1708              		.loc 1 1032 0
 1709              		.cfi_startproc
 1710              		@ args = 0, pretend = 0, frame = 16
 1711              		@ frame_needed = 1, uses_anonymous_args = 0
 1712              		@ link register save eliminated.
 1713 0000 80B4     		push	{r7}
 1714              	.LCFI55:
 1715              		.cfi_def_cfa_offset 4
 1716              		.cfi_offset 7, -4
 1717 0002 85B0     		sub	sp, sp, #20
 1718              	.LCFI56:
 1719              		.cfi_def_cfa_offset 24
 1720 0004 00AF     		add	r7, sp, #0
 1721              	.LCFI57:
 1722              		.cfi_def_cfa_register 7
 1723 0006 7860     		str	r0, [r7, #4]
1033:.\Generated_Source\PSoC5/CAN.c ****     uint8 result = CAN_FAIL;
 1724              		.loc 1 1033 0
 1725 0008 4FF00103 		mov	r3, #1
 1726 000c FB73     		strb	r3, [r7, #15]
1034:.\Generated_Source\PSoC5/CAN.c **** 
1035:.\Generated_Source\PSoC5/CAN.c ****     /* Write TX CMD Register */
1036:.\Generated_Source\PSoC5/CAN.c ****     CY_SET_REG32((reg32 *) &CAN_TX[txConfig->txmailbox].txcmd, (txConfig->txcmd |
 1727              		.loc 1 1036 0
 1728 000e 7B68     		ldr	r3, [r7, #4]
 1729 0010 1B78     		ldrb	r3, [r3, #0]	@ zero_extendqisi2
 1730 0012 4FEA0312 		lsl	r2, r3, #4
 1731 0016 4AF22003 		movw	r3, #40992
 1732 001a C4F20003 		movt	r3, 16384
 1733 001e D318     		adds	r3, r2, r3
 1734 0020 1A46     		mov	r2, r3
 1735 0022 7B68     		ldr	r3, [r7, #4]
 1736 0024 5B68     		ldr	r3, [r3, #4]
 1737 0026 43F40003 		orr	r3, r3, #8388608
 1738 002a 43F00803 		orr	r3, r3, #8
 1739 002e 1360     		str	r3, [r2, #0]
1037:.\Generated_Source\PSoC5/CAN.c ****                  CAN_TX_WPN_SET));
1038:.\Generated_Source\PSoC5/CAN.c ****     if ((CY_GET_REG32((reg32 *) & CAN_TX[txConfig->txmailbox].txcmd) &
 1740              		.loc 1 1038 0
 1741 0030 7B68     		ldr	r3, [r7, #4]
 1742 0032 1B78     		ldrb	r3, [r3, #0]	@ zero_extendqisi2
 1743 0034 4FEA0312 		lsl	r2, r3, #4
 1744 0038 4AF22003 		movw	r3, #40992
 1745 003c C4F20003 		movt	r3, 16384
 1746 0040 D318     		adds	r3, r2, r3
ARM GAS  C:\Users\CHAIYA~1\AppData\Local\Temp\ccQBCuX6.s 			page 50


 1747 0042 1A68     		ldr	r2, [r3, #0]
 1748 0044 4FF0F703 		mov	r3, #247
 1749 0048 C0F27F03 		movt	r3, 127
 1750 004c 1340     		ands	r3, r3, r2
1039:.\Generated_Source\PSoC5/CAN.c ****         CAN_TX_READ_BACK_MASK) == (txConfig->txcmd & CAN_TX_WPN_CLEAR))
 1751              		.loc 1 1039 0
 1752 004e 7A68     		ldr	r2, [r7, #4]
 1753 0050 5268     		ldr	r2, [r2, #4]
 1754 0052 22F40002 		bic	r2, r2, #8388608
 1755 0056 22F00802 		bic	r2, r2, #8
1038:.\Generated_Source\PSoC5/CAN.c ****     if ((CY_GET_REG32((reg32 *) & CAN_TX[txConfig->txmailbox].txcmd) &
 1756              		.loc 1 1038 0
 1757 005a 9342     		cmp	r3, r2
 1758 005c 20D1     		bne	.L79
1040:.\Generated_Source\PSoC5/CAN.c ****     {
1041:.\Generated_Source\PSoC5/CAN.c ****         /* Write TX ID Register */
1042:.\Generated_Source\PSoC5/CAN.c ****         CY_SET_REG32( (reg32 *) &CAN_TX[txConfig->txmailbox].txid, txConfig->txid);
 1759              		.loc 1 1042 0
 1760 005e 7B68     		ldr	r3, [r7, #4]
 1761 0060 1B78     		ldrb	r3, [r3, #0]	@ zero_extendqisi2
 1762 0062 4FEA0312 		lsl	r2, r3, #4
 1763 0066 4AF22003 		movw	r3, #40992
 1764 006a C4F20003 		movt	r3, 16384
 1765 006e D318     		adds	r3, r2, r3
 1766 0070 03F10403 		add	r3, r3, #4
 1767 0074 7A68     		ldr	r2, [r7, #4]
 1768 0076 9268     		ldr	r2, [r2, #8]
 1769 0078 1A60     		str	r2, [r3, #0]
1043:.\Generated_Source\PSoC5/CAN.c ****         if (CY_GET_REG32( (reg32 *) &CAN_TX[txConfig->txmailbox].txid) == txConfig->txid)
 1770              		.loc 1 1043 0
 1771 007a 7B68     		ldr	r3, [r7, #4]
 1772 007c 1B78     		ldrb	r3, [r3, #0]	@ zero_extendqisi2
 1773 007e 4FEA0312 		lsl	r2, r3, #4
 1774 0082 4AF22003 		movw	r3, #40992
 1775 0086 C4F20003 		movt	r3, 16384
 1776 008a D318     		adds	r3, r2, r3
 1777 008c 03F10403 		add	r3, r3, #4
 1778 0090 1A68     		ldr	r2, [r3, #0]
 1779 0092 7B68     		ldr	r3, [r7, #4]
 1780 0094 9B68     		ldr	r3, [r3, #8]
 1781 0096 9A42     		cmp	r2, r3
 1782 0098 02D1     		bne	.L79
1044:.\Generated_Source\PSoC5/CAN.c ****         {
1045:.\Generated_Source\PSoC5/CAN.c ****             result = CYRET_SUCCESS;
 1783              		.loc 1 1045 0
 1784 009a 4FF00003 		mov	r3, #0
 1785 009e FB73     		strb	r3, [r7, #15]
 1786              	.L79:
1046:.\Generated_Source\PSoC5/CAN.c ****         }
1047:.\Generated_Source\PSoC5/CAN.c ****     }
1048:.\Generated_Source\PSoC5/CAN.c **** 
1049:.\Generated_Source\PSoC5/CAN.c ****     return (result);
 1787              		.loc 1 1049 0
 1788 00a0 FB7B     		ldrb	r3, [r7, #15]	@ zero_extendqisi2
1050:.\Generated_Source\PSoC5/CAN.c **** }
 1789              		.loc 1 1050 0
 1790 00a2 1846     		mov	r0, r3
ARM GAS  C:\Users\CHAIYA~1\AppData\Local\Temp\ccQBCuX6.s 			page 51


 1791 00a4 07F11407 		add	r7, r7, #20
 1792 00a8 BD46     		mov	sp, r7
 1793 00aa 80BC     		pop	{r7}
 1794 00ac 7047     		bx	lr
 1795              		.cfi_endproc
 1796              	.LFE20:
 1797              		.size	CAN_TxBufConfig, .-CAN_TxBufConfig
 1798 00ae 00BF     		.section	.rodata
 1799              		.align	2
 1800              		.type	CAN_TXConfigStruct.4856, %object
 1801              		.size	CAN_TXConfigStruct.4856, 96
 1802              	CAN_TXConfigStruct.4856:
 1803 0000 00       		.byte	0
 1804 0001 000000   		.space	3
 1805 0004 04000400 		.word	262148
 1806 0008 00002000 		.word	2097152
 1807 000c 01       		.byte	1
 1808 000d 000000   		.space	3
 1809 0010 04000600 		.word	393220
 1810 0014 00002000 		.word	2097152
 1811 0018 02       		.byte	2
 1812 0019 000000   		.space	3
 1813 001c 04000100 		.word	65540
 1814 0020 00002000 		.word	2097152
 1815 0024 03       		.byte	3
 1816 0025 000000   		.space	3
 1817 0028 00000000 		.word	0
 1818 002c 00000000 		.word	0
 1819 0030 04       		.byte	4
 1820 0031 000000   		.space	3
 1821 0034 00000000 		.word	0
 1822 0038 00000000 		.word	0
 1823 003c 05       		.byte	5
 1824 003d 000000   		.space	3
 1825 0040 00000000 		.word	0
 1826 0044 00000000 		.word	0
 1827 0048 06       		.byte	6
 1828 0049 000000   		.space	3
 1829 004c 00000000 		.word	0
 1830 0050 00000000 		.word	0
 1831 0054 07       		.byte	7
 1832 0055 000000   		.space	3
 1833 0058 00000000 		.word	0
 1834 005c 00000000 		.word	0
 1835              		.align	2
 1836              		.type	CAN_RXConfigStruct.4855, %object
 1837              		.size	CAN_RXConfigStruct.4855, 256
 1838              	CAN_RXConfigStruct.4855:
 1839 0060 00       		.byte	0
 1840 0061 000000   		.space	3
 1841 0064 28000000 		.word	40
 1842 0068 F9FF1F00 		.word	2097145
 1843 006c 00002000 		.word	2097152
 1844 0070 01       		.byte	1
 1845 0071 000000   		.space	3
 1846 0074 00000000 		.word	0
 1847 0078 00000000 		.word	0
ARM GAS  C:\Users\CHAIYA~1\AppData\Local\Temp\ccQBCuX6.s 			page 52


 1848 007c 00000000 		.word	0
 1849 0080 02       		.byte	2
 1850 0081 000000   		.space	3
 1851 0084 00000000 		.word	0
 1852 0088 00000000 		.word	0
 1853 008c 00000000 		.word	0
 1854 0090 03       		.byte	3
 1855 0091 000000   		.space	3
 1856 0094 00000000 		.word	0
 1857 0098 00000000 		.word	0
 1858 009c 00000000 		.word	0
 1859 00a0 04       		.byte	4
 1860 00a1 000000   		.space	3
 1861 00a4 00000000 		.word	0
 1862 00a8 00000000 		.word	0
 1863 00ac 00000000 		.word	0
 1864 00b0 05       		.byte	5
 1865 00b1 000000   		.space	3
 1866 00b4 00000000 		.word	0
 1867 00b8 00000000 		.word	0
 1868 00bc 00000000 		.word	0
 1869 00c0 06       		.byte	6
 1870 00c1 000000   		.space	3
 1871 00c4 00000000 		.word	0
 1872 00c8 00000000 		.word	0
 1873 00cc 00000000 		.word	0
 1874 00d0 07       		.byte	7
 1875 00d1 000000   		.space	3
 1876 00d4 00000000 		.word	0
 1877 00d8 00000000 		.word	0
 1878 00dc 00000000 		.word	0
 1879 00e0 08       		.byte	8
 1880 00e1 000000   		.space	3
 1881 00e4 00000000 		.word	0
 1882 00e8 00000000 		.word	0
 1883 00ec 00000000 		.word	0
 1884 00f0 09       		.byte	9
 1885 00f1 000000   		.space	3
 1886 00f4 00000000 		.word	0
 1887 00f8 00000000 		.word	0
 1888 00fc 00000000 		.word	0
 1889 0100 0A       		.byte	10
 1890 0101 000000   		.space	3
 1891 0104 00000000 		.word	0
 1892 0108 00000000 		.word	0
 1893 010c 00000000 		.word	0
 1894 0110 0B       		.byte	11
 1895 0111 000000   		.space	3
 1896 0114 00000000 		.word	0
 1897 0118 00000000 		.word	0
 1898 011c 00000000 		.word	0
 1899 0120 0C       		.byte	12
 1900 0121 000000   		.space	3
 1901 0124 00000000 		.word	0
 1902 0128 00000000 		.word	0
 1903 012c 00000000 		.word	0
 1904 0130 0D       		.byte	13
ARM GAS  C:\Users\CHAIYA~1\AppData\Local\Temp\ccQBCuX6.s 			page 53


 1905 0131 000000   		.space	3
 1906 0134 00000000 		.word	0
 1907 0138 00000000 		.word	0
 1908 013c 00000000 		.word	0
 1909 0140 0E       		.byte	14
 1910 0141 000000   		.space	3
 1911 0144 00000000 		.word	0
 1912 0148 00000000 		.word	0
 1913 014c 00000000 		.word	0
 1914 0150 0F       		.byte	15
 1915 0151 000000   		.space	3
 1916 0154 00000000 		.word	0
 1917 0158 00000000 		.word	0
 1918 015c 00000000 		.word	0
 1919              		.text
 1920              	.Letext0:
 1921              		.file 2 ".\\Generated_Source\\PSoC5\\cytypes.h"
 1922              		.file 3 ".\\Generated_Source\\PSoC5\\CAN.h"
 1923              		.section	.debug_info,"",%progbits
 1924              	.Ldebug_info0:
 1925 0000 95070000 		.4byte	0x795
 1926 0004 0200     		.2byte	0x2
 1927 0006 00000000 		.4byte	.Ldebug_abbrev0
 1928 000a 04       		.byte	0x4
 1929 000b 01       		.uleb128 0x1
 1930 000c 77020000 		.4byte	.LASF77
 1931 0010 01       		.byte	0x1
 1932 0011 1A030000 		.4byte	.LASF78
 1933 0015 4A010000 		.4byte	.LASF79
 1934 0019 00000000 		.4byte	.Ldebug_ranges0+0
 1935 001d 00000000 		.4byte	0
 1936 0021 00000000 		.4byte	0
 1937 0025 00000000 		.4byte	.Ldebug_line0
 1938 0029 02       		.uleb128 0x2
 1939 002a 01       		.byte	0x1
 1940 002b 06       		.byte	0x6
 1941 002c 7F000000 		.4byte	.LASF0
 1942 0030 02       		.uleb128 0x2
 1943 0031 01       		.byte	0x1
 1944 0032 08       		.byte	0x8
 1945 0033 C5020000 		.4byte	.LASF1
 1946 0037 02       		.uleb128 0x2
 1947 0038 02       		.byte	0x2
 1948 0039 05       		.byte	0x5
 1949 003a D3020000 		.4byte	.LASF2
 1950 003e 02       		.uleb128 0x2
 1951 003f 02       		.byte	0x2
 1952 0040 07       		.byte	0x7
 1953 0041 29010000 		.4byte	.LASF3
 1954 0045 02       		.uleb128 0x2
 1955 0046 04       		.byte	0x4
 1956 0047 05       		.byte	0x5
 1957 0048 A0000000 		.4byte	.LASF4
 1958 004c 02       		.uleb128 0x2
 1959 004d 04       		.byte	0x4
 1960 004e 07       		.byte	0x7
 1961 004f 09010000 		.4byte	.LASF5
ARM GAS  C:\Users\CHAIYA~1\AppData\Local\Temp\ccQBCuX6.s 			page 54


 1962 0053 02       		.uleb128 0x2
 1963 0054 08       		.byte	0x8
 1964 0055 05       		.byte	0x5
 1965 0056 71000000 		.4byte	.LASF6
 1966 005a 02       		.uleb128 0x2
 1967 005b 08       		.byte	0x8
 1968 005c 07       		.byte	0x7
 1969 005d 39000000 		.4byte	.LASF7
 1970 0061 03       		.uleb128 0x3
 1971 0062 04       		.byte	0x4
 1972 0063 05       		.byte	0x5
 1973 0064 696E7400 		.ascii	"int\000"
 1974 0068 02       		.uleb128 0x2
 1975 0069 04       		.byte	0x4
 1976 006a 07       		.byte	0x7
 1977 006b FC000000 		.4byte	.LASF8
 1978 006f 04       		.uleb128 0x4
 1979 0070 B6000000 		.4byte	.LASF9
 1980 0074 02       		.byte	0x2
 1981 0075 5B       		.byte	0x5b
 1982 0076 30000000 		.4byte	0x30
 1983 007a 04       		.uleb128 0x4
 1984 007b 14000000 		.4byte	.LASF10
 1985 007f 02       		.byte	0x2
 1986 0080 5C       		.byte	0x5c
 1987 0081 3E000000 		.4byte	0x3e
 1988 0085 04       		.uleb128 0x4
 1989 0086 C9000000 		.4byte	.LASF11
 1990 008a 02       		.byte	0x2
 1991 008b 5D       		.byte	0x5d
 1992 008c 4C000000 		.4byte	0x4c
 1993 0090 02       		.uleb128 0x2
 1994 0091 04       		.byte	0x4
 1995 0092 04       		.byte	0x4
 1996 0093 71020000 		.4byte	.LASF12
 1997 0097 02       		.uleb128 0x2
 1998 0098 08       		.byte	0x8
 1999 0099 04       		.byte	0x4
 2000 009a C2000000 		.4byte	.LASF13
 2001 009e 02       		.uleb128 0x2
 2002 009f 01       		.byte	0x1
 2003 00a0 08       		.byte	0x8
 2004 00a1 39030000 		.4byte	.LASF14
 2005 00a5 04       		.uleb128 0x4
 2006 00a6 C0020000 		.4byte	.LASF15
 2007 00aa 02       		.byte	0x2
 2008 00ab F0       		.byte	0xf0
 2009 00ac B0000000 		.4byte	0xb0
 2010 00b0 05       		.uleb128 0x5
 2011 00b1 6F000000 		.4byte	0x6f
 2012 00b5 04       		.uleb128 0x4
 2013 00b6 B0000000 		.4byte	.LASF16
 2014 00ba 02       		.byte	0x2
 2015 00bb F1       		.byte	0xf1
 2016 00bc C0000000 		.4byte	0xc0
 2017 00c0 05       		.uleb128 0x5
 2018 00c1 7A000000 		.4byte	0x7a
ARM GAS  C:\Users\CHAIYA~1\AppData\Local\Temp\ccQBCuX6.s 			page 55


 2019 00c5 04       		.uleb128 0x4
 2020 00c6 0A020000 		.4byte	.LASF17
 2021 00ca 02       		.byte	0x2
 2022 00cb F2       		.byte	0xf2
 2023 00cc D0000000 		.4byte	0xd0
 2024 00d0 05       		.uleb128 0x5
 2025 00d1 85000000 		.4byte	0x85
 2026 00d5 02       		.uleb128 0x2
 2027 00d6 04       		.byte	0x4
 2028 00d7 07       		.byte	0x7
 2029 00d8 3E020000 		.4byte	.LASF18
 2030 00dc 06       		.uleb128 0x6
 2031 00dd 08       		.byte	0x8
 2032 00de 03       		.byte	0x3
 2033 00df 69       		.byte	0x69
 2034 00e0 F3000000 		.4byte	0xf3
 2035 00e4 07       		.uleb128 0x7
 2036 00e5 D0000000 		.4byte	.LASF20
 2037 00e9 03       		.byte	0x3
 2038 00ea 6B       		.byte	0x6b
 2039 00eb 03010000 		.4byte	0x103
 2040 00ef 02       		.byte	0x2
 2041 00f0 23       		.byte	0x23
 2042 00f1 00       		.uleb128 0
 2043 00f2 00       		.byte	0
 2044 00f3 08       		.uleb128 0x8
 2045 00f4 A5000000 		.4byte	0xa5
 2046 00f8 03010000 		.4byte	0x103
 2047 00fc 09       		.uleb128 0x9
 2048 00fd D5000000 		.4byte	0xd5
 2049 0101 07       		.byte	0x7
 2050 0102 00       		.byte	0
 2051 0103 05       		.uleb128 0x5
 2052 0104 F3000000 		.4byte	0xf3
 2053 0108 04       		.uleb128 0x4
 2054 0109 84030000 		.4byte	.LASF19
 2055 010d 03       		.byte	0x3
 2056 010e 6C       		.byte	0x6c
 2057 010f DC000000 		.4byte	0xdc
 2058 0113 06       		.uleb128 0x6
 2059 0114 04       		.byte	0x4
 2060 0115 03       		.byte	0x3
 2061 0116 6F       		.byte	0x6f
 2062 0117 2A010000 		.4byte	0x12a
 2063 011b 07       		.uleb128 0x7
 2064 011c D0000000 		.4byte	.LASF20
 2065 0120 03       		.byte	0x3
 2066 0121 71       		.byte	0x71
 2067 0122 3A010000 		.4byte	0x13a
 2068 0126 02       		.byte	0x2
 2069 0127 23       		.byte	0x23
 2070 0128 00       		.uleb128 0
 2071 0129 00       		.byte	0
 2072 012a 08       		.uleb128 0x8
 2073 012b A5000000 		.4byte	0xa5
 2074 012f 3A010000 		.4byte	0x13a
 2075 0133 09       		.uleb128 0x9
ARM GAS  C:\Users\CHAIYA~1\AppData\Local\Temp\ccQBCuX6.s 			page 56


 2076 0134 D5000000 		.4byte	0xd5
 2077 0138 03       		.byte	0x3
 2078 0139 00       		.byte	0
 2079 013a 05       		.uleb128 0x5
 2080 013b 2A010000 		.4byte	0x12a
 2081 013f 04       		.uleb128 0x4
 2082 0140 33020000 		.4byte	.LASF21
 2083 0144 03       		.byte	0x3
 2084 0145 72       		.byte	0x72
 2085 0146 13010000 		.4byte	0x113
 2086 014a 06       		.uleb128 0x6
 2087 014b 10       		.byte	0x10
 2088 014c 03       		.byte	0x3
 2089 014d 80       		.byte	0x80
 2090 014e 8B010000 		.4byte	0x18b
 2091 0152 07       		.uleb128 0x7
 2092 0153 29020000 		.4byte	.LASF22
 2093 0157 03       		.byte	0x3
 2094 0158 82       		.byte	0x82
 2095 0159 6F000000 		.4byte	0x6f
 2096 015d 02       		.byte	0x2
 2097 015e 23       		.byte	0x23
 2098 015f 00       		.uleb128 0
 2099 0160 07       		.uleb128 0x7
 2100 0161 C1030000 		.4byte	.LASF23
 2101 0165 03       		.byte	0x3
 2102 0166 83       		.byte	0x83
 2103 0167 85000000 		.4byte	0x85
 2104 016b 02       		.byte	0x2
 2105 016c 23       		.byte	0x23
 2106 016d 04       		.uleb128 0x4
 2107 016e 07       		.uleb128 0x7
 2108 016f BC000000 		.4byte	.LASF24
 2109 0173 03       		.byte	0x3
 2110 0174 84       		.byte	0x84
 2111 0175 85000000 		.4byte	0x85
 2112 0179 02       		.byte	0x2
 2113 017a 23       		.byte	0x23
 2114 017b 08       		.uleb128 0x8
 2115 017c 07       		.uleb128 0x7
 2116 017d F6030000 		.4byte	.LASF25
 2117 0181 03       		.byte	0x3
 2118 0182 85       		.byte	0x85
 2119 0183 85000000 		.4byte	0x85
 2120 0187 02       		.byte	0x2
 2121 0188 23       		.byte	0x23
 2122 0189 0C       		.uleb128 0xc
 2123 018a 00       		.byte	0
 2124 018b 04       		.uleb128 0x4
 2125 018c C5010000 		.4byte	.LASF26
 2126 0190 03       		.byte	0x3
 2127 0191 86       		.byte	0x86
 2128 0192 4A010000 		.4byte	0x14a
 2129 0196 06       		.uleb128 0x6
 2130 0197 0C       		.byte	0xc
 2131 0198 03       		.byte	0x3
 2132 0199 89       		.byte	0x89
ARM GAS  C:\Users\CHAIYA~1\AppData\Local\Temp\ccQBCuX6.s 			page 57


 2133 019a C9010000 		.4byte	0x1c9
 2134 019e 07       		.uleb128 0x7
 2135 019f 93030000 		.4byte	.LASF27
 2136 01a3 03       		.byte	0x3
 2137 01a4 8B       		.byte	0x8b
 2138 01a5 6F000000 		.4byte	0x6f
 2139 01a9 02       		.byte	0x2
 2140 01aa 23       		.byte	0x23
 2141 01ab 00       		.uleb128 0
 2142 01ac 07       		.uleb128 0x7
 2143 01ad 50000000 		.4byte	.LASF28
 2144 01b1 03       		.byte	0x3
 2145 01b2 8C       		.byte	0x8c
 2146 01b3 85000000 		.4byte	0x85
 2147 01b7 02       		.byte	0x2
 2148 01b8 23       		.byte	0x23
 2149 01b9 04       		.uleb128 0x4
 2150 01ba 07       		.uleb128 0x7
 2151 01bb F1030000 		.4byte	.LASF29
 2152 01bf 03       		.byte	0x3
 2153 01c0 8D       		.byte	0x8d
 2154 01c1 85000000 		.4byte	0x85
 2155 01c5 02       		.byte	0x2
 2156 01c6 23       		.byte	0x23
 2157 01c7 08       		.uleb128 0x8
 2158 01c8 00       		.byte	0
 2159 01c9 04       		.uleb128 0x4
 2160 01ca 0B040000 		.4byte	.LASF30
 2161 01ce 03       		.byte	0x3
 2162 01cf 8E       		.byte	0x8e
 2163 01d0 96010000 		.4byte	0x196
 2164 01d4 06       		.uleb128 0x6
 2165 01d5 20       		.byte	0x20
 2166 01d6 03       		.byte	0x3
 2167 01d7 91       		.byte	0x91
 2168 01d8 3F020000 		.4byte	0x23f
 2169 01dc 07       		.uleb128 0x7
 2170 01dd C1030000 		.4byte	.LASF23
 2171 01e1 03       		.byte	0x3
 2172 01e2 93       		.byte	0x93
 2173 01e3 3F010000 		.4byte	0x13f
 2174 01e7 02       		.byte	0x2
 2175 01e8 23       		.byte	0x23
 2176 01e9 00       		.uleb128 0
 2177 01ea 07       		.uleb128 0x7
 2178 01eb 59020000 		.4byte	.LASF31
 2179 01ef 03       		.byte	0x3
 2180 01f0 94       		.byte	0x94
 2181 01f1 3F010000 		.4byte	0x13f
 2182 01f5 02       		.byte	0x2
 2183 01f6 23       		.byte	0x23
 2184 01f7 04       		.uleb128 0x4
 2185 01f8 07       		.uleb128 0x7
 2186 01f9 A9000000 		.4byte	.LASF32
 2187 01fd 03       		.byte	0x3
 2188 01fe 95       		.byte	0x95
 2189 01ff 08010000 		.4byte	0x108
ARM GAS  C:\Users\CHAIYA~1\AppData\Local\Temp\ccQBCuX6.s 			page 58


 2190 0203 02       		.byte	0x2
 2191 0204 23       		.byte	0x23
 2192 0205 08       		.uleb128 0x8
 2193 0206 07       		.uleb128 0x7
 2194 0207 BC000000 		.4byte	.LASF24
 2195 020b 03       		.byte	0x3
 2196 020c 96       		.byte	0x96
 2197 020d 3F010000 		.4byte	0x13f
 2198 0211 02       		.byte	0x2
 2199 0212 23       		.byte	0x23
 2200 0213 10       		.uleb128 0x10
 2201 0214 07       		.uleb128 0x7
 2202 0215 F6030000 		.4byte	.LASF25
 2203 0219 03       		.byte	0x3
 2204 021a 97       		.byte	0x97
 2205 021b 3F010000 		.4byte	0x13f
 2206 021f 02       		.byte	0x2
 2207 0220 23       		.byte	0x23
 2208 0221 14       		.uleb128 0x14
 2209 0222 07       		.uleb128 0x7
 2210 0223 56000000 		.4byte	.LASF33
 2211 0227 03       		.byte	0x3
 2212 0228 98       		.byte	0x98
 2213 0229 3F010000 		.4byte	0x13f
 2214 022d 02       		.byte	0x2
 2215 022e 23       		.byte	0x23
 2216 022f 18       		.uleb128 0x18
 2217 0230 07       		.uleb128 0x7
 2218 0231 04040000 		.4byte	.LASF34
 2219 0235 03       		.byte	0x3
 2220 0236 99       		.byte	0x99
 2221 0237 3F010000 		.4byte	0x13f
 2222 023b 02       		.byte	0x2
 2223 023c 23       		.byte	0x23
 2224 023d 1C       		.uleb128 0x1c
 2225 023e 00       		.byte	0
 2226 023f 04       		.uleb128 0x4
 2227 0240 3C010000 		.4byte	.LASF35
 2228 0244 03       		.byte	0x3
 2229 0245 9A       		.byte	0x9a
 2230 0246 D4010000 		.4byte	0x1d4
 2231 024a 06       		.uleb128 0x6
 2232 024b 10       		.byte	0x10
 2233 024c 03       		.byte	0x3
 2234 024d 9D       		.byte	0x9d
 2235 024e 7D020000 		.4byte	0x27d
 2236 0252 07       		.uleb128 0x7
 2237 0253 50000000 		.4byte	.LASF28
 2238 0257 03       		.byte	0x3
 2239 0258 9F       		.byte	0x9f
 2240 0259 3F010000 		.4byte	0x13f
 2241 025d 02       		.byte	0x2
 2242 025e 23       		.byte	0x23
 2243 025f 00       		.uleb128 0
 2244 0260 07       		.uleb128 0x7
 2245 0261 F1030000 		.4byte	.LASF29
 2246 0265 03       		.byte	0x3
ARM GAS  C:\Users\CHAIYA~1\AppData\Local\Temp\ccQBCuX6.s 			page 59


 2247 0266 A0       		.byte	0xa0
 2248 0267 3F010000 		.4byte	0x13f
 2249 026b 02       		.byte	0x2
 2250 026c 23       		.byte	0x23
 2251 026d 04       		.uleb128 0x4
 2252 026e 07       		.uleb128 0x7
 2253 026f 03020000 		.4byte	.LASF36
 2254 0273 03       		.byte	0x3
 2255 0274 A1       		.byte	0xa1
 2256 0275 08010000 		.4byte	0x108
 2257 0279 02       		.byte	0x2
 2258 027a 23       		.byte	0x23
 2259 027b 08       		.uleb128 0x8
 2260 027c 00       		.byte	0
 2261 027d 04       		.uleb128 0x4
 2262 027e FB020000 		.4byte	.LASF37
 2263 0282 03       		.byte	0x3
 2264 0283 A2       		.byte	0xa2
 2265 0284 4A020000 		.4byte	0x24a
 2266 0288 0A       		.uleb128 0xa
 2267 0289 01       		.byte	0x1
 2268 028a 10020000 		.4byte	.LASF43
 2269 028e 01       		.byte	0x1
 2270 028f 30       		.byte	0x30
 2271 0290 01       		.byte	0x1
 2272 0291 6F000000 		.4byte	0x6f
 2273 0295 00000000 		.4byte	.LFB0
 2274 0299 CA010000 		.4byte	.LFE0
 2275 029d 00000000 		.4byte	.LLST0
 2276 02a1 01       		.byte	0x1
 2277 02a2 FF020000 		.4byte	0x2ff
 2278 02a6 0B       		.uleb128 0xb
 2279 02a7 9E010000 		.4byte	.LASF38
 2280 02ab 01       		.byte	0x1
 2281 02ac 33       		.byte	0x33
 2282 02ad 0F030000 		.4byte	0x30f
 2283 02b1 05       		.byte	0x5
 2284 02b2 03       		.byte	0x3
 2285 02b3 60000000 		.4byte	CAN_RXConfigStruct.4855
 2286 02b7 0B       		.uleb128 0xb
 2287 02b8 71030000 		.4byte	.LASF39
 2288 02bc 01       		.byte	0x1
 2289 02bd 47       		.byte	0x47
 2290 02be 24030000 		.4byte	0x324
 2291 02c2 05       		.byte	0x5
 2292 02c3 03       		.byte	0x3
 2293 02c4 00000000 		.4byte	CAN_TXConfigStruct.4856
 2294 02c8 0C       		.uleb128 0xc
 2295 02c9 6900     		.ascii	"i\000"
 2296 02cb 01       		.byte	0x1
 2297 02cc 53       		.byte	0x53
 2298 02cd 6F000000 		.4byte	0x6f
 2299 02d1 02       		.byte	0x2
 2300 02d2 91       		.byte	0x91
 2301 02d3 77       		.sleb128 -9
 2302 02d4 0B       		.uleb128 0xb
 2303 02d5 16040000 		.4byte	.LASF40
ARM GAS  C:\Users\CHAIYA~1\AppData\Local\Temp\ccQBCuX6.s 			page 60


 2304 02d9 01       		.byte	0x1
 2305 02da 54       		.byte	0x54
 2306 02db 6F000000 		.4byte	0x6f
 2307 02df 02       		.byte	0x2
 2308 02e0 91       		.byte	0x91
 2309 02e1 76       		.sleb128 -10
 2310 02e2 0B       		.uleb128 0xb
 2311 02e3 65030000 		.4byte	.LASF41
 2312 02e7 01       		.byte	0x1
 2313 02e8 55       		.byte	0x55
 2314 02e9 6F000000 		.4byte	0x6f
 2315 02ed 02       		.byte	0x2
 2316 02ee 91       		.byte	0x91
 2317 02ef 75       		.sleb128 -11
 2318 02f0 0B       		.uleb128 0xb
 2319 02f1 D0030000 		.4byte	.LASF42
 2320 02f5 01       		.byte	0x1
 2321 02f6 56       		.byte	0x56
 2322 02f7 6F000000 		.4byte	0x6f
 2323 02fb 02       		.byte	0x2
 2324 02fc 91       		.byte	0x91
 2325 02fd 74       		.sleb128 -12
 2326 02fe 00       		.byte	0
 2327 02ff 08       		.uleb128 0x8
 2328 0300 8B010000 		.4byte	0x18b
 2329 0304 0F030000 		.4byte	0x30f
 2330 0308 09       		.uleb128 0x9
 2331 0309 D5000000 		.4byte	0xd5
 2332 030d 0F       		.byte	0xf
 2333 030e 00       		.byte	0
 2334 030f 0D       		.uleb128 0xd
 2335 0310 FF020000 		.4byte	0x2ff
 2336 0314 08       		.uleb128 0x8
 2337 0315 C9010000 		.4byte	0x1c9
 2338 0319 24030000 		.4byte	0x324
 2339 031d 09       		.uleb128 0x9
 2340 031e D5000000 		.4byte	0xd5
 2341 0322 07       		.byte	0x7
 2342 0323 00       		.byte	0
 2343 0324 0D       		.uleb128 0xd
 2344 0325 14030000 		.4byte	0x314
 2345 0329 0A       		.uleb128 0xa
 2346 032a 01       		.byte	0x1
 2347 032b F0020000 		.4byte	.LASF44
 2348 032f 01       		.byte	0x1
 2349 0330 C4       		.byte	0xc4
 2350 0331 01       		.byte	0x1
 2351 0332 6F000000 		.4byte	0x6f
 2352 0336 00000000 		.4byte	.LFB1
 2353 033a 9E000000 		.4byte	.LFE1
 2354 033e 38000000 		.4byte	.LLST1
 2355 0342 01       		.byte	0x1
 2356 0343 64030000 		.4byte	0x364
 2357 0347 0B       		.uleb128 0xb
 2358 0348 16040000 		.4byte	.LASF40
 2359 034c 01       		.byte	0x1
 2360 034d C6       		.byte	0xc6
ARM GAS  C:\Users\CHAIYA~1\AppData\Local\Temp\ccQBCuX6.s 			page 61


 2361 034e 6F000000 		.4byte	0x6f
 2362 0352 02       		.byte	0x2
 2363 0353 91       		.byte	0x91
 2364 0354 77       		.sleb128 -9
 2365 0355 0B       		.uleb128 0xb
 2366 0356 D0030000 		.4byte	.LASF42
 2367 035a 01       		.byte	0x1
 2368 035b C7       		.byte	0xc7
 2369 035c 6F000000 		.4byte	0x6f
 2370 0360 02       		.byte	0x2
 2371 0361 91       		.byte	0x91
 2372 0362 76       		.sleb128 -10
 2373 0363 00       		.byte	0
 2374 0364 0A       		.uleb128 0xa
 2375 0365 01       		.byte	0x1
 2376 0366 26000000 		.4byte	.LASF45
 2377 036a 01       		.byte	0x1
 2378 036b FD       		.byte	0xfd
 2379 036c 01       		.byte	0x1
 2380 036d 6F000000 		.4byte	0x6f
 2381 0371 00000000 		.4byte	.LFB2
 2382 0375 4A000000 		.4byte	.LFE2
 2383 0379 70000000 		.4byte	.LLST2
 2384 037d 01       		.byte	0x1
 2385 037e 91030000 		.4byte	0x391
 2386 0382 0B       		.uleb128 0xb
 2387 0383 16040000 		.4byte	.LASF40
 2388 0387 01       		.byte	0x1
 2389 0388 FF       		.byte	0xff
 2390 0389 6F000000 		.4byte	0x6f
 2391 038d 02       		.byte	0x2
 2392 038e 91       		.byte	0x91
 2393 038f 77       		.sleb128 -9
 2394 0390 00       		.byte	0
 2395 0391 0E       		.uleb128 0xe
 2396 0392 01       		.byte	0x1
 2397 0393 30000000 		.4byte	.LASF46
 2398 0397 01       		.byte	0x1
 2399 0398 2401     		.2byte	0x124
 2400 039a 01       		.byte	0x1
 2401 039b 6F000000 		.4byte	0x6f
 2402 039f 00000000 		.4byte	.LFB3
 2403 03a3 9E000000 		.4byte	.LFE3
 2404 03a7 A8000000 		.4byte	.LLST3
 2405 03ab 01       		.byte	0x1
 2406 03ac CF030000 		.4byte	0x3cf
 2407 03b0 0F       		.uleb128 0xf
 2408 03b1 16040000 		.4byte	.LASF40
 2409 03b5 01       		.byte	0x1
 2410 03b6 2601     		.2byte	0x126
 2411 03b8 6F000000 		.4byte	0x6f
 2412 03bc 02       		.byte	0x2
 2413 03bd 91       		.byte	0x91
 2414 03be 77       		.sleb128 -9
 2415 03bf 0F       		.uleb128 0xf
 2416 03c0 D0030000 		.4byte	.LASF42
 2417 03c4 01       		.byte	0x1
ARM GAS  C:\Users\CHAIYA~1\AppData\Local\Temp\ccQBCuX6.s 			page 62


 2418 03c5 2701     		.2byte	0x127
 2419 03c7 6F000000 		.4byte	0x6f
 2420 03cb 02       		.byte	0x2
 2421 03cc 91       		.byte	0x91
 2422 03cd 76       		.sleb128 -10
 2423 03ce 00       		.byte	0
 2424 03cf 10       		.uleb128 0x10
 2425 03d0 01       		.byte	0x1
 2426 03d1 B1010000 		.4byte	.LASF47
 2427 03d5 01       		.byte	0x1
 2428 03d6 5501     		.2byte	0x155
 2429 03d8 01       		.byte	0x1
 2430 03d9 6F000000 		.4byte	0x6f
 2431 03dd 00000000 		.4byte	.LFB4
 2432 03e1 50000000 		.4byte	.LFE4
 2433 03e5 E0000000 		.4byte	.LLST4
 2434 03e9 01       		.byte	0x1
 2435 03ea FE030000 		.4byte	0x3fe
 2436 03ee 0F       		.uleb128 0xf
 2437 03ef 16040000 		.4byte	.LASF40
 2438 03f3 01       		.byte	0x1
 2439 03f4 5701     		.2byte	0x157
 2440 03f6 6F000000 		.4byte	0x6f
 2441 03fa 02       		.byte	0x2
 2442 03fb 91       		.byte	0x91
 2443 03fc 77       		.sleb128 -9
 2444 03fd 00       		.byte	0
 2445 03fe 10       		.uleb128 0x10
 2446 03ff 01       		.byte	0x1
 2447 0400 8B000000 		.4byte	.LASF48
 2448 0404 01       		.byte	0x1
 2449 0405 7601     		.2byte	0x176
 2450 0407 01       		.byte	0x1
 2451 0408 6F000000 		.4byte	0x6f
 2452 040c 00000000 		.4byte	.LFB5
 2453 0410 50000000 		.4byte	.LFE5
 2454 0414 18010000 		.4byte	.LLST5
 2455 0418 01       		.byte	0x1
 2456 0419 2D040000 		.4byte	0x42d
 2457 041d 0F       		.uleb128 0xf
 2458 041e 16040000 		.4byte	.LASF40
 2459 0422 01       		.byte	0x1
 2460 0423 7801     		.2byte	0x178
 2461 0425 6F000000 		.4byte	0x6f
 2462 0429 02       		.byte	0x2
 2463 042a 91       		.byte	0x91
 2464 042b 77       		.sleb128 -9
 2465 042c 00       		.byte	0
 2466 042d 10       		.uleb128 0x10
 2467 042e 01       		.byte	0x1
 2468 042f 09030000 		.4byte	.LASF49
 2469 0433 01       		.byte	0x1
 2470 0434 9E01     		.2byte	0x19e
 2471 0436 01       		.byte	0x1
 2472 0437 6F000000 		.4byte	0x6f
 2473 043b 00000000 		.4byte	.LFB6
 2474 043f 50000000 		.4byte	.LFE6
ARM GAS  C:\Users\CHAIYA~1\AppData\Local\Temp\ccQBCuX6.s 			page 63


 2475 0443 50010000 		.4byte	.LLST6
 2476 0447 01       		.byte	0x1
 2477 0448 6B040000 		.4byte	0x46b
 2478 044c 11       		.uleb128 0x11
 2479 044d 69000000 		.4byte	.LASF51
 2480 0451 01       		.byte	0x1
 2481 0452 9E01     		.2byte	0x19e
 2482 0454 7A000000 		.4byte	0x7a
 2483 0458 02       		.byte	0x2
 2484 0459 91       		.byte	0x91
 2485 045a 6E       		.sleb128 -18
 2486 045b 0F       		.uleb128 0xf
 2487 045c 16040000 		.4byte	.LASF40
 2488 0460 01       		.byte	0x1
 2489 0461 A001     		.2byte	0x1a0
 2490 0463 6F000000 		.4byte	0x6f
 2491 0467 02       		.byte	0x2
 2492 0468 91       		.byte	0x91
 2493 0469 77       		.sleb128 -9
 2494 046a 00       		.byte	0
 2495 046b 10       		.uleb128 0x10
 2496 046c 01       		.byte	0x1
 2497 046d D7010000 		.4byte	.LASF50
 2498 0471 01       		.byte	0x1
 2499 0472 C901     		.2byte	0x1c9
 2500 0474 01       		.byte	0x1
 2501 0475 6F000000 		.4byte	0x6f
 2502 0479 00000000 		.4byte	.LFB7
 2503 047d 92000000 		.4byte	.LFE7
 2504 0481 88010000 		.4byte	.LLST7
 2505 0485 01       		.byte	0x1
 2506 0486 A9040000 		.4byte	0x4a9
 2507 048a 11       		.uleb128 0x11
 2508 048b FC030000 		.4byte	.LASF52
 2509 048f 01       		.byte	0x1
 2510 0490 C901     		.2byte	0x1c9
 2511 0492 6F000000 		.4byte	0x6f
 2512 0496 02       		.byte	0x2
 2513 0497 91       		.byte	0x91
 2514 0498 6F       		.sleb128 -17
 2515 0499 0F       		.uleb128 0xf
 2516 049a 16040000 		.4byte	.LASF40
 2517 049e 01       		.byte	0x1
 2518 049f CB01     		.2byte	0x1cb
 2519 04a1 6F000000 		.4byte	0x6f
 2520 04a5 02       		.byte	0x2
 2521 04a6 91       		.byte	0x91
 2522 04a7 77       		.sleb128 -9
 2523 04a8 00       		.byte	0
 2524 04a9 10       		.uleb128 0x10
 2525 04aa 01       		.byte	0x1
 2526 04ab AF030000 		.4byte	.LASF53
 2527 04af 01       		.byte	0x1
 2528 04b0 0002     		.2byte	0x200
 2529 04b2 01       		.byte	0x1
 2530 04b3 6F000000 		.4byte	0x6f
 2531 04b7 00000000 		.4byte	.LFB8
ARM GAS  C:\Users\CHAIYA~1\AppData\Local\Temp\ccQBCuX6.s 			page 64


 2532 04bb EC000000 		.4byte	.LFE8
 2533 04bf C0010000 		.4byte	.LLST8
 2534 04c3 01       		.byte	0x1
 2535 04c4 22050000 		.4byte	0x522
 2536 04c8 11       		.uleb128 0x11
 2537 04c9 9D030000 		.4byte	.LASF54
 2538 04cd 01       		.byte	0x1
 2539 04ce 0002     		.2byte	0x200
 2540 04d0 6F000000 		.4byte	0x6f
 2541 04d4 02       		.byte	0x2
 2542 04d5 91       		.byte	0x91
 2543 04d6 6F       		.sleb128 -17
 2544 04d7 11       		.uleb128 0x11
 2545 04d8 A6030000 		.4byte	.LASF55
 2546 04dc 01       		.byte	0x1
 2547 04dd 0002     		.2byte	0x200
 2548 04df 6F000000 		.4byte	0x6f
 2549 04e3 02       		.byte	0x2
 2550 04e4 91       		.byte	0x91
 2551 04e5 6E       		.sleb128 -18
 2552 04e6 12       		.uleb128 0x12
 2553 04e7 736A7700 		.ascii	"sjw\000"
 2554 04eb 01       		.byte	0x1
 2555 04ec 0002     		.2byte	0x200
 2556 04ee 6F000000 		.4byte	0x6f
 2557 04f2 02       		.byte	0x2
 2558 04f3 91       		.byte	0x91
 2559 04f4 6D       		.sleb128 -19
 2560 04f5 12       		.uleb128 0x12
 2561 04f6 736D00   		.ascii	"sm\000"
 2562 04f9 01       		.byte	0x1
 2563 04fa 0002     		.2byte	0x200
 2564 04fc 6F000000 		.4byte	0x6f
 2565 0500 02       		.byte	0x2
 2566 0501 91       		.byte	0x91
 2567 0502 6C       		.sleb128 -20
 2568 0503 0F       		.uleb128 0xf
 2569 0504 16040000 		.4byte	.LASF40
 2570 0508 01       		.byte	0x1
 2571 0509 0302     		.2byte	0x203
 2572 050b 6F000000 		.4byte	0x6f
 2573 050f 02       		.byte	0x2
 2574 0510 91       		.byte	0x91
 2575 0511 77       		.sleb128 -9
 2576 0512 0F       		.uleb128 0xf
 2577 0513 21020000 		.4byte	.LASF56
 2578 0517 01       		.byte	0x1
 2579 0518 0402     		.2byte	0x204
 2580 051a 6F000000 		.4byte	0x6f
 2581 051e 02       		.byte	0x2
 2582 051f 91       		.byte	0x91
 2583 0520 76       		.sleb128 -10
 2584 0521 00       		.byte	0
 2585 0522 10       		.uleb128 0x10
 2586 0523 01       		.byte	0x1
 2587 0524 1D040000 		.4byte	.LASF57
 2588 0528 01       		.byte	0x1
ARM GAS  C:\Users\CHAIYA~1\AppData\Local\Temp\ccQBCuX6.s 			page 65


 2589 0529 4E02     		.2byte	0x24e
 2590 052b 01       		.byte	0x1
 2591 052c 6F000000 		.4byte	0x6f
 2592 0530 00000000 		.4byte	.LFB9
 2593 0534 92000000 		.4byte	.LFE9
 2594 0538 F8010000 		.4byte	.LLST9
 2595 053c 01       		.byte	0x1
 2596 053d 60050000 		.4byte	0x560
 2597 0541 11       		.uleb128 0x11
 2598 0542 1B000000 		.4byte	.LASF58
 2599 0546 01       		.byte	0x1
 2600 0547 4E02     		.2byte	0x24e
 2601 0549 6F000000 		.4byte	0x6f
 2602 054d 02       		.byte	0x2
 2603 054e 91       		.byte	0x91
 2604 054f 6F       		.sleb128 -17
 2605 0550 0F       		.uleb128 0xf
 2606 0551 16040000 		.4byte	.LASF40
 2607 0555 01       		.byte	0x1
 2608 0556 5002     		.2byte	0x250
 2609 0558 6F000000 		.4byte	0x6f
 2610 055c 02       		.byte	0x2
 2611 055d 91       		.byte	0x91
 2612 055e 77       		.sleb128 -9
 2613 055f 00       		.byte	0
 2614 0560 10       		.uleb128 0x10
 2615 0561 01       		.byte	0x1
 2616 0562 3E030000 		.4byte	.LASF59
 2617 0566 01       		.byte	0x1
 2618 0567 8102     		.2byte	0x281
 2619 0569 01       		.byte	0x1
 2620 056a 6F000000 		.4byte	0x6f
 2621 056e 00000000 		.4byte	.LFB10
 2622 0572 92000000 		.4byte	.LFE10
 2623 0576 30020000 		.4byte	.LLST10
 2624 057a 01       		.byte	0x1
 2625 057b 9E050000 		.4byte	0x59e
 2626 057f 11       		.uleb128 0x11
 2627 0580 21000000 		.4byte	.LASF60
 2628 0584 01       		.byte	0x1
 2629 0585 8102     		.2byte	0x281
 2630 0587 6F000000 		.4byte	0x6f
 2631 058b 02       		.byte	0x2
 2632 058c 91       		.byte	0x91
 2633 058d 6F       		.sleb128 -17
 2634 058e 0F       		.uleb128 0xf
 2635 058f 16040000 		.4byte	.LASF40
 2636 0593 01       		.byte	0x1
 2637 0594 8302     		.2byte	0x283
 2638 0596 6F000000 		.4byte	0x6f
 2639 059a 02       		.byte	0x2
 2640 059b 91       		.byte	0x91
 2641 059c 77       		.sleb128 -9
 2642 059d 00       		.byte	0
 2643 059e 10       		.uleb128 0x10
 2644 059f 01       		.byte	0x1
 2645 05a0 1B010000 		.4byte	.LASF61
ARM GAS  C:\Users\CHAIYA~1\AppData\Local\Temp\ccQBCuX6.s 			page 66


 2646 05a4 01       		.byte	0x1
 2647 05a5 B502     		.2byte	0x2b5
 2648 05a7 01       		.byte	0x1
 2649 05a8 6F000000 		.4byte	0x6f
 2650 05ac 00000000 		.4byte	.LFB11
 2651 05b0 92000000 		.4byte	.LFE11
 2652 05b4 68020000 		.4byte	.LLST11
 2653 05b8 01       		.byte	0x1
 2654 05b9 DC050000 		.4byte	0x5dc
 2655 05bd 11       		.uleb128 0x11
 2656 05be D0010000 		.4byte	.LASF62
 2657 05c2 01       		.byte	0x1
 2658 05c3 B502     		.2byte	0x2b5
 2659 05c5 6F000000 		.4byte	0x6f
 2660 05c9 02       		.byte	0x2
 2661 05ca 91       		.byte	0x91
 2662 05cb 6F       		.sleb128 -17
 2663 05cc 0F       		.uleb128 0xf
 2664 05cd 16040000 		.4byte	.LASF40
 2665 05d1 01       		.byte	0x1
 2666 05d2 B702     		.2byte	0x2b7
 2667 05d4 6F000000 		.4byte	0x6f
 2668 05d8 02       		.byte	0x2
 2669 05d9 91       		.byte	0x91
 2670 05da 77       		.sleb128 -9
 2671 05db 00       		.byte	0
 2672 05dc 10       		.uleb128 0x10
 2673 05dd 01       		.byte	0x1
 2674 05de 5E020000 		.4byte	.LASF63
 2675 05e2 01       		.byte	0x1
 2676 05e3 E702     		.2byte	0x2e7
 2677 05e5 01       		.byte	0x1
 2678 05e6 6F000000 		.4byte	0x6f
 2679 05ea 00000000 		.4byte	.LFB12
 2680 05ee C6000000 		.4byte	.LFE12
 2681 05f2 A0020000 		.4byte	.LLST12
 2682 05f6 01       		.byte	0x1
 2683 05f7 29060000 		.4byte	0x629
 2684 05fb 11       		.uleb128 0x11
 2685 05fc 19020000 		.4byte	.LASF64
 2686 0600 01       		.byte	0x1
 2687 0601 E702     		.2byte	0x2e7
 2688 0603 29060000 		.4byte	0x629
 2689 0607 02       		.byte	0x2
 2690 0608 91       		.byte	0x91
 2691 0609 6C       		.sleb128 -20
 2692 060a 11       		.uleb128 0x11
 2693 060b 4E030000 		.4byte	.LASF65
 2694 060f 01       		.byte	0x1
 2695 0610 E702     		.2byte	0x2e7
 2696 0612 85000000 		.4byte	0x85
 2697 0616 02       		.byte	0x2
 2698 0617 91       		.byte	0x91
 2699 0618 68       		.sleb128 -24
 2700 0619 0F       		.uleb128 0xf
 2701 061a 16040000 		.4byte	.LASF40
 2702 061e 01       		.byte	0x1
ARM GAS  C:\Users\CHAIYA~1\AppData\Local\Temp\ccQBCuX6.s 			page 67


 2703 061f EA02     		.2byte	0x2ea
 2704 0621 6F000000 		.4byte	0x6f
 2705 0625 02       		.byte	0x2
 2706 0626 91       		.byte	0x91
 2707 0627 77       		.sleb128 -9
 2708 0628 00       		.byte	0
 2709 0629 13       		.uleb128 0x13
 2710 062a 04       		.byte	0x4
 2711 062b C5000000 		.4byte	0xc5
 2712 062f 10       		.uleb128 0x10
 2713 0630 01       		.byte	0x1
 2714 0631 ED000000 		.4byte	.LASF66
 2715 0635 01       		.byte	0x1
 2716 0636 3D03     		.2byte	0x33d
 2717 0638 01       		.byte	0x1
 2718 0639 6F000000 		.4byte	0x6f
 2719 063d 00000000 		.4byte	.LFB13
 2720 0641 42000000 		.4byte	.LFE13
 2721 0645 D8020000 		.4byte	.LLST13
 2722 0649 01       		.byte	0x1
 2723 064a 6D060000 		.4byte	0x66d
 2724 064e 11       		.uleb128 0x11
 2725 064f D5000000 		.4byte	.LASF67
 2726 0653 01       		.byte	0x1
 2727 0654 3D03     		.2byte	0x33d
 2728 0656 7A000000 		.4byte	0x7a
 2729 065a 02       		.byte	0x2
 2730 065b 91       		.byte	0x91
 2731 065c 6E       		.sleb128 -18
 2732 065d 0F       		.uleb128 0xf
 2733 065e 16040000 		.4byte	.LASF40
 2734 0662 01       		.byte	0x1
 2735 0663 3F03     		.2byte	0x33f
 2736 0665 6F000000 		.4byte	0x6f
 2737 0669 02       		.byte	0x2
 2738 066a 91       		.byte	0x91
 2739 066b 77       		.sleb128 -9
 2740 066c 00       		.byte	0
 2741 066d 14       		.uleb128 0x14
 2742 066e 01       		.byte	0x1
 2743 066f DD020000 		.4byte	.LASF68
 2744 0673 01       		.byte	0x1
 2745 0674 5D03     		.2byte	0x35d
 2746 0676 01       		.byte	0x1
 2747 0677 6F000000 		.4byte	0x6f
 2748 067b 00000000 		.4byte	.LFB14
 2749 067f 2A000000 		.4byte	.LFE14
 2750 0683 10030000 		.4byte	.LLST14
 2751 0687 01       		.byte	0x1
 2752 0688 14       		.uleb128 0x14
 2753 0689 01       		.byte	0x1
 2754 068a DA000000 		.4byte	.LASF69
 2755 068e 01       		.byte	0x1
 2756 068f 7403     		.2byte	0x374
 2757 0691 01       		.byte	0x1
 2758 0692 6F000000 		.4byte	0x6f
 2759 0696 00000000 		.4byte	.LFB15
ARM GAS  C:\Users\CHAIYA~1\AppData\Local\Temp\ccQBCuX6.s 			page 68


 2760 069a 2A000000 		.4byte	.LFE15
 2761 069e 3C030000 		.4byte	.LLST15
 2762 06a2 01       		.byte	0x1
 2763 06a3 14       		.uleb128 0x14
 2764 06a4 01       		.byte	0x1
 2765 06a5 E6010000 		.4byte	.LASF70
 2766 06a9 01       		.byte	0x1
 2767 06aa 8A03     		.2byte	0x38a
 2768 06ac 01       		.byte	0x1
 2769 06ad 6F000000 		.4byte	0x6f
 2770 06b1 00000000 		.4byte	.LFB16
 2771 06b5 18000000 		.4byte	.LFE16
 2772 06b9 68030000 		.4byte	.LLST16
 2773 06bd 01       		.byte	0x1
 2774 06be 14       		.uleb128 0x14
 2775 06bf 01       		.byte	0x1
 2776 06c0 00000000 		.4byte	.LASF71
 2777 06c4 01       		.byte	0x1
 2778 06c5 9F03     		.2byte	0x39f
 2779 06c7 01       		.byte	0x1
 2780 06c8 6F000000 		.4byte	0x6f
 2781 06cc 00000000 		.4byte	.LFB17
 2782 06d0 18000000 		.4byte	.LFE17
 2783 06d4 94030000 		.4byte	.LLST17
 2784 06d8 01       		.byte	0x1
 2785 06d9 14       		.uleb128 0x14
 2786 06da 01       		.byte	0x1
 2787 06db 47020000 		.4byte	.LASF72
 2788 06df 01       		.byte	0x1
 2789 06e0 B403     		.2byte	0x3b4
 2790 06e2 01       		.byte	0x1
 2791 06e3 6F000000 		.4byte	0x6f
 2792 06e7 00000000 		.4byte	.LFB18
 2793 06eb 1E000000 		.4byte	.LFE18
 2794 06ef C0030000 		.4byte	.LLST18
 2795 06f3 01       		.byte	0x1
 2796 06f4 10       		.uleb128 0x10
 2797 06f5 01       		.byte	0x1
 2798 06f6 E1030000 		.4byte	.LASF73
 2799 06fa 01       		.byte	0x1
 2800 06fb CD03     		.2byte	0x3cd
 2801 06fd 01       		.byte	0x1
 2802 06fe 6F000000 		.4byte	0x6f
 2803 0702 00000000 		.4byte	.LFB19
 2804 0706 4C010000 		.4byte	.LFE19
 2805 070a EC030000 		.4byte	.LLST19
 2806 070e 01       		.byte	0x1
 2807 070f 32070000 		.4byte	0x732
 2808 0713 11       		.uleb128 0x11
 2809 0714 FA010000 		.4byte	.LASF74
 2810 0718 01       		.byte	0x1
 2811 0719 CD03     		.2byte	0x3cd
 2812 071b 32070000 		.4byte	0x732
 2813 071f 02       		.byte	0x2
 2814 0720 91       		.byte	0x91
 2815 0721 6C       		.sleb128 -20
 2816 0722 0F       		.uleb128 0xf
ARM GAS  C:\Users\CHAIYA~1\AppData\Local\Temp\ccQBCuX6.s 			page 69


 2817 0723 16040000 		.4byte	.LASF40
 2818 0727 01       		.byte	0x1
 2819 0728 D003     		.2byte	0x3d0
 2820 072a 6F000000 		.4byte	0x6f
 2821 072e 02       		.byte	0x2
 2822 072f 91       		.byte	0x91
 2823 0730 77       		.sleb128 -9
 2824 0731 00       		.byte	0
 2825 0732 13       		.uleb128 0x13
 2826 0733 04       		.byte	0x4
 2827 0734 38070000 		.4byte	0x738
 2828 0738 0D       		.uleb128 0xd
 2829 0739 8B010000 		.4byte	0x18b
 2830 073d 10       		.uleb128 0x10
 2831 073e 01       		.byte	0x1
 2832 073f 55030000 		.4byte	.LASF75
 2833 0743 01       		.byte	0x1
 2834 0744 0604     		.2byte	0x406
 2835 0746 01       		.byte	0x1
 2836 0747 6F000000 		.4byte	0x6f
 2837 074b 00000000 		.4byte	.LFB20
 2838 074f AE000000 		.4byte	.LFE20
 2839 0753 24040000 		.4byte	.LLST20
 2840 0757 01       		.byte	0x1
 2841 0758 7B070000 		.4byte	0x77b
 2842 075c 11       		.uleb128 0x11
 2843 075d C7030000 		.4byte	.LASF76
 2844 0761 01       		.byte	0x1
 2845 0762 0604     		.2byte	0x406
 2846 0764 7B070000 		.4byte	0x77b
 2847 0768 02       		.byte	0x2
 2848 0769 91       		.byte	0x91
 2849 076a 6C       		.sleb128 -20
 2850 076b 0F       		.uleb128 0xf
 2851 076c 16040000 		.4byte	.LASF40
 2852 0770 01       		.byte	0x1
 2853 0771 0904     		.2byte	0x409
 2854 0773 6F000000 		.4byte	0x6f
 2855 0777 02       		.byte	0x2
 2856 0778 91       		.byte	0x91
 2857 0779 77       		.sleb128 -9
 2858 077a 00       		.byte	0
 2859 077b 13       		.uleb128 0x13
 2860 077c 04       		.byte	0x4
 2861 077d 81070000 		.4byte	0x781
 2862 0781 0D       		.uleb128 0xd
 2863 0782 C9010000 		.4byte	0x1c9
 2864 0786 15       		.uleb128 0x15
 2865 0787 5D000000 		.4byte	.LASF80
 2866 078b 01       		.byte	0x1
 2867 078c 16       		.byte	0x16
 2868 078d 6F000000 		.4byte	0x6f
 2869 0791 01       		.byte	0x1
 2870 0792 05       		.byte	0x5
 2871 0793 03       		.byte	0x3
 2872 0794 00000000 		.4byte	CAN_initVar
 2873 0798 00       		.byte	0
ARM GAS  C:\Users\CHAIYA~1\AppData\Local\Temp\ccQBCuX6.s 			page 70


 2874              		.section	.debug_abbrev,"",%progbits
 2875              	.Ldebug_abbrev0:
 2876 0000 01       		.uleb128 0x1
 2877 0001 11       		.uleb128 0x11
 2878 0002 01       		.byte	0x1
 2879 0003 25       		.uleb128 0x25
 2880 0004 0E       		.uleb128 0xe
 2881 0005 13       		.uleb128 0x13
 2882 0006 0B       		.uleb128 0xb
 2883 0007 03       		.uleb128 0x3
 2884 0008 0E       		.uleb128 0xe
 2885 0009 1B       		.uleb128 0x1b
 2886 000a 0E       		.uleb128 0xe
 2887 000b 55       		.uleb128 0x55
 2888 000c 06       		.uleb128 0x6
 2889 000d 11       		.uleb128 0x11
 2890 000e 01       		.uleb128 0x1
 2891 000f 52       		.uleb128 0x52
 2892 0010 01       		.uleb128 0x1
 2893 0011 10       		.uleb128 0x10
 2894 0012 06       		.uleb128 0x6
 2895 0013 00       		.byte	0
 2896 0014 00       		.byte	0
 2897 0015 02       		.uleb128 0x2
 2898 0016 24       		.uleb128 0x24
 2899 0017 00       		.byte	0
 2900 0018 0B       		.uleb128 0xb
 2901 0019 0B       		.uleb128 0xb
 2902 001a 3E       		.uleb128 0x3e
 2903 001b 0B       		.uleb128 0xb
 2904 001c 03       		.uleb128 0x3
 2905 001d 0E       		.uleb128 0xe
 2906 001e 00       		.byte	0
 2907 001f 00       		.byte	0
 2908 0020 03       		.uleb128 0x3
 2909 0021 24       		.uleb128 0x24
 2910 0022 00       		.byte	0
 2911 0023 0B       		.uleb128 0xb
 2912 0024 0B       		.uleb128 0xb
 2913 0025 3E       		.uleb128 0x3e
 2914 0026 0B       		.uleb128 0xb
 2915 0027 03       		.uleb128 0x3
 2916 0028 08       		.uleb128 0x8
 2917 0029 00       		.byte	0
 2918 002a 00       		.byte	0
 2919 002b 04       		.uleb128 0x4
 2920 002c 16       		.uleb128 0x16
 2921 002d 00       		.byte	0
 2922 002e 03       		.uleb128 0x3
 2923 002f 0E       		.uleb128 0xe
 2924 0030 3A       		.uleb128 0x3a
 2925 0031 0B       		.uleb128 0xb
 2926 0032 3B       		.uleb128 0x3b
 2927 0033 0B       		.uleb128 0xb
 2928 0034 49       		.uleb128 0x49
 2929 0035 13       		.uleb128 0x13
 2930 0036 00       		.byte	0
ARM GAS  C:\Users\CHAIYA~1\AppData\Local\Temp\ccQBCuX6.s 			page 71


 2931 0037 00       		.byte	0
 2932 0038 05       		.uleb128 0x5
 2933 0039 35       		.uleb128 0x35
 2934 003a 00       		.byte	0
 2935 003b 49       		.uleb128 0x49
 2936 003c 13       		.uleb128 0x13
 2937 003d 00       		.byte	0
 2938 003e 00       		.byte	0
 2939 003f 06       		.uleb128 0x6
 2940 0040 13       		.uleb128 0x13
 2941 0041 01       		.byte	0x1
 2942 0042 0B       		.uleb128 0xb
 2943 0043 0B       		.uleb128 0xb
 2944 0044 3A       		.uleb128 0x3a
 2945 0045 0B       		.uleb128 0xb
 2946 0046 3B       		.uleb128 0x3b
 2947 0047 0B       		.uleb128 0xb
 2948 0048 01       		.uleb128 0x1
 2949 0049 13       		.uleb128 0x13
 2950 004a 00       		.byte	0
 2951 004b 00       		.byte	0
 2952 004c 07       		.uleb128 0x7
 2953 004d 0D       		.uleb128 0xd
 2954 004e 00       		.byte	0
 2955 004f 03       		.uleb128 0x3
 2956 0050 0E       		.uleb128 0xe
 2957 0051 3A       		.uleb128 0x3a
 2958 0052 0B       		.uleb128 0xb
 2959 0053 3B       		.uleb128 0x3b
 2960 0054 0B       		.uleb128 0xb
 2961 0055 49       		.uleb128 0x49
 2962 0056 13       		.uleb128 0x13
 2963 0057 38       		.uleb128 0x38
 2964 0058 0A       		.uleb128 0xa
 2965 0059 00       		.byte	0
 2966 005a 00       		.byte	0
 2967 005b 08       		.uleb128 0x8
 2968 005c 01       		.uleb128 0x1
 2969 005d 01       		.byte	0x1
 2970 005e 49       		.uleb128 0x49
 2971 005f 13       		.uleb128 0x13
 2972 0060 01       		.uleb128 0x1
 2973 0061 13       		.uleb128 0x13
 2974 0062 00       		.byte	0
 2975 0063 00       		.byte	0
 2976 0064 09       		.uleb128 0x9
 2977 0065 21       		.uleb128 0x21
 2978 0066 00       		.byte	0
 2979 0067 49       		.uleb128 0x49
 2980 0068 13       		.uleb128 0x13
 2981 0069 2F       		.uleb128 0x2f
 2982 006a 0B       		.uleb128 0xb
 2983 006b 00       		.byte	0
 2984 006c 00       		.byte	0
 2985 006d 0A       		.uleb128 0xa
 2986 006e 2E       		.uleb128 0x2e
 2987 006f 01       		.byte	0x1
ARM GAS  C:\Users\CHAIYA~1\AppData\Local\Temp\ccQBCuX6.s 			page 72


 2988 0070 3F       		.uleb128 0x3f
 2989 0071 0C       		.uleb128 0xc
 2990 0072 03       		.uleb128 0x3
 2991 0073 0E       		.uleb128 0xe
 2992 0074 3A       		.uleb128 0x3a
 2993 0075 0B       		.uleb128 0xb
 2994 0076 3B       		.uleb128 0x3b
 2995 0077 0B       		.uleb128 0xb
 2996 0078 27       		.uleb128 0x27
 2997 0079 0C       		.uleb128 0xc
 2998 007a 49       		.uleb128 0x49
 2999 007b 13       		.uleb128 0x13
 3000 007c 11       		.uleb128 0x11
 3001 007d 01       		.uleb128 0x1
 3002 007e 12       		.uleb128 0x12
 3003 007f 01       		.uleb128 0x1
 3004 0080 40       		.uleb128 0x40
 3005 0081 06       		.uleb128 0x6
 3006 0082 9642     		.uleb128 0x2116
 3007 0084 0C       		.uleb128 0xc
 3008 0085 01       		.uleb128 0x1
 3009 0086 13       		.uleb128 0x13
 3010 0087 00       		.byte	0
 3011 0088 00       		.byte	0
 3012 0089 0B       		.uleb128 0xb
 3013 008a 34       		.uleb128 0x34
 3014 008b 00       		.byte	0
 3015 008c 03       		.uleb128 0x3
 3016 008d 0E       		.uleb128 0xe
 3017 008e 3A       		.uleb128 0x3a
 3018 008f 0B       		.uleb128 0xb
 3019 0090 3B       		.uleb128 0x3b
 3020 0091 0B       		.uleb128 0xb
 3021 0092 49       		.uleb128 0x49
 3022 0093 13       		.uleb128 0x13
 3023 0094 02       		.uleb128 0x2
 3024 0095 0A       		.uleb128 0xa
 3025 0096 00       		.byte	0
 3026 0097 00       		.byte	0
 3027 0098 0C       		.uleb128 0xc
 3028 0099 34       		.uleb128 0x34
 3029 009a 00       		.byte	0
 3030 009b 03       		.uleb128 0x3
 3031 009c 08       		.uleb128 0x8
 3032 009d 3A       		.uleb128 0x3a
 3033 009e 0B       		.uleb128 0xb
 3034 009f 3B       		.uleb128 0x3b
 3035 00a0 0B       		.uleb128 0xb
 3036 00a1 49       		.uleb128 0x49
 3037 00a2 13       		.uleb128 0x13
 3038 00a3 02       		.uleb128 0x2
 3039 00a4 0A       		.uleb128 0xa
 3040 00a5 00       		.byte	0
 3041 00a6 00       		.byte	0
 3042 00a7 0D       		.uleb128 0xd
 3043 00a8 26       		.uleb128 0x26
 3044 00a9 00       		.byte	0
ARM GAS  C:\Users\CHAIYA~1\AppData\Local\Temp\ccQBCuX6.s 			page 73


 3045 00aa 49       		.uleb128 0x49
 3046 00ab 13       		.uleb128 0x13
 3047 00ac 00       		.byte	0
 3048 00ad 00       		.byte	0
 3049 00ae 0E       		.uleb128 0xe
 3050 00af 2E       		.uleb128 0x2e
 3051 00b0 01       		.byte	0x1
 3052 00b1 3F       		.uleb128 0x3f
 3053 00b2 0C       		.uleb128 0xc
 3054 00b3 03       		.uleb128 0x3
 3055 00b4 0E       		.uleb128 0xe
 3056 00b5 3A       		.uleb128 0x3a
 3057 00b6 0B       		.uleb128 0xb
 3058 00b7 3B       		.uleb128 0x3b
 3059 00b8 05       		.uleb128 0x5
 3060 00b9 27       		.uleb128 0x27
 3061 00ba 0C       		.uleb128 0xc
 3062 00bb 49       		.uleb128 0x49
 3063 00bc 13       		.uleb128 0x13
 3064 00bd 11       		.uleb128 0x11
 3065 00be 01       		.uleb128 0x1
 3066 00bf 12       		.uleb128 0x12
 3067 00c0 01       		.uleb128 0x1
 3068 00c1 40       		.uleb128 0x40
 3069 00c2 06       		.uleb128 0x6
 3070 00c3 9642     		.uleb128 0x2116
 3071 00c5 0C       		.uleb128 0xc
 3072 00c6 01       		.uleb128 0x1
 3073 00c7 13       		.uleb128 0x13
 3074 00c8 00       		.byte	0
 3075 00c9 00       		.byte	0
 3076 00ca 0F       		.uleb128 0xf
 3077 00cb 34       		.uleb128 0x34
 3078 00cc 00       		.byte	0
 3079 00cd 03       		.uleb128 0x3
 3080 00ce 0E       		.uleb128 0xe
 3081 00cf 3A       		.uleb128 0x3a
 3082 00d0 0B       		.uleb128 0xb
 3083 00d1 3B       		.uleb128 0x3b
 3084 00d2 05       		.uleb128 0x5
 3085 00d3 49       		.uleb128 0x49
 3086 00d4 13       		.uleb128 0x13
 3087 00d5 02       		.uleb128 0x2
 3088 00d6 0A       		.uleb128 0xa
 3089 00d7 00       		.byte	0
 3090 00d8 00       		.byte	0
 3091 00d9 10       		.uleb128 0x10
 3092 00da 2E       		.uleb128 0x2e
 3093 00db 01       		.byte	0x1
 3094 00dc 3F       		.uleb128 0x3f
 3095 00dd 0C       		.uleb128 0xc
 3096 00de 03       		.uleb128 0x3
 3097 00df 0E       		.uleb128 0xe
 3098 00e0 3A       		.uleb128 0x3a
 3099 00e1 0B       		.uleb128 0xb
 3100 00e2 3B       		.uleb128 0x3b
 3101 00e3 05       		.uleb128 0x5
ARM GAS  C:\Users\CHAIYA~1\AppData\Local\Temp\ccQBCuX6.s 			page 74


 3102 00e4 27       		.uleb128 0x27
 3103 00e5 0C       		.uleb128 0xc
 3104 00e6 49       		.uleb128 0x49
 3105 00e7 13       		.uleb128 0x13
 3106 00e8 11       		.uleb128 0x11
 3107 00e9 01       		.uleb128 0x1
 3108 00ea 12       		.uleb128 0x12
 3109 00eb 01       		.uleb128 0x1
 3110 00ec 40       		.uleb128 0x40
 3111 00ed 06       		.uleb128 0x6
 3112 00ee 9742     		.uleb128 0x2117
 3113 00f0 0C       		.uleb128 0xc
 3114 00f1 01       		.uleb128 0x1
 3115 00f2 13       		.uleb128 0x13
 3116 00f3 00       		.byte	0
 3117 00f4 00       		.byte	0
 3118 00f5 11       		.uleb128 0x11
 3119 00f6 05       		.uleb128 0x5
 3120 00f7 00       		.byte	0
 3121 00f8 03       		.uleb128 0x3
 3122 00f9 0E       		.uleb128 0xe
 3123 00fa 3A       		.uleb128 0x3a
 3124 00fb 0B       		.uleb128 0xb
 3125 00fc 3B       		.uleb128 0x3b
 3126 00fd 05       		.uleb128 0x5
 3127 00fe 49       		.uleb128 0x49
 3128 00ff 13       		.uleb128 0x13
 3129 0100 02       		.uleb128 0x2
 3130 0101 0A       		.uleb128 0xa
 3131 0102 00       		.byte	0
 3132 0103 00       		.byte	0
 3133 0104 12       		.uleb128 0x12
 3134 0105 05       		.uleb128 0x5
 3135 0106 00       		.byte	0
 3136 0107 03       		.uleb128 0x3
 3137 0108 08       		.uleb128 0x8
 3138 0109 3A       		.uleb128 0x3a
 3139 010a 0B       		.uleb128 0xb
 3140 010b 3B       		.uleb128 0x3b
 3141 010c 05       		.uleb128 0x5
 3142 010d 49       		.uleb128 0x49
 3143 010e 13       		.uleb128 0x13
 3144 010f 02       		.uleb128 0x2
 3145 0110 0A       		.uleb128 0xa
 3146 0111 00       		.byte	0
 3147 0112 00       		.byte	0
 3148 0113 13       		.uleb128 0x13
 3149 0114 0F       		.uleb128 0xf
 3150 0115 00       		.byte	0
 3151 0116 0B       		.uleb128 0xb
 3152 0117 0B       		.uleb128 0xb
 3153 0118 49       		.uleb128 0x49
 3154 0119 13       		.uleb128 0x13
 3155 011a 00       		.byte	0
 3156 011b 00       		.byte	0
 3157 011c 14       		.uleb128 0x14
 3158 011d 2E       		.uleb128 0x2e
ARM GAS  C:\Users\CHAIYA~1\AppData\Local\Temp\ccQBCuX6.s 			page 75


 3159 011e 00       		.byte	0
 3160 011f 3F       		.uleb128 0x3f
 3161 0120 0C       		.uleb128 0xc
 3162 0121 03       		.uleb128 0x3
 3163 0122 0E       		.uleb128 0xe
 3164 0123 3A       		.uleb128 0x3a
 3165 0124 0B       		.uleb128 0xb
 3166 0125 3B       		.uleb128 0x3b
 3167 0126 05       		.uleb128 0x5
 3168 0127 27       		.uleb128 0x27
 3169 0128 0C       		.uleb128 0xc
 3170 0129 49       		.uleb128 0x49
 3171 012a 13       		.uleb128 0x13
 3172 012b 11       		.uleb128 0x11
 3173 012c 01       		.uleb128 0x1
 3174 012d 12       		.uleb128 0x12
 3175 012e 01       		.uleb128 0x1
 3176 012f 40       		.uleb128 0x40
 3177 0130 06       		.uleb128 0x6
 3178 0131 9742     		.uleb128 0x2117
 3179 0133 0C       		.uleb128 0xc
 3180 0134 00       		.byte	0
 3181 0135 00       		.byte	0
 3182 0136 15       		.uleb128 0x15
 3183 0137 34       		.uleb128 0x34
 3184 0138 00       		.byte	0
 3185 0139 03       		.uleb128 0x3
 3186 013a 0E       		.uleb128 0xe
 3187 013b 3A       		.uleb128 0x3a
 3188 013c 0B       		.uleb128 0xb
 3189 013d 3B       		.uleb128 0x3b
 3190 013e 0B       		.uleb128 0xb
 3191 013f 49       		.uleb128 0x49
 3192 0140 13       		.uleb128 0x13
 3193 0141 3F       		.uleb128 0x3f
 3194 0142 0C       		.uleb128 0xc
 3195 0143 02       		.uleb128 0x2
 3196 0144 0A       		.uleb128 0xa
 3197 0145 00       		.byte	0
 3198 0146 00       		.byte	0
 3199 0147 00       		.byte	0
 3200              		.section	.debug_loc,"",%progbits
 3201              	.Ldebug_loc0:
 3202              	.LLST0:
 3203 0000 00000000 		.4byte	.LFB0
 3204 0004 02000000 		.4byte	.LCFI0
 3205 0008 0200     		.2byte	0x2
 3206 000a 7D       		.byte	0x7d
 3207 000b 00       		.sleb128 0
 3208 000c 02000000 		.4byte	.LCFI0
 3209 0010 04000000 		.4byte	.LCFI1
 3210 0014 0200     		.2byte	0x2
 3211 0016 7D       		.byte	0x7d
 3212 0017 08       		.sleb128 8
 3213 0018 04000000 		.4byte	.LCFI1
 3214 001c 06000000 		.4byte	.LCFI2
 3215 0020 0200     		.2byte	0x2
ARM GAS  C:\Users\CHAIYA~1\AppData\Local\Temp\ccQBCuX6.s 			page 76


 3216 0022 7D       		.byte	0x7d
 3217 0023 10       		.sleb128 16
 3218 0024 06000000 		.4byte	.LCFI2
 3219 0028 CA010000 		.4byte	.LFE0
 3220 002c 0200     		.2byte	0x2
 3221 002e 77       		.byte	0x77
 3222 002f 10       		.sleb128 16
 3223 0030 00000000 		.4byte	0
 3224 0034 00000000 		.4byte	0
 3225              	.LLST1:
 3226 0038 00000000 		.4byte	.LFB1
 3227 003c 02000000 		.4byte	.LCFI3
 3228 0040 0200     		.2byte	0x2
 3229 0042 7D       		.byte	0x7d
 3230 0043 00       		.sleb128 0
 3231 0044 02000000 		.4byte	.LCFI3
 3232 0048 04000000 		.4byte	.LCFI4
 3233 004c 0200     		.2byte	0x2
 3234 004e 7D       		.byte	0x7d
 3235 004f 08       		.sleb128 8
 3236 0050 04000000 		.4byte	.LCFI4
 3237 0054 06000000 		.4byte	.LCFI5
 3238 0058 0200     		.2byte	0x2
 3239 005a 7D       		.byte	0x7d
 3240 005b 10       		.sleb128 16
 3241 005c 06000000 		.4byte	.LCFI5
 3242 0060 9E000000 		.4byte	.LFE1
 3243 0064 0200     		.2byte	0x2
 3244 0066 77       		.byte	0x77
 3245 0067 10       		.sleb128 16
 3246 0068 00000000 		.4byte	0
 3247 006c 00000000 		.4byte	0
 3248              	.LLST2:
 3249 0070 00000000 		.4byte	.LFB2
 3250 0074 02000000 		.4byte	.LCFI6
 3251 0078 0200     		.2byte	0x2
 3252 007a 7D       		.byte	0x7d
 3253 007b 00       		.sleb128 0
 3254 007c 02000000 		.4byte	.LCFI6
 3255 0080 04000000 		.4byte	.LCFI7
 3256 0084 0200     		.2byte	0x2
 3257 0086 7D       		.byte	0x7d
 3258 0087 08       		.sleb128 8
 3259 0088 04000000 		.4byte	.LCFI7
 3260 008c 06000000 		.4byte	.LCFI8
 3261 0090 0200     		.2byte	0x2
 3262 0092 7D       		.byte	0x7d
 3263 0093 10       		.sleb128 16
 3264 0094 06000000 		.4byte	.LCFI8
 3265 0098 4A000000 		.4byte	.LFE2
 3266 009c 0200     		.2byte	0x2
 3267 009e 77       		.byte	0x77
 3268 009f 10       		.sleb128 16
 3269 00a0 00000000 		.4byte	0
 3270 00a4 00000000 		.4byte	0
 3271              	.LLST3:
 3272 00a8 00000000 		.4byte	.LFB3
ARM GAS  C:\Users\CHAIYA~1\AppData\Local\Temp\ccQBCuX6.s 			page 77


 3273 00ac 02000000 		.4byte	.LCFI9
 3274 00b0 0200     		.2byte	0x2
 3275 00b2 7D       		.byte	0x7d
 3276 00b3 00       		.sleb128 0
 3277 00b4 02000000 		.4byte	.LCFI9
 3278 00b8 04000000 		.4byte	.LCFI10
 3279 00bc 0200     		.2byte	0x2
 3280 00be 7D       		.byte	0x7d
 3281 00bf 08       		.sleb128 8
 3282 00c0 04000000 		.4byte	.LCFI10
 3283 00c4 06000000 		.4byte	.LCFI11
 3284 00c8 0200     		.2byte	0x2
 3285 00ca 7D       		.byte	0x7d
 3286 00cb 10       		.sleb128 16
 3287 00cc 06000000 		.4byte	.LCFI11
 3288 00d0 9E000000 		.4byte	.LFE3
 3289 00d4 0200     		.2byte	0x2
 3290 00d6 77       		.byte	0x77
 3291 00d7 10       		.sleb128 16
 3292 00d8 00000000 		.4byte	0
 3293 00dc 00000000 		.4byte	0
 3294              	.LLST4:
 3295 00e0 00000000 		.4byte	.LFB4
 3296 00e4 02000000 		.4byte	.LCFI12
 3297 00e8 0200     		.2byte	0x2
 3298 00ea 7D       		.byte	0x7d
 3299 00eb 00       		.sleb128 0
 3300 00ec 02000000 		.4byte	.LCFI12
 3301 00f0 04000000 		.4byte	.LCFI13
 3302 00f4 0200     		.2byte	0x2
 3303 00f6 7D       		.byte	0x7d
 3304 00f7 04       		.sleb128 4
 3305 00f8 04000000 		.4byte	.LCFI13
 3306 00fc 06000000 		.4byte	.LCFI14
 3307 0100 0200     		.2byte	0x2
 3308 0102 7D       		.byte	0x7d
 3309 0103 10       		.sleb128 16
 3310 0104 06000000 		.4byte	.LCFI14
 3311 0108 50000000 		.4byte	.LFE4
 3312 010c 0200     		.2byte	0x2
 3313 010e 77       		.byte	0x77
 3314 010f 10       		.sleb128 16
 3315 0110 00000000 		.4byte	0
 3316 0114 00000000 		.4byte	0
 3317              	.LLST5:
 3318 0118 00000000 		.4byte	.LFB5
 3319 011c 02000000 		.4byte	.LCFI15
 3320 0120 0200     		.2byte	0x2
 3321 0122 7D       		.byte	0x7d
 3322 0123 00       		.sleb128 0
 3323 0124 02000000 		.4byte	.LCFI15
 3324 0128 04000000 		.4byte	.LCFI16
 3325 012c 0200     		.2byte	0x2
 3326 012e 7D       		.byte	0x7d
 3327 012f 04       		.sleb128 4
 3328 0130 04000000 		.4byte	.LCFI16
 3329 0134 06000000 		.4byte	.LCFI17
ARM GAS  C:\Users\CHAIYA~1\AppData\Local\Temp\ccQBCuX6.s 			page 78


 3330 0138 0200     		.2byte	0x2
 3331 013a 7D       		.byte	0x7d
 3332 013b 10       		.sleb128 16
 3333 013c 06000000 		.4byte	.LCFI17
 3334 0140 50000000 		.4byte	.LFE5
 3335 0144 0200     		.2byte	0x2
 3336 0146 77       		.byte	0x77
 3337 0147 10       		.sleb128 16
 3338 0148 00000000 		.4byte	0
 3339 014c 00000000 		.4byte	0
 3340              	.LLST6:
 3341 0150 00000000 		.4byte	.LFB6
 3342 0154 02000000 		.4byte	.LCFI18
 3343 0158 0200     		.2byte	0x2
 3344 015a 7D       		.byte	0x7d
 3345 015b 00       		.sleb128 0
 3346 015c 02000000 		.4byte	.LCFI18
 3347 0160 04000000 		.4byte	.LCFI19
 3348 0164 0200     		.2byte	0x2
 3349 0166 7D       		.byte	0x7d
 3350 0167 04       		.sleb128 4
 3351 0168 04000000 		.4byte	.LCFI19
 3352 016c 06000000 		.4byte	.LCFI20
 3353 0170 0200     		.2byte	0x2
 3354 0172 7D       		.byte	0x7d
 3355 0173 18       		.sleb128 24
 3356 0174 06000000 		.4byte	.LCFI20
 3357 0178 50000000 		.4byte	.LFE6
 3358 017c 0200     		.2byte	0x2
 3359 017e 77       		.byte	0x77
 3360 017f 18       		.sleb128 24
 3361 0180 00000000 		.4byte	0
 3362 0184 00000000 		.4byte	0
 3363              	.LLST7:
 3364 0188 00000000 		.4byte	.LFB7
 3365 018c 02000000 		.4byte	.LCFI21
 3366 0190 0200     		.2byte	0x2
 3367 0192 7D       		.byte	0x7d
 3368 0193 00       		.sleb128 0
 3369 0194 02000000 		.4byte	.LCFI21
 3370 0198 04000000 		.4byte	.LCFI22
 3371 019c 0200     		.2byte	0x2
 3372 019e 7D       		.byte	0x7d
 3373 019f 04       		.sleb128 4
 3374 01a0 04000000 		.4byte	.LCFI22
 3375 01a4 06000000 		.4byte	.LCFI23
 3376 01a8 0200     		.2byte	0x2
 3377 01aa 7D       		.byte	0x7d
 3378 01ab 18       		.sleb128 24
 3379 01ac 06000000 		.4byte	.LCFI23
 3380 01b0 92000000 		.4byte	.LFE7
 3381 01b4 0200     		.2byte	0x2
 3382 01b6 77       		.byte	0x77
 3383 01b7 18       		.sleb128 24
 3384 01b8 00000000 		.4byte	0
 3385 01bc 00000000 		.4byte	0
 3386              	.LLST8:
ARM GAS  C:\Users\CHAIYA~1\AppData\Local\Temp\ccQBCuX6.s 			page 79


 3387 01c0 00000000 		.4byte	.LFB8
 3388 01c4 02000000 		.4byte	.LCFI24
 3389 01c8 0200     		.2byte	0x2
 3390 01ca 7D       		.byte	0x7d
 3391 01cb 00       		.sleb128 0
 3392 01cc 02000000 		.4byte	.LCFI24
 3393 01d0 04000000 		.4byte	.LCFI25
 3394 01d4 0200     		.2byte	0x2
 3395 01d6 7D       		.byte	0x7d
 3396 01d7 04       		.sleb128 4
 3397 01d8 04000000 		.4byte	.LCFI25
 3398 01dc 06000000 		.4byte	.LCFI26
 3399 01e0 0200     		.2byte	0x2
 3400 01e2 7D       		.byte	0x7d
 3401 01e3 18       		.sleb128 24
 3402 01e4 06000000 		.4byte	.LCFI26
 3403 01e8 EC000000 		.4byte	.LFE8
 3404 01ec 0200     		.2byte	0x2
 3405 01ee 77       		.byte	0x77
 3406 01ef 18       		.sleb128 24
 3407 01f0 00000000 		.4byte	0
 3408 01f4 00000000 		.4byte	0
 3409              	.LLST9:
 3410 01f8 00000000 		.4byte	.LFB9
 3411 01fc 02000000 		.4byte	.LCFI27
 3412 0200 0200     		.2byte	0x2
 3413 0202 7D       		.byte	0x7d
 3414 0203 00       		.sleb128 0
 3415 0204 02000000 		.4byte	.LCFI27
 3416 0208 04000000 		.4byte	.LCFI28
 3417 020c 0200     		.2byte	0x2
 3418 020e 7D       		.byte	0x7d
 3419 020f 04       		.sleb128 4
 3420 0210 04000000 		.4byte	.LCFI28
 3421 0214 06000000 		.4byte	.LCFI29
 3422 0218 0200     		.2byte	0x2
 3423 021a 7D       		.byte	0x7d
 3424 021b 18       		.sleb128 24
 3425 021c 06000000 		.4byte	.LCFI29
 3426 0220 92000000 		.4byte	.LFE9
 3427 0224 0200     		.2byte	0x2
 3428 0226 77       		.byte	0x77
 3429 0227 18       		.sleb128 24
 3430 0228 00000000 		.4byte	0
 3431 022c 00000000 		.4byte	0
 3432              	.LLST10:
 3433 0230 00000000 		.4byte	.LFB10
 3434 0234 02000000 		.4byte	.LCFI30
 3435 0238 0200     		.2byte	0x2
 3436 023a 7D       		.byte	0x7d
 3437 023b 00       		.sleb128 0
 3438 023c 02000000 		.4byte	.LCFI30
 3439 0240 04000000 		.4byte	.LCFI31
 3440 0244 0200     		.2byte	0x2
 3441 0246 7D       		.byte	0x7d
 3442 0247 04       		.sleb128 4
 3443 0248 04000000 		.4byte	.LCFI31
ARM GAS  C:\Users\CHAIYA~1\AppData\Local\Temp\ccQBCuX6.s 			page 80


 3444 024c 06000000 		.4byte	.LCFI32
 3445 0250 0200     		.2byte	0x2
 3446 0252 7D       		.byte	0x7d
 3447 0253 18       		.sleb128 24
 3448 0254 06000000 		.4byte	.LCFI32
 3449 0258 92000000 		.4byte	.LFE10
 3450 025c 0200     		.2byte	0x2
 3451 025e 77       		.byte	0x77
 3452 025f 18       		.sleb128 24
 3453 0260 00000000 		.4byte	0
 3454 0264 00000000 		.4byte	0
 3455              	.LLST11:
 3456 0268 00000000 		.4byte	.LFB11
 3457 026c 02000000 		.4byte	.LCFI33
 3458 0270 0200     		.2byte	0x2
 3459 0272 7D       		.byte	0x7d
 3460 0273 00       		.sleb128 0
 3461 0274 02000000 		.4byte	.LCFI33
 3462 0278 04000000 		.4byte	.LCFI34
 3463 027c 0200     		.2byte	0x2
 3464 027e 7D       		.byte	0x7d
 3465 027f 04       		.sleb128 4
 3466 0280 04000000 		.4byte	.LCFI34
 3467 0284 06000000 		.4byte	.LCFI35
 3468 0288 0200     		.2byte	0x2
 3469 028a 7D       		.byte	0x7d
 3470 028b 18       		.sleb128 24
 3471 028c 06000000 		.4byte	.LCFI35
 3472 0290 92000000 		.4byte	.LFE11
 3473 0294 0200     		.2byte	0x2
 3474 0296 77       		.byte	0x77
 3475 0297 18       		.sleb128 24
 3476 0298 00000000 		.4byte	0
 3477 029c 00000000 		.4byte	0
 3478              	.LLST12:
 3479 02a0 00000000 		.4byte	.LFB12
 3480 02a4 02000000 		.4byte	.LCFI36
 3481 02a8 0200     		.2byte	0x2
 3482 02aa 7D       		.byte	0x7d
 3483 02ab 00       		.sleb128 0
 3484 02ac 02000000 		.4byte	.LCFI36
 3485 02b0 04000000 		.4byte	.LCFI37
 3486 02b4 0200     		.2byte	0x2
 3487 02b6 7D       		.byte	0x7d
 3488 02b7 04       		.sleb128 4
 3489 02b8 04000000 		.4byte	.LCFI37
 3490 02bc 06000000 		.4byte	.LCFI38
 3491 02c0 0200     		.2byte	0x2
 3492 02c2 7D       		.byte	0x7d
 3493 02c3 18       		.sleb128 24
 3494 02c4 06000000 		.4byte	.LCFI38
 3495 02c8 C6000000 		.4byte	.LFE12
 3496 02cc 0200     		.2byte	0x2
 3497 02ce 77       		.byte	0x77
 3498 02cf 18       		.sleb128 24
 3499 02d0 00000000 		.4byte	0
 3500 02d4 00000000 		.4byte	0
ARM GAS  C:\Users\CHAIYA~1\AppData\Local\Temp\ccQBCuX6.s 			page 81


 3501              	.LLST13:
 3502 02d8 00000000 		.4byte	.LFB13
 3503 02dc 02000000 		.4byte	.LCFI39
 3504 02e0 0200     		.2byte	0x2
 3505 02e2 7D       		.byte	0x7d
 3506 02e3 00       		.sleb128 0
 3507 02e4 02000000 		.4byte	.LCFI39
 3508 02e8 04000000 		.4byte	.LCFI40
 3509 02ec 0200     		.2byte	0x2
 3510 02ee 7D       		.byte	0x7d
 3511 02ef 04       		.sleb128 4
 3512 02f0 04000000 		.4byte	.LCFI40
 3513 02f4 06000000 		.4byte	.LCFI41
 3514 02f8 0200     		.2byte	0x2
 3515 02fa 7D       		.byte	0x7d
 3516 02fb 18       		.sleb128 24
 3517 02fc 06000000 		.4byte	.LCFI41
 3518 0300 42000000 		.4byte	.LFE13
 3519 0304 0200     		.2byte	0x2
 3520 0306 77       		.byte	0x77
 3521 0307 18       		.sleb128 24
 3522 0308 00000000 		.4byte	0
 3523 030c 00000000 		.4byte	0
 3524              	.LLST14:
 3525 0310 00000000 		.4byte	.LFB14
 3526 0314 02000000 		.4byte	.LCFI42
 3527 0318 0200     		.2byte	0x2
 3528 031a 7D       		.byte	0x7d
 3529 031b 00       		.sleb128 0
 3530 031c 02000000 		.4byte	.LCFI42
 3531 0320 04000000 		.4byte	.LCFI43
 3532 0324 0200     		.2byte	0x2
 3533 0326 7D       		.byte	0x7d
 3534 0327 04       		.sleb128 4
 3535 0328 04000000 		.4byte	.LCFI43
 3536 032c 2A000000 		.4byte	.LFE14
 3537 0330 0200     		.2byte	0x2
 3538 0332 77       		.byte	0x77
 3539 0333 04       		.sleb128 4
 3540 0334 00000000 		.4byte	0
 3541 0338 00000000 		.4byte	0
 3542              	.LLST15:
 3543 033c 00000000 		.4byte	.LFB15
 3544 0340 02000000 		.4byte	.LCFI44
 3545 0344 0200     		.2byte	0x2
 3546 0346 7D       		.byte	0x7d
 3547 0347 00       		.sleb128 0
 3548 0348 02000000 		.4byte	.LCFI44
 3549 034c 04000000 		.4byte	.LCFI45
 3550 0350 0200     		.2byte	0x2
 3551 0352 7D       		.byte	0x7d
 3552 0353 04       		.sleb128 4
 3553 0354 04000000 		.4byte	.LCFI45
 3554 0358 2A000000 		.4byte	.LFE15
 3555 035c 0200     		.2byte	0x2
 3556 035e 77       		.byte	0x77
 3557 035f 04       		.sleb128 4
ARM GAS  C:\Users\CHAIYA~1\AppData\Local\Temp\ccQBCuX6.s 			page 82


 3558 0360 00000000 		.4byte	0
 3559 0364 00000000 		.4byte	0
 3560              	.LLST16:
 3561 0368 00000000 		.4byte	.LFB16
 3562 036c 02000000 		.4byte	.LCFI46
 3563 0370 0200     		.2byte	0x2
 3564 0372 7D       		.byte	0x7d
 3565 0373 00       		.sleb128 0
 3566 0374 02000000 		.4byte	.LCFI46
 3567 0378 04000000 		.4byte	.LCFI47
 3568 037c 0200     		.2byte	0x2
 3569 037e 7D       		.byte	0x7d
 3570 037f 04       		.sleb128 4
 3571 0380 04000000 		.4byte	.LCFI47
 3572 0384 18000000 		.4byte	.LFE16
 3573 0388 0200     		.2byte	0x2
 3574 038a 77       		.byte	0x77
 3575 038b 04       		.sleb128 4
 3576 038c 00000000 		.4byte	0
 3577 0390 00000000 		.4byte	0
 3578              	.LLST17:
 3579 0394 00000000 		.4byte	.LFB17
 3580 0398 02000000 		.4byte	.LCFI48
 3581 039c 0200     		.2byte	0x2
 3582 039e 7D       		.byte	0x7d
 3583 039f 00       		.sleb128 0
 3584 03a0 02000000 		.4byte	.LCFI48
 3585 03a4 04000000 		.4byte	.LCFI49
 3586 03a8 0200     		.2byte	0x2
 3587 03aa 7D       		.byte	0x7d
 3588 03ab 04       		.sleb128 4
 3589 03ac 04000000 		.4byte	.LCFI49
 3590 03b0 18000000 		.4byte	.LFE17
 3591 03b4 0200     		.2byte	0x2
 3592 03b6 77       		.byte	0x77
 3593 03b7 04       		.sleb128 4
 3594 03b8 00000000 		.4byte	0
 3595 03bc 00000000 		.4byte	0
 3596              	.LLST18:
 3597 03c0 00000000 		.4byte	.LFB18
 3598 03c4 02000000 		.4byte	.LCFI50
 3599 03c8 0200     		.2byte	0x2
 3600 03ca 7D       		.byte	0x7d
 3601 03cb 00       		.sleb128 0
 3602 03cc 02000000 		.4byte	.LCFI50
 3603 03d0 04000000 		.4byte	.LCFI51
 3604 03d4 0200     		.2byte	0x2
 3605 03d6 7D       		.byte	0x7d
 3606 03d7 04       		.sleb128 4
 3607 03d8 04000000 		.4byte	.LCFI51
 3608 03dc 1E000000 		.4byte	.LFE18
 3609 03e0 0200     		.2byte	0x2
 3610 03e2 77       		.byte	0x77
 3611 03e3 04       		.sleb128 4
 3612 03e4 00000000 		.4byte	0
 3613 03e8 00000000 		.4byte	0
 3614              	.LLST19:
ARM GAS  C:\Users\CHAIYA~1\AppData\Local\Temp\ccQBCuX6.s 			page 83


 3615 03ec 00000000 		.4byte	.LFB19
 3616 03f0 02000000 		.4byte	.LCFI52
 3617 03f4 0200     		.2byte	0x2
 3618 03f6 7D       		.byte	0x7d
 3619 03f7 00       		.sleb128 0
 3620 03f8 02000000 		.4byte	.LCFI52
 3621 03fc 04000000 		.4byte	.LCFI53
 3622 0400 0200     		.2byte	0x2
 3623 0402 7D       		.byte	0x7d
 3624 0403 04       		.sleb128 4
 3625 0404 04000000 		.4byte	.LCFI53
 3626 0408 06000000 		.4byte	.LCFI54
 3627 040c 0200     		.2byte	0x2
 3628 040e 7D       		.byte	0x7d
 3629 040f 18       		.sleb128 24
 3630 0410 06000000 		.4byte	.LCFI54
 3631 0414 4C010000 		.4byte	.LFE19
 3632 0418 0200     		.2byte	0x2
 3633 041a 77       		.byte	0x77
 3634 041b 18       		.sleb128 24
 3635 041c 00000000 		.4byte	0
 3636 0420 00000000 		.4byte	0
 3637              	.LLST20:
 3638 0424 00000000 		.4byte	.LFB20
 3639 0428 02000000 		.4byte	.LCFI55
 3640 042c 0200     		.2byte	0x2
 3641 042e 7D       		.byte	0x7d
 3642 042f 00       		.sleb128 0
 3643 0430 02000000 		.4byte	.LCFI55
 3644 0434 04000000 		.4byte	.LCFI56
 3645 0438 0200     		.2byte	0x2
 3646 043a 7D       		.byte	0x7d
 3647 043b 04       		.sleb128 4
 3648 043c 04000000 		.4byte	.LCFI56
 3649 0440 06000000 		.4byte	.LCFI57
 3650 0444 0200     		.2byte	0x2
 3651 0446 7D       		.byte	0x7d
 3652 0447 18       		.sleb128 24
 3653 0448 06000000 		.4byte	.LCFI57
 3654 044c AE000000 		.4byte	.LFE20
 3655 0450 0200     		.2byte	0x2
 3656 0452 77       		.byte	0x77
 3657 0453 18       		.sleb128 24
 3658 0454 00000000 		.4byte	0
 3659 0458 00000000 		.4byte	0
 3660              		.section	.debug_aranges,"",%progbits
 3661 0000 BC000000 		.4byte	0xbc
 3662 0004 0200     		.2byte	0x2
 3663 0006 00000000 		.4byte	.Ldebug_info0
 3664 000a 04       		.byte	0x4
 3665 000b 00       		.byte	0
 3666 000c 0000     		.2byte	0
 3667 000e 0000     		.2byte	0
 3668 0010 00000000 		.4byte	.LFB0
 3669 0014 CA010000 		.4byte	.LFE0-.LFB0
 3670 0018 00000000 		.4byte	.LFB1
 3671 001c 9E000000 		.4byte	.LFE1-.LFB1
ARM GAS  C:\Users\CHAIYA~1\AppData\Local\Temp\ccQBCuX6.s 			page 84


 3672 0020 00000000 		.4byte	.LFB2
 3673 0024 4A000000 		.4byte	.LFE2-.LFB2
 3674 0028 00000000 		.4byte	.LFB3
 3675 002c 9E000000 		.4byte	.LFE3-.LFB3
 3676 0030 00000000 		.4byte	.LFB4
 3677 0034 50000000 		.4byte	.LFE4-.LFB4
 3678 0038 00000000 		.4byte	.LFB5
 3679 003c 50000000 		.4byte	.LFE5-.LFB5
 3680 0040 00000000 		.4byte	.LFB6
 3681 0044 50000000 		.4byte	.LFE6-.LFB6
 3682 0048 00000000 		.4byte	.LFB7
 3683 004c 92000000 		.4byte	.LFE7-.LFB7
 3684 0050 00000000 		.4byte	.LFB8
 3685 0054 EC000000 		.4byte	.LFE8-.LFB8
 3686 0058 00000000 		.4byte	.LFB9
 3687 005c 92000000 		.4byte	.LFE9-.LFB9
 3688 0060 00000000 		.4byte	.LFB10
 3689 0064 92000000 		.4byte	.LFE10-.LFB10
 3690 0068 00000000 		.4byte	.LFB11
 3691 006c 92000000 		.4byte	.LFE11-.LFB11
 3692 0070 00000000 		.4byte	.LFB12
 3693 0074 C6000000 		.4byte	.LFE12-.LFB12
 3694 0078 00000000 		.4byte	.LFB13
 3695 007c 42000000 		.4byte	.LFE13-.LFB13
 3696 0080 00000000 		.4byte	.LFB14
 3697 0084 2A000000 		.4byte	.LFE14-.LFB14
 3698 0088 00000000 		.4byte	.LFB15
 3699 008c 2A000000 		.4byte	.LFE15-.LFB15
 3700 0090 00000000 		.4byte	.LFB16
 3701 0094 18000000 		.4byte	.LFE16-.LFB16
 3702 0098 00000000 		.4byte	.LFB17
 3703 009c 18000000 		.4byte	.LFE17-.LFB17
 3704 00a0 00000000 		.4byte	.LFB18
 3705 00a4 1E000000 		.4byte	.LFE18-.LFB18
 3706 00a8 00000000 		.4byte	.LFB19
 3707 00ac 4C010000 		.4byte	.LFE19-.LFB19
 3708 00b0 00000000 		.4byte	.LFB20
 3709 00b4 AE000000 		.4byte	.LFE20-.LFB20
 3710 00b8 00000000 		.4byte	0
 3711 00bc 00000000 		.4byte	0
 3712              		.section	.debug_ranges,"",%progbits
 3713              	.Ldebug_ranges0:
 3714 0000 00000000 		.4byte	.LFB0
 3715 0004 CA010000 		.4byte	.LFE0
 3716 0008 00000000 		.4byte	.LFB1
 3717 000c 9E000000 		.4byte	.LFE1
 3718 0010 00000000 		.4byte	.LFB2
 3719 0014 4A000000 		.4byte	.LFE2
 3720 0018 00000000 		.4byte	.LFB3
 3721 001c 9E000000 		.4byte	.LFE3
 3722 0020 00000000 		.4byte	.LFB4
 3723 0024 50000000 		.4byte	.LFE4
 3724 0028 00000000 		.4byte	.LFB5
 3725 002c 50000000 		.4byte	.LFE5
 3726 0030 00000000 		.4byte	.LFB6
 3727 0034 50000000 		.4byte	.LFE6
 3728 0038 00000000 		.4byte	.LFB7
ARM GAS  C:\Users\CHAIYA~1\AppData\Local\Temp\ccQBCuX6.s 			page 85


 3729 003c 92000000 		.4byte	.LFE7
 3730 0040 00000000 		.4byte	.LFB8
 3731 0044 EC000000 		.4byte	.LFE8
 3732 0048 00000000 		.4byte	.LFB9
 3733 004c 92000000 		.4byte	.LFE9
 3734 0050 00000000 		.4byte	.LFB10
 3735 0054 92000000 		.4byte	.LFE10
 3736 0058 00000000 		.4byte	.LFB11
 3737 005c 92000000 		.4byte	.LFE11
 3738 0060 00000000 		.4byte	.LFB12
 3739 0064 C6000000 		.4byte	.LFE12
 3740 0068 00000000 		.4byte	.LFB13
 3741 006c 42000000 		.4byte	.LFE13
 3742 0070 00000000 		.4byte	.LFB14
 3743 0074 2A000000 		.4byte	.LFE14
 3744 0078 00000000 		.4byte	.LFB15
 3745 007c 2A000000 		.4byte	.LFE15
 3746 0080 00000000 		.4byte	.LFB16
 3747 0084 18000000 		.4byte	.LFE16
 3748 0088 00000000 		.4byte	.LFB17
 3749 008c 18000000 		.4byte	.LFE17
 3750 0090 00000000 		.4byte	.LFB18
 3751 0094 1E000000 		.4byte	.LFE18
 3752 0098 00000000 		.4byte	.LFB19
 3753 009c 4C010000 		.4byte	.LFE19
 3754 00a0 00000000 		.4byte	.LFB20
 3755 00a4 AE000000 		.4byte	.LFE20
 3756 00a8 00000000 		.4byte	0
 3757 00ac 00000000 		.4byte	0
 3758              		.section	.debug_line,"",%progbits
 3759              	.Ldebug_line0:
 3760 0000 D2020000 		.section	.debug_str,"MS",%progbits,1
 3760      02004B00 
 3760      00000201 
 3760      FB0E0D00 
 3760      01010101 
 3761              	.LASF71:
 3762 0000 43414E5F 		.ascii	"CAN_GetRXErrorCount\000"
 3762      47657452 
 3762      58457272 
 3762      6F72436F 
 3762      756E7400 
 3763              	.LASF10:
 3764 0014 75696E74 		.ascii	"uint16\000"
 3764      313600
 3765              	.LASF58:
 3766 001b 72657365 		.ascii	"reset\000"
 3766      7400
 3767              	.LASF60:
 3768 0021 65646765 		.ascii	"edge\000"
 3768      00
 3769              	.LASF45:
 3770 0026 43414E5F 		.ascii	"CAN_Start\000"
 3770      53746172 
 3770      7400
 3771              	.LASF46:
 3772 0030 43414E5F 		.ascii	"CAN_Stop\000"
ARM GAS  C:\Users\CHAIYA~1\AppData\Local\Temp\ccQBCuX6.s 			page 86


 3772      53746F70 
 3772      00
 3773              	.LASF7:
 3774 0039 6C6F6E67 		.ascii	"long long unsigned int\000"
 3774      206C6F6E 
 3774      6720756E 
 3774      7369676E 
 3774      65642069 
 3775              	.LASF28:
 3776 0050 7478636D 		.ascii	"txcmd\000"
 3776      6400
 3777              	.LASF33:
 3778 0056 7278616D 		.ascii	"rxamrd\000"
 3778      726400
 3779              	.LASF80:
 3780 005d 43414E5F 		.ascii	"CAN_initVar\000"
 3780      696E6974 
 3780      56617200 
 3781              	.LASF51:
 3782 0069 62697472 		.ascii	"bitrate\000"
 3782      61746500 
 3783              	.LASF6:
 3784 0071 6C6F6E67 		.ascii	"long long int\000"
 3784      206C6F6E 
 3784      6720696E 
 3784      7400
 3785              	.LASF0:
 3786 007f 7369676E 		.ascii	"signed char\000"
 3786      65642063 
 3786      68617200 
 3787              	.LASF48:
 3788 008b 43414E5F 		.ascii	"CAN_GlobalIntDisable\000"
 3788      476C6F62 
 3788      616C496E 
 3788      74446973 
 3788      61626C65 
 3789              	.LASF4:
 3790 00a0 6C6F6E67 		.ascii	"long int\000"
 3790      20696E74 
 3790      00
 3791              	.LASF32:
 3792 00a9 72786461 		.ascii	"rxdata\000"
 3792      746100
 3793              	.LASF16:
 3794 00b0 72656731 		.ascii	"reg16\000"
 3794      3600
 3795              	.LASF9:
 3796 00b6 75696E74 		.ascii	"uint8\000"
 3796      3800
 3797              	.LASF24:
 3798 00bc 7278616D 		.ascii	"rxamr\000"
 3798      7200
 3799              	.LASF13:
 3800 00c2 646F7562 		.ascii	"double\000"
 3800      6C6500
 3801              	.LASF11:
 3802 00c9 75696E74 		.ascii	"uint32\000"
ARM GAS  C:\Users\CHAIYA~1\AppData\Local\Temp\ccQBCuX6.s 			page 87


 3802      333200
 3803              	.LASF20:
 3804 00d0 62797465 		.ascii	"byte\000"
 3804      00
 3805              	.LASF67:
 3806 00d5 6D61736B 		.ascii	"mask\000"
 3806      00
 3807              	.LASF69:
 3808 00da 43414E5F 		.ascii	"CAN_GetRXErrorFlag\000"
 3808      47657452 
 3808      58457272 
 3808      6F72466C 
 3808      616700
 3809              	.LASF66:
 3810 00ed 43414E5F 		.ascii	"CAN_SetIrqMask\000"
 3810      53657449 
 3810      72714D61 
 3810      736B00
 3811              	.LASF8:
 3812 00fc 756E7369 		.ascii	"unsigned int\000"
 3812      676E6564 
 3812      20696E74 
 3812      00
 3813              	.LASF5:
 3814 0109 6C6F6E67 		.ascii	"long unsigned int\000"
 3814      20756E73 
 3814      69676E65 
 3814      6420696E 
 3814      7400
 3815              	.LASF61:
 3816 011b 43414E5F 		.ascii	"CAN_SetOpMode\000"
 3816      5365744F 
 3816      704D6F64 
 3816      6500
 3817              	.LASF3:
 3818 0129 73686F72 		.ascii	"short unsigned int\000"
 3818      7420756E 
 3818      7369676E 
 3818      65642069 
 3818      6E7400
 3819              	.LASF35:
 3820 013c 43414E5F 		.ascii	"CAN_RX_STRUCT\000"
 3820      52585F53 
 3820      54525543 
 3820      5400
 3821              	.LASF79:
 3822 014a 433A5C55 		.ascii	"C:\\Users\\Chai Yang\\Documents\\GitHub\\Node-Eleph"
 3822      73657273 
 3822      5C436861 
 3822      69205961 
 3822      6E675C44 
 3823 0178 616E745C 		.ascii	"ant\\Node-Elephant\\Node-Elephant.cydsn\000"
 3823      4E6F6465 
 3823      2D456C65 
 3823      7068616E 
 3823      745C4E6F 
 3824              	.LASF38:
ARM GAS  C:\Users\CHAIYA~1\AppData\Local\Temp\ccQBCuX6.s 			page 88


 3825 019e 43414E5F 		.ascii	"CAN_RXConfigStruct\000"
 3825      5258436F 
 3825      6E666967 
 3825      53747275 
 3825      637400
 3826              	.LASF47:
 3827 01b1 43414E5F 		.ascii	"CAN_GlobalIntEnable\000"
 3827      476C6F62 
 3827      616C496E 
 3827      74456E61 
 3827      626C6500 
 3828              	.LASF26:
 3829 01c5 43414E5F 		.ascii	"CAN_RX_CFG\000"
 3829      52585F43 
 3829      464700
 3830              	.LASF62:
 3831 01d0 6F704D6F 		.ascii	"opMode\000"
 3831      646500
 3832              	.LASF50:
 3833 01d7 43414E5F 		.ascii	"CAN_SetArbiter\000"
 3833      53657441 
 3833      72626974 
 3833      657200
 3834              	.LASF70:
 3835 01e6 43414E5F 		.ascii	"CAN_GetTXErrorCount\000"
 3835      47657454 
 3835      58457272 
 3835      6F72436F 
 3835      756E7400 
 3836              	.LASF74:
 3837 01fa 7278436F 		.ascii	"rxConfig\000"
 3837      6E666967 
 3837      00
 3838              	.LASF36:
 3839 0203 74786461 		.ascii	"txdata\000"
 3839      746100
 3840              	.LASF17:
 3841 020a 72656733 		.ascii	"reg32\000"
 3841      3200
 3842              	.LASF43:
 3843 0210 43414E5F 		.ascii	"CAN_Init\000"
 3843      496E6974 
 3843      00
 3844              	.LASF64:
 3845 0219 72656741 		.ascii	"regAddr\000"
 3845      64647200 
 3846              	.LASF56:
 3847 0221 63666754 		.ascii	"cfgTemp\000"
 3847      656D7000 
 3848              	.LASF22:
 3849 0229 72786D61 		.ascii	"rxmailbox\000"
 3849      696C626F 
 3849      7800
 3850              	.LASF21:
 3851 0233 43414E5F 		.ascii	"CAN_REG_32\000"
 3851      5245475F 
 3851      333200
ARM GAS  C:\Users\CHAIYA~1\AppData\Local\Temp\ccQBCuX6.s 			page 89


 3852              	.LASF18:
 3853 023e 73697A65 		.ascii	"sizetype\000"
 3853      74797065 
 3853      00
 3854              	.LASF72:
 3855 0247 43414E5F 		.ascii	"CAN_GetErrorState\000"
 3855      47657445 
 3855      72726F72 
 3855      53746174 
 3855      6500
 3856              	.LASF31:
 3857 0259 72786964 		.ascii	"rxid\000"
 3857      00
 3858              	.LASF63:
 3859 025e 43414E5F 		.ascii	"CAN_RXRegisterInit\000"
 3859      52585265 
 3859      67697374 
 3859      6572496E 
 3859      697400
 3860              	.LASF12:
 3861 0271 666C6F61 		.ascii	"float\000"
 3861      7400
 3862              	.LASF77:
 3863 0277 474E5520 		.ascii	"GNU C 4.7.3 20130312 (release) [ARM/embedded-4_7-br"
 3863      4320342E 
 3863      372E3320 
 3863      32303133 
 3863      30333132 
 3864 02aa 616E6368 		.ascii	"anch revision 196615]\000"
 3864      20726576 
 3864      6973696F 
 3864      6E203139 
 3864      36363135 
 3865              	.LASF15:
 3866 02c0 72656738 		.ascii	"reg8\000"
 3866      00
 3867              	.LASF1:
 3868 02c5 756E7369 		.ascii	"unsigned char\000"
 3868      676E6564 
 3868      20636861 
 3868      7200
 3869              	.LASF2:
 3870 02d3 73686F72 		.ascii	"short int\000"
 3870      7420696E 
 3870      7400
 3871              	.LASF68:
 3872 02dd 43414E5F 		.ascii	"CAN_GetTXErrorFlag\000"
 3872      47657454 
 3872      58457272 
 3872      6F72466C 
 3872      616700
 3873              	.LASF44:
 3874 02f0 43414E5F 		.ascii	"CAN_Enable\000"
 3874      456E6162 
 3874      6C6500
 3875              	.LASF37:
 3876 02fb 43414E5F 		.ascii	"CAN_TX_STRUCT\000"
ARM GAS  C:\Users\CHAIYA~1\AppData\Local\Temp\ccQBCuX6.s 			page 90


 3876      54585F53 
 3876      54525543 
 3876      5400
 3877              	.LASF49:
 3878 0309 43414E5F 		.ascii	"CAN_SetPreScaler\000"
 3878      53657450 
 3878      72655363 
 3878      616C6572 
 3878      00
 3879              	.LASF78:
 3880 031a 2E5C4765 		.ascii	".\\Generated_Source\\PSoC5\\CAN.c\000"
 3880      6E657261 
 3880      7465645F 
 3880      536F7572 
 3880      63655C50 
 3881              	.LASF14:
 3882 0339 63686172 		.ascii	"char\000"
 3882      00
 3883              	.LASF59:
 3884 033e 43414E5F 		.ascii	"CAN_SetEdgeMode\000"
 3884      53657445 
 3884      6467654D 
 3884      6F646500 
 3885              	.LASF65:
 3886 034e 636F6E66 		.ascii	"config\000"
 3886      696700
 3887              	.LASF75:
 3888 0355 43414E5F 		.ascii	"CAN_TxBufConfig\000"
 3888      54784275 
 3888      66436F6E 
 3888      66696700 
 3889              	.LASF41:
 3890 0365 6C6F6361 		.ascii	"localResult\000"
 3890      6C526573 
 3890      756C7400 
 3891              	.LASF39:
 3892 0371 43414E5F 		.ascii	"CAN_TXConfigStruct\000"
 3892      5458436F 
 3892      6E666967 
 3892      53747275 
 3892      637400
 3893              	.LASF19:
 3894 0384 43414E5F 		.ascii	"CAN_DATA_BYTES\000"
 3894      44415441 
 3894      5F425954 
 3894      455300
 3895              	.LASF27:
 3896 0393 74786D61 		.ascii	"txmailbox\000"
 3896      696C626F 
 3896      7800
 3897              	.LASF54:
 3898 039d 63666754 		.ascii	"cfgTseg1\000"
 3898      73656731 
 3898      00
 3899              	.LASF55:
 3900 03a6 63666754 		.ascii	"cfgTseg2\000"
 3900      73656732 
ARM GAS  C:\Users\CHAIYA~1\AppData\Local\Temp\ccQBCuX6.s 			page 91


 3900      00
 3901              	.LASF53:
 3902 03af 43414E5F 		.ascii	"CAN_SetTsegSample\000"
 3902      53657454 
 3902      73656753 
 3902      616D706C 
 3902      6500
 3903              	.LASF23:
 3904 03c1 7278636D 		.ascii	"rxcmd\000"
 3904      6400
 3905              	.LASF76:
 3906 03c7 7478436F 		.ascii	"txConfig\000"
 3906      6E666967 
 3906      00
 3907              	.LASF42:
 3908 03d0 656E6162 		.ascii	"enableInterrupts\000"
 3908      6C65496E 
 3908      74657272 
 3908      75707473 
 3908      00
 3909              	.LASF73:
 3910 03e1 43414E5F 		.ascii	"CAN_RxBufConfig\000"
 3910      52784275 
 3910      66436F6E 
 3910      66696700 
 3911              	.LASF29:
 3912 03f1 74786964 		.ascii	"txid\000"
 3912      00
 3913              	.LASF25:
 3914 03f6 72786163 		.ascii	"rxacr\000"
 3914      7200
 3915              	.LASF52:
 3916 03fc 61726269 		.ascii	"arbiter\000"
 3916      74657200 
 3917              	.LASF34:
 3918 0404 72786163 		.ascii	"rxacrd\000"
 3918      726400
 3919              	.LASF30:
 3920 040b 43414E5F 		.ascii	"CAN_TX_CFG\000"
 3920      54585F43 
 3920      464700
 3921              	.LASF40:
 3922 0416 72657375 		.ascii	"result\000"
 3922      6C7400
 3923              	.LASF57:
 3924 041d 43414E5F 		.ascii	"CAN_SetRestartType\000"
 3924      53657452 
 3924      65737461 
 3924      72745479 
 3924      706500
 3925              		.ident	"GCC: (GNU Tools for ARM Embedded Processors) 4.7.3 20130312 (release) [ARM/embedded-4_7-br
