ARM GAS  C:\Users\CHAIYA~1\AppData\Local\Temp\ccQBCuX6.s 			page 1


   1              		.syntax unified
   2              		.cpu cortex-m3
   3              		.fpu softvfp
   4              		.eabi_attribute 20, 1
   5              		.eabi_attribute 21, 1
   6              		.eabi_attribute 23, 3
   7              		.eabi_attribute 24, 1
   8              		.eabi_attribute 25, 1
   9              		.eabi_attribute 26, 1
  10              		.eabi_attribute 30, 6
  11              		.eabi_attribute 34, 1
  12              		.eabi_attribute 18, 4
  13              		.thumb
  14              		.file	"CAN.c"
  15              		.text
  16              	.Ltext0:
  17              		.cfi_sections	.debug_frame
  18              		.global	CAN_initVar
  19              		.bss
  20              		.type	CAN_initVar, %object
  21              		.size	CAN_initVar, 1
  22              	CAN_initVar:
  23 0000 00       		.space	1
  24              		.section	.text.CAN_Init,"ax",%progbits
  25              		.align	2
  26              		.global	CAN_Init
  27              		.thumb
  28              		.thumb_func
  29              		.type	CAN_Init, %function
  30              	CAN_Init:
  31              	.LFB0:
  32              		.file 1 ".\\Generated_Source\\PSoC5\\CAN.c"
   1:.\Generated_Source\PSoC5/CAN.c **** /*******************************************************************************
   2:.\Generated_Source\PSoC5/CAN.c **** * File Name: CAN.c
   3:.\Generated_Source\PSoC5/CAN.c **** * Version 2.30
   4:.\Generated_Source\PSoC5/CAN.c **** *
   5:.\Generated_Source\PSoC5/CAN.c **** * Description:
   6:.\Generated_Source\PSoC5/CAN.c **** *  The CAN Component provide functionality of Control Area Network.
   7:.\Generated_Source\PSoC5/CAN.c **** *  Two types of mailbox configurations available "Full" and "Basic".
   8:.\Generated_Source\PSoC5/CAN.c **** *
   9:.\Generated_Source\PSoC5/CAN.c **** * Note:
  10:.\Generated_Source\PSoC5/CAN.c **** *  CAN configuration puts as constant to ROM and could change only directly
  11:.\Generated_Source\PSoC5/CAN.c **** *  registers write by user.
  12:.\Generated_Source\PSoC5/CAN.c **** *
  13:.\Generated_Source\PSoC5/CAN.c **** ********************************************************************************
  14:.\Generated_Source\PSoC5/CAN.c **** * Copyright 2008-2012, Cypress Semiconductor Corporation.  All rights reserved.
  15:.\Generated_Source\PSoC5/CAN.c **** * You may use this file only in accordance with the license, terms, conditions,
  16:.\Generated_Source\PSoC5/CAN.c **** * disclaimers, and limitations in the end user license agreement accompanying
  17:.\Generated_Source\PSoC5/CAN.c **** * the software package with which this file was provided.
  18:.\Generated_Source\PSoC5/CAN.c **** *******************************************************************************/
  19:.\Generated_Source\PSoC5/CAN.c **** 
  20:.\Generated_Source\PSoC5/CAN.c **** #include "CAN.h"
  21:.\Generated_Source\PSoC5/CAN.c **** 
  22:.\Generated_Source\PSoC5/CAN.c **** uint8 CAN_initVar = 0u;
  23:.\Generated_Source\PSoC5/CAN.c **** 
  24:.\Generated_Source\PSoC5/CAN.c **** 
  25:.\Generated_Source\PSoC5/CAN.c **** /*******************************************************************************
ARM GAS  C:\Users\CHAIYA~1\AppData\Local\Temp\ccQBCuX6.s 			page 2


  26:.\Generated_Source\PSoC5/CAN.c **** * FUNCTION NAME:   CAN_Init
  27:.\Generated_Source\PSoC5/CAN.c **** ********************************************************************************
  28:.\Generated_Source\PSoC5/CAN.c **** *
  29:.\Generated_Source\PSoC5/CAN.c **** * Summary:
  30:.\Generated_Source\PSoC5/CAN.c **** *  Inits/Restores default CAN configuration provided with customizer.
  31:.\Generated_Source\PSoC5/CAN.c **** *
  32:.\Generated_Source\PSoC5/CAN.c **** * Parameters:
  33:.\Generated_Source\PSoC5/CAN.c **** *  None.
  34:.\Generated_Source\PSoC5/CAN.c **** *
  35:.\Generated_Source\PSoC5/CAN.c **** * Return:
  36:.\Generated_Source\PSoC5/CAN.c **** *  Indication whether the configuration has been accepted or rejected.
  37:.\Generated_Source\PSoC5/CAN.c **** *   Define                             Description
  38:.\Generated_Source\PSoC5/CAN.c **** *    CYRET_SUCCESS                      Function passed successfully
  39:.\Generated_Source\PSoC5/CAN.c **** *    CAN_FAIL              Function failed
  40:.\Generated_Source\PSoC5/CAN.c **** *
  41:.\Generated_Source\PSoC5/CAN.c **** * Side Effects:
  42:.\Generated_Source\PSoC5/CAN.c **** *  All registers will be reset to their initial values. This will re-initialize 
  43:.\Generated_Source\PSoC5/CAN.c **** *  the component with the following exceptions - it will not clear data from 
  44:.\Generated_Source\PSoC5/CAN.c **** *  the mailboxes.
  45:.\Generated_Source\PSoC5/CAN.c **** *  Enable power to the CAN Core.
  46:.\Generated_Source\PSoC5/CAN.c **** *
  47:.\Generated_Source\PSoC5/CAN.c **** *******************************************************************************/
  48:.\Generated_Source\PSoC5/CAN.c **** uint8 CAN_Init(void) 
  49:.\Generated_Source\PSoC5/CAN.c **** {
  33              		.loc 1 49 0
  34              		.cfi_startproc
  35              		@ args = 0, pretend = 0, frame = 8
  36              		@ frame_needed = 1, uses_anonymous_args = 0
  37 0000 80B5     		push	{r7, lr}
  38              	.LCFI0:
  39              		.cfi_def_cfa_offset 8
  40              		.cfi_offset 7, -8
  41              		.cfi_offset 14, -4
  42 0002 82B0     		sub	sp, sp, #8
  43              	.LCFI1:
  44              		.cfi_def_cfa_offset 16
  45 0004 00AF     		add	r7, sp, #0
  46              	.LCFI2:
  47              		.cfi_def_cfa_register 7
  50:.\Generated_Source\PSoC5/CAN.c ****     /* Iniital values of CAN RX and TX registers */
  51:.\Generated_Source\PSoC5/CAN.c ****     static const CAN_RX_CFG CYCODE CAN_RXConfigStruct[] =
  52:.\Generated_Source\PSoC5/CAN.c ****     {
  53:.\Generated_Source\PSoC5/CAN.c ****         { 0u, 0x28u, 0x1FFFF9u, 0x200000u },
  54:.\Generated_Source\PSoC5/CAN.c ****         { 1u, 0x0u, 0x0u, 0x0u },
  55:.\Generated_Source\PSoC5/CAN.c ****         { 2u, 0x0u, 0x0u, 0x0u },
  56:.\Generated_Source\PSoC5/CAN.c ****         { 3u, 0x0u, 0x0u, 0x0u },
  57:.\Generated_Source\PSoC5/CAN.c ****         { 4u, 0x0u, 0x0u, 0x0u },
  58:.\Generated_Source\PSoC5/CAN.c ****         { 5u, 0x0u, 0x0u, 0x0u },
  59:.\Generated_Source\PSoC5/CAN.c ****         { 6u, 0x0u, 0x0u, 0x0u },
  60:.\Generated_Source\PSoC5/CAN.c ****         { 7u, 0x0u, 0x0u, 0x0u },
  61:.\Generated_Source\PSoC5/CAN.c ****         { 8u, 0x0u, 0x0u, 0x0u },
  62:.\Generated_Source\PSoC5/CAN.c ****         { 9u, 0x0u, 0x0u, 0x0u },
  63:.\Generated_Source\PSoC5/CAN.c ****         { 10u, 0x0u, 0x0u, 0x0u },
  64:.\Generated_Source\PSoC5/CAN.c ****         { 11u, 0x0u, 0x0u, 0x0u },
  65:.\Generated_Source\PSoC5/CAN.c ****         { 12u, 0x0u, 0x0u, 0x0u },
  66:.\Generated_Source\PSoC5/CAN.c ****         { 13u, 0x0u, 0x0u, 0x0u },
  67:.\Generated_Source\PSoC5/CAN.c ****         { 14u, 0x0u, 0x0u, 0x0u },
ARM GAS  C:\Users\CHAIYA~1\AppData\Local\Temp\ccQBCuX6.s 			page 3


  68:.\Generated_Source\PSoC5/CAN.c ****         { 15u, 0x0u, 0x0u, 0x0u }
  69:.\Generated_Source\PSoC5/CAN.c ****     };
  70:.\Generated_Source\PSoC5/CAN.c **** 
  71:.\Generated_Source\PSoC5/CAN.c ****     static const CAN_TX_CFG CYCODE CAN_TXConfigStruct[] =
  72:.\Generated_Source\PSoC5/CAN.c ****     {
  73:.\Generated_Source\PSoC5/CAN.c ****         { 0u, 0x40004u, 0x200000u },
  74:.\Generated_Source\PSoC5/CAN.c ****         { 1u, 0x60004u, 0x200000u },
  75:.\Generated_Source\PSoC5/CAN.c ****         { 2u, 0x10004u, 0x200000u },
  76:.\Generated_Source\PSoC5/CAN.c ****         { 3u, 0x0u, 0x0u },
  77:.\Generated_Source\PSoC5/CAN.c ****         { 4u, 0x0u, 0x0u },
  78:.\Generated_Source\PSoC5/CAN.c ****         { 5u, 0x0u, 0x0u },
  79:.\Generated_Source\PSoC5/CAN.c ****         { 6u, 0x0u, 0x0u },
  80:.\Generated_Source\PSoC5/CAN.c ****         { 7u, 0x0u, 0x0u }
  81:.\Generated_Source\PSoC5/CAN.c ****     };
  82:.\Generated_Source\PSoC5/CAN.c ****     
  83:.\Generated_Source\PSoC5/CAN.c ****     uint8 i;
  84:.\Generated_Source\PSoC5/CAN.c ****     uint8 result = CAN_FAIL;
  48              		.loc 1 84 0
  49 0006 4FF00103 		mov	r3, #1
  50 000a BB71     		strb	r3, [r7, #6]
  85:.\Generated_Source\PSoC5/CAN.c ****     uint8 localResult = CAN_FAIL;
  51              		.loc 1 85 0
  52 000c 4FF00103 		mov	r3, #1
  53 0010 7B71     		strb	r3, [r7, #5]
  86:.\Generated_Source\PSoC5/CAN.c ****     uint8 enableInterrupts;
  87:.\Generated_Source\PSoC5/CAN.c ****     
  88:.\Generated_Source\PSoC5/CAN.c ****     enableInterrupts = CyEnterCriticalSection();
  54              		.loc 1 88 0
  55 0012 FFF7FEFF 		bl	CyEnterCriticalSection
  56 0016 0346     		mov	r3, r0
  57 0018 3B71     		strb	r3, [r7, #4]
  89:.\Generated_Source\PSoC5/CAN.c ****     
  90:.\Generated_Source\PSoC5/CAN.c ****     /* Enable CAN block in Active mode */
  91:.\Generated_Source\PSoC5/CAN.c ****     CAN_PM_ACT_CFG_REG |= CAN_ACT_PWR_EN;
  58              		.loc 1 91 0
  59 001a 44F2A633 		movw	r3, #17318
  60 001e C4F20003 		movt	r3, 16384
  61 0022 44F2A632 		movw	r2, #17318
  62 0026 C4F20002 		movt	r2, 16384
  63 002a 1278     		ldrb	r2, [r2, #0]
  64 002c D2B2     		uxtb	r2, r2
  65 002e 42F00102 		orr	r2, r2, #1
  66 0032 D2B2     		uxtb	r2, r2
  67 0034 1A70     		strb	r2, [r3, #0]
  92:.\Generated_Source\PSoC5/CAN.c ****         
  93:.\Generated_Source\PSoC5/CAN.c ****     /* Enable CAN block in Alternate Active (Standby) mode */
  94:.\Generated_Source\PSoC5/CAN.c ****     CAN_PM_STBY_CFG_REG |= CAN_STBY_PWR_EN; 
  68              		.loc 1 94 0
  69 0036 44F2B633 		movw	r3, #17334
  70 003a C4F20003 		movt	r3, 16384
  71 003e 44F2B632 		movw	r2, #17334
  72 0042 C4F20002 		movt	r2, 16384
  73 0046 1278     		ldrb	r2, [r2, #0]
  74 0048 D2B2     		uxtb	r2, r2
  75 004a 42F00102 		orr	r2, r2, #1
  76 004e D2B2     		uxtb	r2, r2
  77 0050 1A70     		strb	r2, [r3, #0]
ARM GAS  C:\Users\CHAIYA~1\AppData\Local\Temp\ccQBCuX6.s 			page 4


  95:.\Generated_Source\PSoC5/CAN.c ****     
  96:.\Generated_Source\PSoC5/CAN.c ****     CyExitCriticalSection(enableInterrupts);
  78              		.loc 1 96 0
  79 0052 3B79     		ldrb	r3, [r7, #4]	@ zero_extendqisi2
  80 0054 1846     		mov	r0, r3
  81 0056 FFF7FEFF 		bl	CyExitCriticalSection
  97:.\Generated_Source\PSoC5/CAN.c ****     
  98:.\Generated_Source\PSoC5/CAN.c ****     /* Sets the CAN controller to stop mode */
  99:.\Generated_Source\PSoC5/CAN.c ****     CAN_CMD_REG.byte[0u] &= (uint8) (~CAN_MODE_MASK);
  82              		.loc 1 99 0
  83 005a 4AF21003 		movw	r3, #40976
  84 005e C4F20003 		movt	r3, 16384
  85 0062 4AF21002 		movw	r2, #40976
  86 0066 C4F20002 		movt	r2, 16384
  87 006a 1278     		ldrb	r2, [r2, #0]
  88 006c D2B2     		uxtb	r2, r2
  89 006e 22F00102 		bic	r2, r2, #1
  90 0072 D2B2     		uxtb	r2, r2
  91 0074 1A70     		strb	r2, [r3, #0]
 100:.\Generated_Source\PSoC5/CAN.c **** 
 101:.\Generated_Source\PSoC5/CAN.c ****     /* Verify that bit is cleared */
 102:.\Generated_Source\PSoC5/CAN.c ****     if ((CAN_CMD_REG.byte[0u] & CAN_MODE_MASK) == 0u)
  92              		.loc 1 102 0
  93 0076 4AF21003 		movw	r3, #40976
  94 007a C4F20003 		movt	r3, 16384
  95 007e 1B78     		ldrb	r3, [r3, #0]
  96 0080 DBB2     		uxtb	r3, r3
  97 0082 03F00103 		and	r3, r3, #1
  98 0086 002B     		cmp	r3, #0
  99 0088 40F09980 		bne	.L2
 103:.\Generated_Source\PSoC5/CAN.c ****     {                
 104:.\Generated_Source\PSoC5/CAN.c ****         /* Disable Interrupt. */
 105:.\Generated_Source\PSoC5/CAN.c ****         CyIntDisable(CAN_ISR_NUMBER);
 100              		.loc 1 105 0
 101 008c 4EF28013 		movw	r3, #57728
 102 0090 CEF20003 		movt	r3, 57344
 103 0094 4FF48032 		mov	r2, #65536
 104 0098 1A60     		str	r2, [r3, #0]
 106:.\Generated_Source\PSoC5/CAN.c ****         
 107:.\Generated_Source\PSoC5/CAN.c ****         /* Set the ISR to point to the CAN_ISR Interrupt. */
 108:.\Generated_Source\PSoC5/CAN.c ****         (void) CyIntSetVector(CAN_ISR_NUMBER, & CAN_ISR);
 105              		.loc 1 108 0
 106 009a 4FF01000 		mov	r0, #16
 107 009e 40F20001 		movw	r1, #:lower16:CAN_ISR
 108 00a2 C0F20001 		movt	r1, #:upper16:CAN_ISR
 109 00a6 FFF7FEFF 		bl	CyIntSetVector
 109:.\Generated_Source\PSoC5/CAN.c ****         
 110:.\Generated_Source\PSoC5/CAN.c ****         /* Set the priority. */
 111:.\Generated_Source\PSoC5/CAN.c ****         CyIntSetPriority(CAN_ISR_NUMBER, CAN_ISR_PRIORITY);
 110              		.loc 1 111 0
 111 00aa 4FF01000 		mov	r0, #16
 112 00ae 4FF00701 		mov	r1, #7
 113 00b2 FFF7FEFF 		bl	CyIntSetPriority
 112:.\Generated_Source\PSoC5/CAN.c **** 
 113:.\Generated_Source\PSoC5/CAN.c ****         if (CAN_SetPreScaler(CAN_BITRATE) == CYRET_SUCCESS)
 114              		.loc 1 113 0
 115 00b6 4FF00200 		mov	r0, #2
ARM GAS  C:\Users\CHAIYA~1\AppData\Local\Temp\ccQBCuX6.s 			page 5


 116 00ba FFF7FEFF 		bl	CAN_SetPreScaler
 117 00be 0346     		mov	r3, r0
 118 00c0 002B     		cmp	r3, #0
 119 00c2 24D1     		bne	.L3
 114:.\Generated_Source\PSoC5/CAN.c ****         {
 115:.\Generated_Source\PSoC5/CAN.c ****             if (CAN_SetArbiter(CAN_ARBITER) == CYRET_SUCCESS)
 120              		.loc 1 115 0
 121 00c4 4FF00100 		mov	r0, #1
 122 00c8 FFF7FEFF 		bl	CAN_SetArbiter
 123 00cc 0346     		mov	r3, r0
 124 00ce 002B     		cmp	r3, #0
 125 00d0 1DD1     		bne	.L3
 116:.\Generated_Source\PSoC5/CAN.c ****             {
 117:.\Generated_Source\PSoC5/CAN.c ****                 if (CAN_SetTsegSample(CAN_CFG_REG_TSEG1, CAN_CFG_REG_TSEG2,
 126              		.loc 1 117 0
 127 00d2 4FF00A00 		mov	r0, #10
 128 00d6 4FF00301 		mov	r1, #3
 129 00da 4FF00002 		mov	r2, #0
 130 00de 4FF00003 		mov	r3, #0
 131 00e2 FFF7FEFF 		bl	CAN_SetTsegSample
 132 00e6 0346     		mov	r3, r0
 133 00e8 002B     		cmp	r3, #0
 134 00ea 10D1     		bne	.L3
 118:.\Generated_Source\PSoC5/CAN.c ****                     CAN_CFG_REG_SJW, CAN_SAMPLING_MODE) == CYRET_SUCCESS)
 119:.\Generated_Source\PSoC5/CAN.c ****                 {
 120:.\Generated_Source\PSoC5/CAN.c ****                     if (CAN_SetRestartType(CAN_RESET_TYPE) == CYRET_SUCCESS)
 135              		.loc 1 120 0
 136 00ec 4FF00100 		mov	r0, #1
 137 00f0 FFF7FEFF 		bl	CAN_SetRestartType
 138 00f4 0346     		mov	r3, r0
 139 00f6 002B     		cmp	r3, #0
 140 00f8 09D1     		bne	.L3
 121:.\Generated_Source\PSoC5/CAN.c ****                     {
 122:.\Generated_Source\PSoC5/CAN.c ****                         if (CAN_SetEdgeMode(CAN_SYNC_EDGE) == CYRET_SUCCESS)
 141              		.loc 1 122 0
 142 00fa 4FF00000 		mov	r0, #0
 143 00fe FFF7FEFF 		bl	CAN_SetEdgeMode
 144 0102 0346     		mov	r3, r0
 145 0104 002B     		cmp	r3, #0
 146 0106 02D1     		bne	.L3
 123:.\Generated_Source\PSoC5/CAN.c ****                         {
 124:.\Generated_Source\PSoC5/CAN.c ****                             localResult = CYRET_SUCCESS;
 147              		.loc 1 124 0
 148 0108 4FF00003 		mov	r3, #0
 149 010c 7B71     		strb	r3, [r7, #5]
 150              	.L3:
 125:.\Generated_Source\PSoC5/CAN.c ****                         }
 126:.\Generated_Source\PSoC5/CAN.c ****                     }
 127:.\Generated_Source\PSoC5/CAN.c ****                 }
 128:.\Generated_Source\PSoC5/CAN.c ****             }
 129:.\Generated_Source\PSoC5/CAN.c ****         }
 130:.\Generated_Source\PSoC5/CAN.c ****         
 131:.\Generated_Source\PSoC5/CAN.c ****         if (localResult == CYRET_SUCCESS)
 151              		.loc 1 131 0
 152 010e 7B79     		ldrb	r3, [r7, #5]	@ zero_extendqisi2
 153 0110 002B     		cmp	r3, #0
 154 0112 54D1     		bne	.L2
ARM GAS  C:\Users\CHAIYA~1\AppData\Local\Temp\ccQBCuX6.s 			page 6


 132:.\Generated_Source\PSoC5/CAN.c ****         {
 133:.\Generated_Source\PSoC5/CAN.c ****             /* Initialize TX maiboxes */
 134:.\Generated_Source\PSoC5/CAN.c ****             for (i = 0u; i < CAN_NUMBER_OF_TX_MAILBOXES; i++)
 155              		.loc 1 134 0
 156 0114 4FF00003 		mov	r3, #0
 157 0118 FB71     		strb	r3, [r7, #7]
 158 011a 19E0     		b	.L4
 159              	.L7:
 135:.\Generated_Source\PSoC5/CAN.c ****             {
 136:.\Generated_Source\PSoC5/CAN.c ****                 if (CAN_TxBufConfig((const CAN_TX_CFG *)
 137:.\Generated_Source\PSoC5/CAN.c ****                     (&CAN_TXConfigStruct[i])) != CYRET_SUCCESS)
 160              		.loc 1 137 0
 161 011c FA79     		ldrb	r2, [r7, #7]	@ zero_extendqisi2
 136:.\Generated_Source\PSoC5/CAN.c ****                 if (CAN_TxBufConfig((const CAN_TX_CFG *)
 162              		.loc 1 136 0
 163 011e 1346     		mov	r3, r2
 164 0120 4FEA4303 		lsl	r3, r3, #1
 165 0124 9B18     		adds	r3, r3, r2
 166 0126 4FEA8303 		lsl	r3, r3, #2
 167 012a 40F20002 		movw	r2, #:lower16:CAN_TXConfigStruct.4856
 168 012e C0F20002 		movt	r2, #:upper16:CAN_TXConfigStruct.4856
 169 0132 9B18     		adds	r3, r3, r2
 170 0134 1846     		mov	r0, r3
 171 0136 FFF7FEFF 		bl	CAN_TxBufConfig
 172 013a 0346     		mov	r3, r0
 173 013c 002B     		cmp	r3, #0
 174 013e 03D0     		beq	.L5
 138:.\Generated_Source\PSoC5/CAN.c ****                 {
 139:.\Generated_Source\PSoC5/CAN.c ****                     localResult = CAN_FAIL;
 175              		.loc 1 139 0
 176 0140 4FF00103 		mov	r3, #1
 177 0144 7B71     		strb	r3, [r7, #5]
 140:.\Generated_Source\PSoC5/CAN.c ****                     break;
 178              		.loc 1 140 0
 179 0146 06E0     		b	.L6
 180              	.L5:
 134:.\Generated_Source\PSoC5/CAN.c ****             for (i = 0u; i < CAN_NUMBER_OF_TX_MAILBOXES; i++)
 181              		.loc 1 134 0
 182 0148 FB79     		ldrb	r3, [r7, #7]
 183 014a 03F10103 		add	r3, r3, #1
 184 014e FB71     		strb	r3, [r7, #7]
 185              	.L4:
 134:.\Generated_Source\PSoC5/CAN.c ****             for (i = 0u; i < CAN_NUMBER_OF_TX_MAILBOXES; i++)
 186              		.loc 1 134 0 is_stmt 0 discriminator 1
 187 0150 FB79     		ldrb	r3, [r7, #7]	@ zero_extendqisi2
 188 0152 072B     		cmp	r3, #7
 189 0154 E2D9     		bls	.L7
 190              	.L6:
 141:.\Generated_Source\PSoC5/CAN.c ****                 }
 142:.\Generated_Source\PSoC5/CAN.c ****             }
 143:.\Generated_Source\PSoC5/CAN.c **** 
 144:.\Generated_Source\PSoC5/CAN.c ****             if (localResult == CYRET_SUCCESS)
 191              		.loc 1 144 0 is_stmt 1
 192 0156 7B79     		ldrb	r3, [r7, #5]	@ zero_extendqisi2
 193 0158 002B     		cmp	r3, #0
 194 015a 30D1     		bne	.L2
 145:.\Generated_Source\PSoC5/CAN.c ****             {
ARM GAS  C:\Users\CHAIYA~1\AppData\Local\Temp\ccQBCuX6.s 			page 7


 146:.\Generated_Source\PSoC5/CAN.c ****                 /* Initialize RX mailboxes */
 147:.\Generated_Source\PSoC5/CAN.c ****                 for (i = 0u; i < CAN_NUMBER_OF_RX_MAILBOXES; i++)
 195              		.loc 1 147 0
 196 015c 4FF00003 		mov	r3, #0
 197 0160 FB71     		strb	r3, [r7, #7]
 198 0162 15E0     		b	.L8
 199              	.L11:
 148:.\Generated_Source\PSoC5/CAN.c ****                 {
 149:.\Generated_Source\PSoC5/CAN.c ****                     if (CAN_RxBufConfig((const CAN_RX_CFG *)
 150:.\Generated_Source\PSoC5/CAN.c ****                         (&CAN_RXConfigStruct[i])) != CYRET_SUCCESS)
 200              		.loc 1 150 0
 201 0164 FB79     		ldrb	r3, [r7, #7]	@ zero_extendqisi2
 149:.\Generated_Source\PSoC5/CAN.c ****                     if (CAN_RxBufConfig((const CAN_RX_CFG *)
 202              		.loc 1 149 0
 203 0166 4FEA0312 		lsl	r2, r3, #4
 204 016a 40F20003 		movw	r3, #:lower16:CAN_RXConfigStruct.4855
 205 016e C0F20003 		movt	r3, #:upper16:CAN_RXConfigStruct.4855
 206 0172 D318     		adds	r3, r2, r3
 207 0174 1846     		mov	r0, r3
 208 0176 FFF7FEFF 		bl	CAN_RxBufConfig
 209 017a 0346     		mov	r3, r0
 210 017c 002B     		cmp	r3, #0
 211 017e 03D0     		beq	.L9
 151:.\Generated_Source\PSoC5/CAN.c ****                     {
 152:.\Generated_Source\PSoC5/CAN.c ****                         localResult = CAN_FAIL;
 212              		.loc 1 152 0
 213 0180 4FF00103 		mov	r3, #1
 214 0184 7B71     		strb	r3, [r7, #5]
 153:.\Generated_Source\PSoC5/CAN.c ****                         break;
 215              		.loc 1 153 0
 216 0186 06E0     		b	.L10
 217              	.L9:
 147:.\Generated_Source\PSoC5/CAN.c ****                 for (i = 0u; i < CAN_NUMBER_OF_RX_MAILBOXES; i++)
 218              		.loc 1 147 0
 219 0188 FB79     		ldrb	r3, [r7, #7]
 220 018a 03F10103 		add	r3, r3, #1
 221 018e FB71     		strb	r3, [r7, #7]
 222              	.L8:
 147:.\Generated_Source\PSoC5/CAN.c ****                 for (i = 0u; i < CAN_NUMBER_OF_RX_MAILBOXES; i++)
 223              		.loc 1 147 0 is_stmt 0 discriminator 1
 224 0190 FB79     		ldrb	r3, [r7, #7]	@ zero_extendqisi2
 225 0192 0F2B     		cmp	r3, #15
 226 0194 E6D9     		bls	.L11
 227              	.L10:
 154:.\Generated_Source\PSoC5/CAN.c ****                     }
 155:.\Generated_Source\PSoC5/CAN.c ****                 }
 156:.\Generated_Source\PSoC5/CAN.c **** 
 157:.\Generated_Source\PSoC5/CAN.c ****                 if (localResult == CYRET_SUCCESS)
 228              		.loc 1 157 0 is_stmt 1
 229 0196 7B79     		ldrb	r3, [r7, #5]	@ zero_extendqisi2
 230 0198 002B     		cmp	r3, #0
 231 019a 10D1     		bne	.L2
 158:.\Generated_Source\PSoC5/CAN.c ****                 {
 159:.\Generated_Source\PSoC5/CAN.c ****                     /* Write IRQ Mask */
 160:.\Generated_Source\PSoC5/CAN.c ****                     if (CAN_SetIrqMask(CAN_INIT_INTERRUPT_MASK) ==
 232              		.loc 1 160 0
 233 019c 41F60120 		movw	r0, #6657
ARM GAS  C:\Users\CHAIYA~1\AppData\Local\Temp\ccQBCuX6.s 			page 8


 234 01a0 FFF7FEFF 		bl	CAN_SetIrqMask
 235 01a4 0346     		mov	r3, r0
 236 01a6 002B     		cmp	r3, #0
 237 01a8 09D1     		bne	.L2
 161:.\Generated_Source\PSoC5/CAN.c ****                         CYRET_SUCCESS)
 162:.\Generated_Source\PSoC5/CAN.c ****                     {
 163:.\Generated_Source\PSoC5/CAN.c ****                         /* Active mode always */
 164:.\Generated_Source\PSoC5/CAN.c ****                         if (CAN_SetOpMode(CAN_ACTIVE_MODE) == CYRET_SUCCESS)
 238              		.loc 1 164 0
 239 01aa 4FF00000 		mov	r0, #0
 240 01ae FFF7FEFF 		bl	CAN_SetOpMode
 241 01b2 0346     		mov	r3, r0
 242 01b4 002B     		cmp	r3, #0
 243 01b6 02D1     		bne	.L2
 165:.\Generated_Source\PSoC5/CAN.c ****                         {
 166:.\Generated_Source\PSoC5/CAN.c ****                             result = CYRET_SUCCESS;
 244              		.loc 1 166 0
 245 01b8 4FF00003 		mov	r3, #0
 246 01bc BB71     		strb	r3, [r7, #6]
 247              	.L2:
 167:.\Generated_Source\PSoC5/CAN.c ****                         }
 168:.\Generated_Source\PSoC5/CAN.c ****                     }
 169:.\Generated_Source\PSoC5/CAN.c ****                 }
 170:.\Generated_Source\PSoC5/CAN.c ****             }
 171:.\Generated_Source\PSoC5/CAN.c ****         }
 172:.\Generated_Source\PSoC5/CAN.c ****                             
 173:.\Generated_Source\PSoC5/CAN.c ****     }
 174:.\Generated_Source\PSoC5/CAN.c **** 
 175:.\Generated_Source\PSoC5/CAN.c ****     return (result);
 248              		.loc 1 175 0
 249 01be BB79     		ldrb	r3, [r7, #6]	@ zero_extendqisi2
 176:.\Generated_Source\PSoC5/CAN.c **** }
 250              		.loc 1 176 0
 251 01c0 1846     		mov	r0, r3
 252 01c2 07F10807 		add	r7, r7, #8
 253 01c6 BD46     		mov	sp, r7
 254 01c8 80BD     		pop	{r7, pc}
 255              		.cfi_endproc
 256              	.LFE0:
 257              		.size	CAN_Init, .-CAN_Init
 258 01ca 00BF     		.section	.text.CAN_Enable,"ax",%progbits
 259              		.align	2
 260              		.global	CAN_Enable
 261              		.thumb
 262              		.thumb_func
 263              		.type	CAN_Enable, %function
 264              	CAN_Enable:
 265              	.LFB1:
 177:.\Generated_Source\PSoC5/CAN.c **** 
 178:.\Generated_Source\PSoC5/CAN.c **** 
 179:.\Generated_Source\PSoC5/CAN.c **** /*******************************************************************************
 180:.\Generated_Source\PSoC5/CAN.c **** * Function Name: CAN_Enable
 181:.\Generated_Source\PSoC5/CAN.c **** ********************************************************************************
 182:.\Generated_Source\PSoC5/CAN.c **** *
 183:.\Generated_Source\PSoC5/CAN.c **** * Summary:   
 184:.\Generated_Source\PSoC5/CAN.c **** *  This function enable CAN Component and ISR of CAN Component. 
 185:.\Generated_Source\PSoC5/CAN.c **** *
ARM GAS  C:\Users\CHAIYA~1\AppData\Local\Temp\ccQBCuX6.s 			page 9


 186:.\Generated_Source\PSoC5/CAN.c **** * Parameters:  
 187:.\Generated_Source\PSoC5/CAN.c **** *  None.
 188:.\Generated_Source\PSoC5/CAN.c **** *
 189:.\Generated_Source\PSoC5/CAN.c **** * Return: 
 190:.\Generated_Source\PSoC5/CAN.c **** *  Indication whether register is written and verified.
 191:.\Generated_Source\PSoC5/CAN.c **** *   Define                             Description
 192:.\Generated_Source\PSoC5/CAN.c **** *    CYRET_SUCCESS                      Function passed successfully
 193:.\Generated_Source\PSoC5/CAN.c **** *    CAN_FAIL              Function failed
 194:.\Generated_Source\PSoC5/CAN.c **** *
 195:.\Generated_Source\PSoC5/CAN.c **** *******************************************************************************/
 196:.\Generated_Source\PSoC5/CAN.c **** uint8 CAN_Enable(void) 
 197:.\Generated_Source\PSoC5/CAN.c **** {
 266              		.loc 1 197 0
 267              		.cfi_startproc
 268              		@ args = 0, pretend = 0, frame = 8
 269              		@ frame_needed = 1, uses_anonymous_args = 0
 270 0000 80B5     		push	{r7, lr}
 271              	.LCFI3:
 272              		.cfi_def_cfa_offset 8
 273              		.cfi_offset 7, -8
 274              		.cfi_offset 14, -4
 275 0002 82B0     		sub	sp, sp, #8
 276              	.LCFI4:
 277              		.cfi_def_cfa_offset 16
 278 0004 00AF     		add	r7, sp, #0
 279              	.LCFI5:
 280              		.cfi_def_cfa_register 7
 198:.\Generated_Source\PSoC5/CAN.c ****     uint8 result = CAN_FAIL;
 281              		.loc 1 198 0
 282 0006 4FF00103 		mov	r3, #1
 283 000a FB71     		strb	r3, [r7, #7]
 199:.\Generated_Source\PSoC5/CAN.c ****     uint8 enableInterrupts;
 200:.\Generated_Source\PSoC5/CAN.c ****     
 201:.\Generated_Source\PSoC5/CAN.c ****     enableInterrupts = CyEnterCriticalSection();
 284              		.loc 1 201 0
 285 000c FFF7FEFF 		bl	CyEnterCriticalSection
 286 0010 0346     		mov	r3, r0
 287 0012 BB71     		strb	r3, [r7, #6]
 202:.\Generated_Source\PSoC5/CAN.c ****     
 203:.\Generated_Source\PSoC5/CAN.c ****     /* Enable CAN block in Active mode */
 204:.\Generated_Source\PSoC5/CAN.c ****     CAN_PM_ACT_CFG_REG |= CAN_ACT_PWR_EN;
 288              		.loc 1 204 0
 289 0014 44F2A633 		movw	r3, #17318
 290 0018 C4F20003 		movt	r3, 16384
 291 001c 44F2A632 		movw	r2, #17318
 292 0020 C4F20002 		movt	r2, 16384
 293 0024 1278     		ldrb	r2, [r2, #0]
 294 0026 D2B2     		uxtb	r2, r2
 295 0028 42F00102 		orr	r2, r2, #1
 296 002c D2B2     		uxtb	r2, r2
 297 002e 1A70     		strb	r2, [r3, #0]
 205:.\Generated_Source\PSoC5/CAN.c **** 
 206:.\Generated_Source\PSoC5/CAN.c ****     /* Enable CAN block in Alternate Active (Standby) mode */
 207:.\Generated_Source\PSoC5/CAN.c ****     CAN_PM_STBY_CFG_REG |= CAN_STBY_PWR_EN;
 298              		.loc 1 207 0
 299 0030 44F2B633 		movw	r3, #17334
 300 0034 C4F20003 		movt	r3, 16384
ARM GAS  C:\Users\CHAIYA~1\AppData\Local\Temp\ccQBCuX6.s 			page 10


 301 0038 44F2B632 		movw	r2, #17334
 302 003c C4F20002 		movt	r2, 16384
 303 0040 1278     		ldrb	r2, [r2, #0]
 304 0042 D2B2     		uxtb	r2, r2
 305 0044 42F00102 		orr	r2, r2, #1
 306 0048 D2B2     		uxtb	r2, r2
 307 004a 1A70     		strb	r2, [r3, #0]
 208:.\Generated_Source\PSoC5/CAN.c ****     
 209:.\Generated_Source\PSoC5/CAN.c ****     CyExitCriticalSection(enableInterrupts);
 308              		.loc 1 209 0
 309 004c BB79     		ldrb	r3, [r7, #6]	@ zero_extendqisi2
 310 004e 1846     		mov	r0, r3
 311 0050 FFF7FEFF 		bl	CyExitCriticalSection
 210:.\Generated_Source\PSoC5/CAN.c ****     
 211:.\Generated_Source\PSoC5/CAN.c ****     /* Enable isr */
 212:.\Generated_Source\PSoC5/CAN.c ****     CyIntEnable(CAN_ISR_NUMBER);
 312              		.loc 1 212 0
 313 0054 4FF46143 		mov	r3, #57600
 314 0058 CEF20003 		movt	r3, 57344
 315 005c 4FF48032 		mov	r2, #65536
 316 0060 1A60     		str	r2, [r3, #0]
 213:.\Generated_Source\PSoC5/CAN.c **** 
 214:.\Generated_Source\PSoC5/CAN.c **** 
 215:.\Generated_Source\PSoC5/CAN.c ****     /* Sets the CAN controller to run mode */
 216:.\Generated_Source\PSoC5/CAN.c ****     CY_SET_REG32(CAN_CMD_PTR, (CY_GET_REG32(CAN_CMD_PTR) | CAN_MODE_MASK));
 317              		.loc 1 216 0
 318 0062 4AF21003 		movw	r3, #40976
 319 0066 C4F20003 		movt	r3, 16384
 320 006a 4AF21002 		movw	r2, #40976
 321 006e C4F20002 		movt	r2, 16384
 322 0072 1268     		ldr	r2, [r2, #0]
 323 0074 42F00102 		orr	r2, r2, #1
 324 0078 1A60     		str	r2, [r3, #0]
 217:.\Generated_Source\PSoC5/CAN.c ****     
 218:.\Generated_Source\PSoC5/CAN.c ****     /* Verify that bit is set */
 219:.\Generated_Source\PSoC5/CAN.c ****     if (0u != (CY_GET_REG32(CAN_CMD_PTR) & CAN_MODE_MASK))
 325              		.loc 1 219 0
 326 007a 4AF21003 		movw	r3, #40976
 327 007e C4F20003 		movt	r3, 16384
 328 0082 1B68     		ldr	r3, [r3, #0]
 329 0084 03F00103 		and	r3, r3, #1
 330 0088 002B     		cmp	r3, #0
 331 008a 02D0     		beq	.L14
 220:.\Generated_Source\PSoC5/CAN.c ****     {
 221:.\Generated_Source\PSoC5/CAN.c ****         result = CYRET_SUCCESS;
 332              		.loc 1 221 0
 333 008c 4FF00003 		mov	r3, #0
 334 0090 FB71     		strb	r3, [r7, #7]
 335              	.L14:
 222:.\Generated_Source\PSoC5/CAN.c ****     }
 223:.\Generated_Source\PSoC5/CAN.c ****     
 224:.\Generated_Source\PSoC5/CAN.c ****     return (result);
 336              		.loc 1 224 0
 337 0092 FB79     		ldrb	r3, [r7, #7]	@ zero_extendqisi2
 225:.\Generated_Source\PSoC5/CAN.c **** }
 338              		.loc 1 225 0
 339 0094 1846     		mov	r0, r3
ARM GAS  C:\Users\CHAIYA~1\AppData\Local\Temp\ccQBCuX6.s 			page 11


 340 0096 07F10807 		add	r7, r7, #8
 341 009a BD46     		mov	sp, r7
 342 009c 80BD     		pop	{r7, pc}
 343              		.cfi_endproc
 344              	.LFE1:
 345              		.size	CAN_Enable, .-CAN_Enable
 346 009e 00BF     		.section	.text.CAN_Start,"ax",%progbits
 347              		.align	2
 348              		.global	CAN_Start
 349              		.thumb
 350              		.thumb_func
 351              		.type	CAN_Start, %function
 352              	CAN_Start:
 353              	.LFB2:
 226:.\Generated_Source\PSoC5/CAN.c **** 
 227:.\Generated_Source\PSoC5/CAN.c **** 
 228:.\Generated_Source\PSoC5/CAN.c **** /*******************************************************************************
 229:.\Generated_Source\PSoC5/CAN.c **** * FUNCTION NAME:   CAN_Start
 230:.\Generated_Source\PSoC5/CAN.c **** ********************************************************************************
 231:.\Generated_Source\PSoC5/CAN.c **** *
 232:.\Generated_Source\PSoC5/CAN.c **** * Summary:
 233:.\Generated_Source\PSoC5/CAN.c **** *  This function sets CAN Component into Run mode. Starts the Rate Counter if
 234:.\Generated_Source\PSoC5/CAN.c **** *  polling mailboxes available.
 235:.\Generated_Source\PSoC5/CAN.c **** *
 236:.\Generated_Source\PSoC5/CAN.c **** * Parameters:
 237:.\Generated_Source\PSoC5/CAN.c **** *  None. 
 238:.\Generated_Source\PSoC5/CAN.c **** *
 239:.\Generated_Source\PSoC5/CAN.c **** * Return:
 240:.\Generated_Source\PSoC5/CAN.c **** *  Indication whether register is written and verified.
 241:.\Generated_Source\PSoC5/CAN.c **** *   Define                             Description
 242:.\Generated_Source\PSoC5/CAN.c **** *    CYRET_SUCCESS                      Function passed successfully
 243:.\Generated_Source\PSoC5/CAN.c **** *    CAN_FAIL              Function failed
 244:.\Generated_Source\PSoC5/CAN.c **** *
 245:.\Generated_Source\PSoC5/CAN.c **** * Global variables:
 246:.\Generated_Source\PSoC5/CAN.c **** *  CAN_initVar - used to check initial configuration, modified on
 247:.\Generated_Source\PSoC5/CAN.c **** *  first function call.
 248:.\Generated_Source\PSoC5/CAN.c **** *
 249:.\Generated_Source\PSoC5/CAN.c **** * Reentrant:
 250:.\Generated_Source\PSoC5/CAN.c **** *  No.
 251:.\Generated_Source\PSoC5/CAN.c **** *
 252:.\Generated_Source\PSoC5/CAN.c **** *******************************************************************************/
 253:.\Generated_Source\PSoC5/CAN.c **** uint8 CAN_Start(void) 
 254:.\Generated_Source\PSoC5/CAN.c **** {
 354              		.loc 1 254 0
 355              		.cfi_startproc
 356              		@ args = 0, pretend = 0, frame = 8
 357              		@ frame_needed = 1, uses_anonymous_args = 0
 358 0000 80B5     		push	{r7, lr}
 359              	.LCFI6:
 360              		.cfi_def_cfa_offset 8
 361              		.cfi_offset 7, -8
 362              		.cfi_offset 14, -4
 363 0002 82B0     		sub	sp, sp, #8
 364              	.LCFI7:
 365              		.cfi_def_cfa_offset 16
 366 0004 00AF     		add	r7, sp, #0
 367              	.LCFI8:
ARM GAS  C:\Users\CHAIYA~1\AppData\Local\Temp\ccQBCuX6.s 			page 12


 368              		.cfi_def_cfa_register 7
 255:.\Generated_Source\PSoC5/CAN.c ****     uint8 result = CYRET_SUCCESS;
 369              		.loc 1 255 0
 370 0006 4FF00003 		mov	r3, #0
 371 000a FB71     		strb	r3, [r7, #7]
 256:.\Generated_Source\PSoC5/CAN.c ****     
 257:.\Generated_Source\PSoC5/CAN.c ****     if (CAN_initVar == 0u)
 372              		.loc 1 257 0
 373 000c 40F20003 		movw	r3, #:lower16:CAN_initVar
 374 0010 C0F20003 		movt	r3, #:upper16:CAN_initVar
 375 0014 1B78     		ldrb	r3, [r3, #0]	@ zero_extendqisi2
 376 0016 002B     		cmp	r3, #0
 377 0018 0AD1     		bne	.L17
 258:.\Generated_Source\PSoC5/CAN.c ****     {
 259:.\Generated_Source\PSoC5/CAN.c ****         result = CAN_Init();
 378              		.loc 1 259 0
 379 001a FFF7FEFF 		bl	CAN_Init
 380 001e 0346     		mov	r3, r0
 381 0020 FB71     		strb	r3, [r7, #7]
 260:.\Generated_Source\PSoC5/CAN.c ****         CAN_initVar = 1u;        
 382              		.loc 1 260 0
 383 0022 40F20003 		movw	r3, #:lower16:CAN_initVar
 384 0026 C0F20003 		movt	r3, #:upper16:CAN_initVar
 385 002a 4FF00102 		mov	r2, #1
 386 002e 1A70     		strb	r2, [r3, #0]
 387              	.L17:
 261:.\Generated_Source\PSoC5/CAN.c ****     }
 262:.\Generated_Source\PSoC5/CAN.c ****     
 263:.\Generated_Source\PSoC5/CAN.c ****     if (result == CYRET_SUCCESS)
 388              		.loc 1 263 0
 389 0030 FB79     		ldrb	r3, [r7, #7]	@ zero_extendqisi2
 390 0032 002B     		cmp	r3, #0
 391 0034 03D1     		bne	.L18
 264:.\Generated_Source\PSoC5/CAN.c ****     {
 265:.\Generated_Source\PSoC5/CAN.c ****         result = CAN_Enable();
 392              		.loc 1 265 0
 393 0036 FFF7FEFF 		bl	CAN_Enable
 394 003a 0346     		mov	r3, r0
 395 003c FB71     		strb	r3, [r7, #7]
 396              	.L18:
 266:.\Generated_Source\PSoC5/CAN.c ****     }
 267:.\Generated_Source\PSoC5/CAN.c **** 
 268:.\Generated_Source\PSoC5/CAN.c ****     return (result);
 397              		.loc 1 268 0
 398 003e FB79     		ldrb	r3, [r7, #7]	@ zero_extendqisi2
 269:.\Generated_Source\PSoC5/CAN.c **** }
 399              		.loc 1 269 0
 400 0040 1846     		mov	r0, r3
 401 0042 07F10807 		add	r7, r7, #8
 402 0046 BD46     		mov	sp, r7
 403 0048 80BD     		pop	{r7, pc}
 404              		.cfi_endproc
 405              	.LFE2:
 406              		.size	CAN_Start, .-CAN_Start
 407 004a 00BF     		.section	.text.CAN_Stop,"ax",%progbits
 408              		.align	2
 409              		.global	CAN_Stop
ARM GAS  C:\Users\CHAIYA~1\AppData\Local\Temp\ccQBCuX6.s 			page 13


 410              		.thumb
 411              		.thumb_func
 412              		.type	CAN_Stop, %function
 413              	CAN_Stop:
 414              	.LFB3:
 270:.\Generated_Source\PSoC5/CAN.c **** 
 271:.\Generated_Source\PSoC5/CAN.c **** 
 272:.\Generated_Source\PSoC5/CAN.c **** /*******************************************************************************
 273:.\Generated_Source\PSoC5/CAN.c **** * FUNCTION NAME:   CAN_Stop
 274:.\Generated_Source\PSoC5/CAN.c **** ********************************************************************************
 275:.\Generated_Source\PSoC5/CAN.c **** *
 276:.\Generated_Source\PSoC5/CAN.c **** * Summary:
 277:.\Generated_Source\PSoC5/CAN.c **** *  This function sets CAN Component into Stop mode.
 278:.\Generated_Source\PSoC5/CAN.c **** *
 279:.\Generated_Source\PSoC5/CAN.c **** * Parameters:
 280:.\Generated_Source\PSoC5/CAN.c **** *  None.
 281:.\Generated_Source\PSoC5/CAN.c **** *
 282:.\Generated_Source\PSoC5/CAN.c **** * Return:
 283:.\Generated_Source\PSoC5/CAN.c **** *  Indication whether register is written and verified.
 284:.\Generated_Source\PSoC5/CAN.c **** *   Define                             Description
 285:.\Generated_Source\PSoC5/CAN.c **** *    CYRET_SUCCESS                      Function passed successfully
 286:.\Generated_Source\PSoC5/CAN.c **** *    CAN_FAIL              Function failed
 287:.\Generated_Source\PSoC5/CAN.c **** *
 288:.\Generated_Source\PSoC5/CAN.c **** * Side Effects:
 289:.\Generated_Source\PSoC5/CAN.c **** *  Disable power to the CAN Core.
 290:.\Generated_Source\PSoC5/CAN.c **** *
 291:.\Generated_Source\PSoC5/CAN.c **** *******************************************************************************/
 292:.\Generated_Source\PSoC5/CAN.c **** uint8 CAN_Stop(void) 
 293:.\Generated_Source\PSoC5/CAN.c **** {
 415              		.loc 1 293 0
 416              		.cfi_startproc
 417              		@ args = 0, pretend = 0, frame = 8
 418              		@ frame_needed = 1, uses_anonymous_args = 0
 419 0000 80B5     		push	{r7, lr}
 420              	.LCFI9:
 421              		.cfi_def_cfa_offset 8
 422              		.cfi_offset 7, -8
 423              		.cfi_offset 14, -4
 424 0002 82B0     		sub	sp, sp, #8
 425              	.LCFI10:
 426              		.cfi_def_cfa_offset 16
 427 0004 00AF     		add	r7, sp, #0
 428              	.LCFI11:
 429              		.cfi_def_cfa_register 7
 294:.\Generated_Source\PSoC5/CAN.c ****     uint8 result = CAN_FAIL;
 430              		.loc 1 294 0
 431 0006 4FF00103 		mov	r3, #1
 432 000a FB71     		strb	r3, [r7, #7]
 295:.\Generated_Source\PSoC5/CAN.c ****     uint8 enableInterrupts;        
 296:.\Generated_Source\PSoC5/CAN.c ****     
 297:.\Generated_Source\PSoC5/CAN.c ****     /* Sets the CAN controller to stop mode */
 298:.\Generated_Source\PSoC5/CAN.c ****     CY_SET_REG32(CAN_CMD_PTR, (CY_GET_REG32(CAN_CMD_PTR) & 
 433              		.loc 1 298 0
 434 000c 4AF21003 		movw	r3, #40976
 435 0010 C4F20003 		movt	r3, 16384
 436 0014 4AF21002 		movw	r2, #40976
 437 0018 C4F20002 		movt	r2, 16384
ARM GAS  C:\Users\CHAIYA~1\AppData\Local\Temp\ccQBCuX6.s 			page 14


 438 001c 1268     		ldr	r2, [r2, #0]
 439 001e 02F0FE02 		and	r2, r2, #254
 440 0022 1A60     		str	r2, [r3, #0]
 299:.\Generated_Source\PSoC5/CAN.c ****                                             ((uint8) (~CAN_MODE_MASK))));
 300:.\Generated_Source\PSoC5/CAN.c **** 
 301:.\Generated_Source\PSoC5/CAN.c ****     /* Verify that bit is cleared */
 302:.\Generated_Source\PSoC5/CAN.c ****     if (0u == (CY_GET_REG32(CAN_CMD_PTR) & CAN_MODE_MASK))
 441              		.loc 1 302 0
 442 0024 4AF21003 		movw	r3, #40976
 443 0028 C4F20003 		movt	r3, 16384
 444 002c 1B68     		ldr	r3, [r3, #0]
 445 002e 03F00103 		and	r3, r3, #1
 446 0032 002B     		cmp	r3, #0
 447 0034 02D1     		bne	.L21
 303:.\Generated_Source\PSoC5/CAN.c ****     {
 304:.\Generated_Source\PSoC5/CAN.c ****         result = CYRET_SUCCESS;
 448              		.loc 1 304 0
 449 0036 4FF00003 		mov	r3, #0
 450 003a FB71     		strb	r3, [r7, #7]
 451              	.L21:
 305:.\Generated_Source\PSoC5/CAN.c ****     }
 306:.\Generated_Source\PSoC5/CAN.c ****     
 307:.\Generated_Source\PSoC5/CAN.c ****     /* Disable isr */
 308:.\Generated_Source\PSoC5/CAN.c ****     CyIntDisable(CAN_ISR_NUMBER);
 452              		.loc 1 308 0
 453 003c 4EF28013 		movw	r3, #57728
 454 0040 CEF20003 		movt	r3, 57344
 455 0044 4FF48032 		mov	r2, #65536
 456 0048 1A60     		str	r2, [r3, #0]
 309:.\Generated_Source\PSoC5/CAN.c **** 
 310:.\Generated_Source\PSoC5/CAN.c ****     enableInterrupts = CyEnterCriticalSection(); 
 457              		.loc 1 310 0
 458 004a FFF7FEFF 		bl	CyEnterCriticalSection
 459 004e 0346     		mov	r3, r0
 460 0050 BB71     		strb	r3, [r7, #6]
 311:.\Generated_Source\PSoC5/CAN.c **** 
 312:.\Generated_Source\PSoC5/CAN.c ****     /* Disable CAN block in Active mode */
 313:.\Generated_Source\PSoC5/CAN.c ****     CAN_PM_ACT_CFG_REG &= (uint8) (~CAN_ACT_PWR_EN);
 461              		.loc 1 313 0
 462 0052 44F2A633 		movw	r3, #17318
 463 0056 C4F20003 		movt	r3, 16384
 464 005a 44F2A632 		movw	r2, #17318
 465 005e C4F20002 		movt	r2, 16384
 466 0062 1278     		ldrb	r2, [r2, #0]
 467 0064 D2B2     		uxtb	r2, r2
 468 0066 22F00102 		bic	r2, r2, #1
 469 006a D2B2     		uxtb	r2, r2
 470 006c 1A70     		strb	r2, [r3, #0]
 314:.\Generated_Source\PSoC5/CAN.c **** 
 315:.\Generated_Source\PSoC5/CAN.c ****     /* Disable CAN block in Alternate Active (Standby) mode template */
 316:.\Generated_Source\PSoC5/CAN.c ****     CAN_PM_STBY_CFG_REG &= (uint8) (~CAN_STBY_PWR_EN);
 471              		.loc 1 316 0
 472 006e 44F2B633 		movw	r3, #17334
 473 0072 C4F20003 		movt	r3, 16384
 474 0076 44F2B632 		movw	r2, #17334
 475 007a C4F20002 		movt	r2, 16384
 476 007e 1278     		ldrb	r2, [r2, #0]
ARM GAS  C:\Users\CHAIYA~1\AppData\Local\Temp\ccQBCuX6.s 			page 15


 477 0080 D2B2     		uxtb	r2, r2
 478 0082 22F00102 		bic	r2, r2, #1
 479 0086 D2B2     		uxtb	r2, r2
 480 0088 1A70     		strb	r2, [r3, #0]
 317:.\Generated_Source\PSoC5/CAN.c ****     
 318:.\Generated_Source\PSoC5/CAN.c ****     CyExitCriticalSection(enableInterrupts);
 481              		.loc 1 318 0
 482 008a BB79     		ldrb	r3, [r7, #6]	@ zero_extendqisi2
 483 008c 1846     		mov	r0, r3
 484 008e FFF7FEFF 		bl	CyExitCriticalSection
 319:.\Generated_Source\PSoC5/CAN.c **** 
 320:.\Generated_Source\PSoC5/CAN.c ****     return (result);
 485              		.loc 1 320 0
 486 0092 FB79     		ldrb	r3, [r7, #7]	@ zero_extendqisi2
 321:.\Generated_Source\PSoC5/CAN.c **** }
 487              		.loc 1 321 0
 488 0094 1846     		mov	r0, r3
 489 0096 07F10807 		add	r7, r7, #8
 490 009a BD46     		mov	sp, r7
 491 009c 80BD     		pop	{r7, pc}
 492              		.cfi_endproc
 493              	.LFE3:
 494              		.size	CAN_Stop, .-CAN_Stop
 495 009e 00BF     		.section	.text.CAN_GlobalIntEnable,"ax",%progbits
 496              		.align	2
 497              		.global	CAN_GlobalIntEnable
 498              		.thumb
 499              		.thumb_func
 500              		.type	CAN_GlobalIntEnable, %function
 501              	CAN_GlobalIntEnable:
 502              	.LFB4:
 322:.\Generated_Source\PSoC5/CAN.c **** 
 323:.\Generated_Source\PSoC5/CAN.c **** 
 324:.\Generated_Source\PSoC5/CAN.c **** /*******************************************************************************
 325:.\Generated_Source\PSoC5/CAN.c **** * FUNCTION NAME:   CAN_GlobalIntEnable
 326:.\Generated_Source\PSoC5/CAN.c **** ********************************************************************************
 327:.\Generated_Source\PSoC5/CAN.c **** *
 328:.\Generated_Source\PSoC5/CAN.c **** * Summary:
 329:.\Generated_Source\PSoC5/CAN.c **** *  This function enables Global Interrupts from CAN Core.
 330:.\Generated_Source\PSoC5/CAN.c **** *
 331:.\Generated_Source\PSoC5/CAN.c **** * Parameters:
 332:.\Generated_Source\PSoC5/CAN.c **** *  None.
 333:.\Generated_Source\PSoC5/CAN.c **** *
 334:.\Generated_Source\PSoC5/CAN.c **** * Return:
 335:.\Generated_Source\PSoC5/CAN.c **** *  Indication whether register is written and verified.
 336:.\Generated_Source\PSoC5/CAN.c **** *   Define                             Description
 337:.\Generated_Source\PSoC5/CAN.c **** *    CYRET_SUCCESS                      Function passed successfully
 338:.\Generated_Source\PSoC5/CAN.c **** *    CAN_FAIL              Function failed
 339:.\Generated_Source\PSoC5/CAN.c **** *
 340:.\Generated_Source\PSoC5/CAN.c **** *******************************************************************************/
 341:.\Generated_Source\PSoC5/CAN.c **** uint8 CAN_GlobalIntEnable(void) 
 342:.\Generated_Source\PSoC5/CAN.c **** {
 503              		.loc 1 342 0
 504              		.cfi_startproc
 505              		@ args = 0, pretend = 0, frame = 8
 506              		@ frame_needed = 1, uses_anonymous_args = 0
 507              		@ link register save eliminated.
ARM GAS  C:\Users\CHAIYA~1\AppData\Local\Temp\ccQBCuX6.s 			page 16


 508 0000 80B4     		push	{r7}
 509              	.LCFI12:
 510              		.cfi_def_cfa_offset 4
 511              		.cfi_offset 7, -4
 512 0002 83B0     		sub	sp, sp, #12
 513              	.LCFI13:
 514              		.cfi_def_cfa_offset 16
 515 0004 00AF     		add	r7, sp, #0
 516              	.LCFI14:
 517              		.cfi_def_cfa_register 7
 343:.\Generated_Source\PSoC5/CAN.c ****     uint8 result = CAN_FAIL;
 518              		.loc 1 343 0
 519 0006 4FF00103 		mov	r3, #1
 520 000a FB71     		strb	r3, [r7, #7]
 344:.\Generated_Source\PSoC5/CAN.c **** 
 345:.\Generated_Source\PSoC5/CAN.c ****     CAN_INT_EN_REG.byte[0u] |= CAN_GLOBAL_INT_MASK;
 521              		.loc 1 345 0
 522 000c 4AF20403 		movw	r3, #40964
 523 0010 C4F20003 		movt	r3, 16384
 524 0014 4AF20402 		movw	r2, #40964
 525 0018 C4F20002 		movt	r2, 16384
 526 001c 1278     		ldrb	r2, [r2, #0]
 527 001e D2B2     		uxtb	r2, r2
 528 0020 42F00102 		orr	r2, r2, #1
 529 0024 D2B2     		uxtb	r2, r2
 530 0026 1A70     		strb	r2, [r3, #0]
 346:.\Generated_Source\PSoC5/CAN.c **** 
 347:.\Generated_Source\PSoC5/CAN.c ****     /* Verify that bit is set */
 348:.\Generated_Source\PSoC5/CAN.c ****     if ((CAN_INT_EN_REG.byte[0u] & CAN_GLOBAL_INT_MASK) == CAN_GLOBAL_INT_MASK)
 531              		.loc 1 348 0
 532 0028 4AF20403 		movw	r3, #40964
 533 002c C4F20003 		movt	r3, 16384
 534 0030 1B78     		ldrb	r3, [r3, #0]
 535 0032 DBB2     		uxtb	r3, r3
 536 0034 03F00103 		and	r3, r3, #1
 537 0038 002B     		cmp	r3, #0
 538 003a 02D0     		beq	.L24
 349:.\Generated_Source\PSoC5/CAN.c ****     {
 350:.\Generated_Source\PSoC5/CAN.c ****         result = CYRET_SUCCESS;
 539              		.loc 1 350 0
 540 003c 4FF00003 		mov	r3, #0
 541 0040 FB71     		strb	r3, [r7, #7]
 542              	.L24:
 351:.\Generated_Source\PSoC5/CAN.c ****     }
 352:.\Generated_Source\PSoC5/CAN.c **** 
 353:.\Generated_Source\PSoC5/CAN.c ****     return (result);
 543              		.loc 1 353 0
 544 0042 FB79     		ldrb	r3, [r7, #7]	@ zero_extendqisi2
 354:.\Generated_Source\PSoC5/CAN.c **** }
 545              		.loc 1 354 0
 546 0044 1846     		mov	r0, r3
 547 0046 07F10C07 		add	r7, r7, #12
 548 004a BD46     		mov	sp, r7
 549 004c 80BC     		pop	{r7}
 550 004e 7047     		bx	lr
 551              		.cfi_endproc
 552              	.LFE4:
ARM GAS  C:\Users\CHAIYA~1\AppData\Local\Temp\ccQBCuX6.s 			page 17


 553              		.size	CAN_GlobalIntEnable, .-CAN_GlobalIntEnable
 554              		.section	.text.CAN_GlobalIntDisable,"ax",%progbits
 555              		.align	2
 556              		.global	CAN_GlobalIntDisable
 557              		.thumb
 558              		.thumb_func
 559              		.type	CAN_GlobalIntDisable, %function
 560              	CAN_GlobalIntDisable:
 561              	.LFB5:
 355:.\Generated_Source\PSoC5/CAN.c **** 
 356:.\Generated_Source\PSoC5/CAN.c **** 
 357:.\Generated_Source\PSoC5/CAN.c **** /*******************************************************************************
 358:.\Generated_Source\PSoC5/CAN.c **** * FUNCTION NAME:   CAN_GlobalIntDisable
 359:.\Generated_Source\PSoC5/CAN.c **** ********************************************************************************
 360:.\Generated_Source\PSoC5/CAN.c **** *
 361:.\Generated_Source\PSoC5/CAN.c **** * Summary:
 362:.\Generated_Source\PSoC5/CAN.c **** *  This function disables Global Interrupts from CAN Core.
 363:.\Generated_Source\PSoC5/CAN.c **** *
 364:.\Generated_Source\PSoC5/CAN.c **** * Parameters:
 365:.\Generated_Source\PSoC5/CAN.c **** *  None.
 366:.\Generated_Source\PSoC5/CAN.c **** *
 367:.\Generated_Source\PSoC5/CAN.c **** * Return:
 368:.\Generated_Source\PSoC5/CAN.c **** *  Indication whether register is written and verified.
 369:.\Generated_Source\PSoC5/CAN.c **** *   Define                             Description
 370:.\Generated_Source\PSoC5/CAN.c **** *    CYRET_SUCCESS                      Function passed successfully
 371:.\Generated_Source\PSoC5/CAN.c **** *    CAN_FAIL              Function failed
 372:.\Generated_Source\PSoC5/CAN.c **** *
 373:.\Generated_Source\PSoC5/CAN.c **** *******************************************************************************/
 374:.\Generated_Source\PSoC5/CAN.c **** uint8 CAN_GlobalIntDisable(void) 
 375:.\Generated_Source\PSoC5/CAN.c **** {
 562              		.loc 1 375 0
 563              		.cfi_startproc
 564              		@ args = 0, pretend = 0, frame = 8
 565              		@ frame_needed = 1, uses_anonymous_args = 0
 566              		@ link register save eliminated.
 567 0000 80B4     		push	{r7}
 568              	.LCFI15:
 569              		.cfi_def_cfa_offset 4
 570              		.cfi_offset 7, -4
 571 0002 83B0     		sub	sp, sp, #12
 572              	.LCFI16:
 573              		.cfi_def_cfa_offset 16
 574 0004 00AF     		add	r7, sp, #0
 575              	.LCFI17:
 576              		.cfi_def_cfa_register 7
 376:.\Generated_Source\PSoC5/CAN.c ****     uint8 result = CAN_FAIL;
 577              		.loc 1 376 0
 578 0006 4FF00103 		mov	r3, #1
 579 000a FB71     		strb	r3, [r7, #7]
 377:.\Generated_Source\PSoC5/CAN.c **** 
 378:.\Generated_Source\PSoC5/CAN.c ****     CAN_INT_EN_REG.byte[0u] &= (uint8) (~CAN_GLOBAL_INT_MASK);
 580              		.loc 1 378 0
 581 000c 4AF20403 		movw	r3, #40964
 582 0010 C4F20003 		movt	r3, 16384
 583 0014 4AF20402 		movw	r2, #40964
 584 0018 C4F20002 		movt	r2, 16384
 585 001c 1278     		ldrb	r2, [r2, #0]
ARM GAS  C:\Users\CHAIYA~1\AppData\Local\Temp\ccQBCuX6.s 			page 18


 586 001e D2B2     		uxtb	r2, r2
 587 0020 22F00102 		bic	r2, r2, #1
 588 0024 D2B2     		uxtb	r2, r2
 589 0026 1A70     		strb	r2, [r3, #0]
 379:.\Generated_Source\PSoC5/CAN.c **** 
 380:.\Generated_Source\PSoC5/CAN.c ****     /* Verify that bit is cleared */
 381:.\Generated_Source\PSoC5/CAN.c ****     if ((CAN_INT_EN_REG.byte[0u] & CAN_GLOBAL_INT_MASK) == 0u)
 590              		.loc 1 381 0
 591 0028 4AF20403 		movw	r3, #40964
 592 002c C4F20003 		movt	r3, 16384
 593 0030 1B78     		ldrb	r3, [r3, #0]
 594 0032 DBB2     		uxtb	r3, r3
 595 0034 03F00103 		and	r3, r3, #1
 596 0038 002B     		cmp	r3, #0
 597 003a 02D1     		bne	.L27
 382:.\Generated_Source\PSoC5/CAN.c ****     {
 383:.\Generated_Source\PSoC5/CAN.c ****         result = CYRET_SUCCESS;
 598              		.loc 1 383 0
 599 003c 4FF00003 		mov	r3, #0
 600 0040 FB71     		strb	r3, [r7, #7]
 601              	.L27:
 384:.\Generated_Source\PSoC5/CAN.c ****     }
 385:.\Generated_Source\PSoC5/CAN.c **** 
 386:.\Generated_Source\PSoC5/CAN.c ****     return (result);
 602              		.loc 1 386 0
 603 0042 FB79     		ldrb	r3, [r7, #7]	@ zero_extendqisi2
 387:.\Generated_Source\PSoC5/CAN.c **** }
 604              		.loc 1 387 0
 605 0044 1846     		mov	r0, r3
 606 0046 07F10C07 		add	r7, r7, #12
 607 004a BD46     		mov	sp, r7
 608 004c 80BC     		pop	{r7}
 609 004e 7047     		bx	lr
 610              		.cfi_endproc
 611              	.LFE5:
 612              		.size	CAN_GlobalIntDisable, .-CAN_GlobalIntDisable
 613              		.section	.text.CAN_SetPreScaler,"ax",%progbits
 614              		.align	2
 615              		.global	CAN_SetPreScaler
 616              		.thumb
 617              		.thumb_func
 618              		.type	CAN_SetPreScaler, %function
 619              	CAN_SetPreScaler:
 620              	.LFB6:
 388:.\Generated_Source\PSoC5/CAN.c **** 
 389:.\Generated_Source\PSoC5/CAN.c **** 
 390:.\Generated_Source\PSoC5/CAN.c **** /*******************************************************************************
 391:.\Generated_Source\PSoC5/CAN.c **** * FUNCTION NAME:   CAN_SetPreScaler
 392:.\Generated_Source\PSoC5/CAN.c **** ********************************************************************************
 393:.\Generated_Source\PSoC5/CAN.c **** *
 394:.\Generated_Source\PSoC5/CAN.c **** * Summary:
 395:.\Generated_Source\PSoC5/CAN.c **** *  This function sets PreScaler for generation the time quantum which defines
 396:.\Generated_Source\PSoC5/CAN.c **** *  the time quanta. Value between 0x0 and 0x7FFF are valid.
 397:.\Generated_Source\PSoC5/CAN.c **** *
 398:.\Generated_Source\PSoC5/CAN.c **** * Parameters:
 399:.\Generated_Source\PSoC5/CAN.c **** *  bitrate: PreScaler value.
 400:.\Generated_Source\PSoC5/CAN.c **** *   Value           Description
ARM GAS  C:\Users\CHAIYA~1\AppData\Local\Temp\ccQBCuX6.s 			page 19


 401:.\Generated_Source\PSoC5/CAN.c **** *    0               One time quantum equals 1 clock cycle
 402:.\Generated_Source\PSoC5/CAN.c **** *    1               One time quantum equals 2 clock cycles
 403:.\Generated_Source\PSoC5/CAN.c **** *    ...             ...
 404:.\Generated_Source\PSoC5/CAN.c **** *    32767           One time quantum equals 32768 clock cycles
 405:.\Generated_Source\PSoC5/CAN.c **** *
 406:.\Generated_Source\PSoC5/CAN.c **** * Return:
 407:.\Generated_Source\PSoC5/CAN.c **** *  Indication whether register is written and verified.
 408:.\Generated_Source\PSoC5/CAN.c **** *   Define                             Description
 409:.\Generated_Source\PSoC5/CAN.c **** *    CYRET_SUCCESS                      Function passed successfully
 410:.\Generated_Source\PSoC5/CAN.c **** *    CAN_FAIL              Function failed
 411:.\Generated_Source\PSoC5/CAN.c **** *    CAN_OUT_OF_RANGE      Function parameter is out of range
 412:.\Generated_Source\PSoC5/CAN.c **** *
 413:.\Generated_Source\PSoC5/CAN.c **** *******************************************************************************/
 414:.\Generated_Source\PSoC5/CAN.c **** uint8 CAN_SetPreScaler(uint16 bitrate) 
 415:.\Generated_Source\PSoC5/CAN.c **** {
 621              		.loc 1 415 0
 622              		.cfi_startproc
 623              		@ args = 0, pretend = 0, frame = 16
 624              		@ frame_needed = 1, uses_anonymous_args = 0
 625              		@ link register save eliminated.
 626 0000 80B4     		push	{r7}
 627              	.LCFI18:
 628              		.cfi_def_cfa_offset 4
 629              		.cfi_offset 7, -4
 630 0002 85B0     		sub	sp, sp, #20
 631              	.LCFI19:
 632              		.cfi_def_cfa_offset 24
 633 0004 00AF     		add	r7, sp, #0
 634              	.LCFI20:
 635              		.cfi_def_cfa_register 7
 636 0006 0346     		mov	r3, r0
 637 0008 FB80     		strh	r3, [r7, #6]	@ movhi
 416:.\Generated_Source\PSoC5/CAN.c ****     uint8 result = CAN_OUT_OF_RANGE;
 638              		.loc 1 416 0
 639 000a 4FF00203 		mov	r3, #2
 640 000e FB73     		strb	r3, [r7, #15]
 417:.\Generated_Source\PSoC5/CAN.c **** 
 418:.\Generated_Source\PSoC5/CAN.c ****     if (bitrate <= CAN_BITRATE_MASK)
 641              		.loc 1 418 0
 642 0010 FB88     		ldrh	r3, [r7, #6]
 643 0012 1BB2     		sxth	r3, r3
 644 0014 002B     		cmp	r3, #0
 645 0016 14DB     		blt	.L30
 419:.\Generated_Source\PSoC5/CAN.c ****     {
 420:.\Generated_Source\PSoC5/CAN.c ****         result = CAN_FAIL;
 646              		.loc 1 420 0
 647 0018 4FF00103 		mov	r3, #1
 648 001c FB73     		strb	r3, [r7, #15]
 421:.\Generated_Source\PSoC5/CAN.c **** 
 422:.\Generated_Source\PSoC5/CAN.c ****         /* Set prescaler */
 423:.\Generated_Source\PSoC5/CAN.c ****         CY_SET_REG16((reg16 *) &CAN_CFG_REG.byte[2u], bitrate);
 649              		.loc 1 423 0
 650 001e 4AF21603 		movw	r3, #40982
 651 0022 C4F20003 		movt	r3, 16384
 652 0026 FA88     		ldrh	r2, [r7, #6]	@ movhi
 653 0028 1A80     		strh	r2, [r3, #0]	@ movhi
 424:.\Generated_Source\PSoC5/CAN.c **** 
ARM GAS  C:\Users\CHAIYA~1\AppData\Local\Temp\ccQBCuX6.s 			page 20


 425:.\Generated_Source\PSoC5/CAN.c ****         /* Verify that prescaler is set */
 426:.\Generated_Source\PSoC5/CAN.c ****         if (CY_GET_REG16((reg16 *) &CAN_CFG_REG.byte[2u]) == bitrate)
 654              		.loc 1 426 0
 655 002a 4AF21603 		movw	r3, #40982
 656 002e C4F20003 		movt	r3, 16384
 657 0032 1B88     		ldrh	r3, [r3, #0]	@ movhi
 658 0034 9BB2     		uxth	r3, r3
 659 0036 FA88     		ldrh	r2, [r7, #6]
 660 0038 9A42     		cmp	r2, r3
 661 003a 02D1     		bne	.L30
 427:.\Generated_Source\PSoC5/CAN.c ****         {
 428:.\Generated_Source\PSoC5/CAN.c ****             result = CYRET_SUCCESS;
 662              		.loc 1 428 0
 663 003c 4FF00003 		mov	r3, #0
 664 0040 FB73     		strb	r3, [r7, #15]
 665              	.L30:
 429:.\Generated_Source\PSoC5/CAN.c ****         }
 430:.\Generated_Source\PSoC5/CAN.c ****     }
 431:.\Generated_Source\PSoC5/CAN.c **** 
 432:.\Generated_Source\PSoC5/CAN.c ****     return (result);
 666              		.loc 1 432 0
 667 0042 FB7B     		ldrb	r3, [r7, #15]	@ zero_extendqisi2
 433:.\Generated_Source\PSoC5/CAN.c **** }
 668              		.loc 1 433 0
 669 0044 1846     		mov	r0, r3
 670 0046 07F11407 		add	r7, r7, #20
 671 004a BD46     		mov	sp, r7
 672 004c 80BC     		pop	{r7}
 673 004e 7047     		bx	lr
 674              		.cfi_endproc
 675              	.LFE6:
 676              		.size	CAN_SetPreScaler, .-CAN_SetPreScaler
 677              		.section	.text.CAN_SetArbiter,"ax",%progbits
 678              		.align	2
 679              		.global	CAN_SetArbiter
 680              		.thumb
 681              		.thumb_func
 682              		.type	CAN_SetArbiter, %function
 683              	CAN_SetArbiter:
 684              	.LFB7:
 434:.\Generated_Source\PSoC5/CAN.c **** 
 435:.\Generated_Source\PSoC5/CAN.c **** 
 436:.\Generated_Source\PSoC5/CAN.c **** /*******************************************************************************
 437:.\Generated_Source\PSoC5/CAN.c **** * FUNCTION NAME:   CAN_SetArbiter
 438:.\Generated_Source\PSoC5/CAN.c **** ********************************************************************************
 439:.\Generated_Source\PSoC5/CAN.c **** *
 440:.\Generated_Source\PSoC5/CAN.c **** * Summary:
 441:.\Generated_Source\PSoC5/CAN.c **** *  This function sets arbitration type for transmit mailboxes. Types of
 442:.\Generated_Source\PSoC5/CAN.c **** *  arbiters are Round Robin and Fixed priority. Value 0 and 1 are valid.
 443:.\Generated_Source\PSoC5/CAN.c **** *
 444:.\Generated_Source\PSoC5/CAN.c **** * Parameters:
 445:.\Generated_Source\PSoC5/CAN.c **** *  arbiter: Arbitaration type for transmit mailboxes.
 446:.\Generated_Source\PSoC5/CAN.c **** *   Value                              Description
 447:.\Generated_Source\PSoC5/CAN.c **** *    CAN_ROUND_ROBIN       Round robin arbitration
 448:.\Generated_Source\PSoC5/CAN.c **** *    CAN_FIXED_PRIORITY    Fixed priority arbitration.
 449:.\Generated_Source\PSoC5/CAN.c **** *
 450:.\Generated_Source\PSoC5/CAN.c **** * Return:
ARM GAS  C:\Users\CHAIYA~1\AppData\Local\Temp\ccQBCuX6.s 			page 21


 451:.\Generated_Source\PSoC5/CAN.c **** *  Indication whether register is written and verified.
 452:.\Generated_Source\PSoC5/CAN.c **** *   Define                             Description
 453:.\Generated_Source\PSoC5/CAN.c **** *    CYRET_SUCCESS                      Function passed successfully
 454:.\Generated_Source\PSoC5/CAN.c **** *    CAN_FAIL              Function failed
 455:.\Generated_Source\PSoC5/CAN.c **** *
 456:.\Generated_Source\PSoC5/CAN.c **** *******************************************************************************/
 457:.\Generated_Source\PSoC5/CAN.c **** uint8 CAN_SetArbiter(uint8 arbiter) 
 458:.\Generated_Source\PSoC5/CAN.c **** {
 685              		.loc 1 458 0
 686              		.cfi_startproc
 687              		@ args = 0, pretend = 0, frame = 16
 688              		@ frame_needed = 1, uses_anonymous_args = 0
 689              		@ link register save eliminated.
 690 0000 80B4     		push	{r7}
 691              	.LCFI21:
 692              		.cfi_def_cfa_offset 4
 693              		.cfi_offset 7, -4
 694 0002 85B0     		sub	sp, sp, #20
 695              	.LCFI22:
 696              		.cfi_def_cfa_offset 24
 697 0004 00AF     		add	r7, sp, #0
 698              	.LCFI23:
 699              		.cfi_def_cfa_register 7
 700 0006 0346     		mov	r3, r0
 701 0008 FB71     		strb	r3, [r7, #7]
 459:.\Generated_Source\PSoC5/CAN.c ****     uint8 result = CAN_FAIL;
 702              		.loc 1 459 0
 703 000a 4FF00103 		mov	r3, #1
 704 000e FB73     		strb	r3, [r7, #15]
 460:.\Generated_Source\PSoC5/CAN.c **** 
 461:.\Generated_Source\PSoC5/CAN.c ****     if (arbiter == CAN_ROUND_ROBIN)
 705              		.loc 1 461 0
 706 0010 FB79     		ldrb	r3, [r7, #7]	@ zero_extendqisi2
 707 0012 002B     		cmp	r3, #0
 708 0014 1BD1     		bne	.L33
 462:.\Generated_Source\PSoC5/CAN.c ****     {
 463:.\Generated_Source\PSoC5/CAN.c ****         CAN_CFG_REG.byte[1u] &= (uint8) (~CAN_ARBITRATION_MASK);    /* Round Robin */
 709              		.loc 1 463 0
 710 0016 4AF21403 		movw	r3, #40980
 711 001a C4F20003 		movt	r3, 16384
 712 001e 4AF21402 		movw	r2, #40980
 713 0022 C4F20002 		movt	r2, 16384
 714 0026 5278     		ldrb	r2, [r2, #1]
 715 0028 D2B2     		uxtb	r2, r2
 716 002a 22F01002 		bic	r2, r2, #16
 717 002e D2B2     		uxtb	r2, r2
 718 0030 5A70     		strb	r2, [r3, #1]
 464:.\Generated_Source\PSoC5/CAN.c **** 
 465:.\Generated_Source\PSoC5/CAN.c ****         /* Verify that bit is cleared */
 466:.\Generated_Source\PSoC5/CAN.c ****         if ((CAN_CFG_REG.byte[1u] & CAN_ARBITRATION_MASK) == 0u)
 719              		.loc 1 466 0
 720 0032 4AF21403 		movw	r3, #40980
 721 0036 C4F20003 		movt	r3, 16384
 722 003a 5B78     		ldrb	r3, [r3, #1]
 723 003c DBB2     		uxtb	r3, r3
 724 003e 03F01003 		and	r3, r3, #16
 725 0042 002B     		cmp	r3, #0
ARM GAS  C:\Users\CHAIYA~1\AppData\Local\Temp\ccQBCuX6.s 			page 22


 726 0044 1ED1     		bne	.L34
 467:.\Generated_Source\PSoC5/CAN.c ****         {
 468:.\Generated_Source\PSoC5/CAN.c ****             result = CYRET_SUCCESS;
 727              		.loc 1 468 0
 728 0046 4FF00003 		mov	r3, #0
 729 004a FB73     		strb	r3, [r7, #15]
 730 004c 1AE0     		b	.L34
 731              	.L33:
 469:.\Generated_Source\PSoC5/CAN.c ****         }        
 470:.\Generated_Source\PSoC5/CAN.c ****     }
 471:.\Generated_Source\PSoC5/CAN.c ****     else
 472:.\Generated_Source\PSoC5/CAN.c ****     {
 473:.\Generated_Source\PSoC5/CAN.c ****         CAN_CFG_REG.byte[1u] |= CAN_ARBITRATION_MASK;    /* Fixed priority */
 732              		.loc 1 473 0
 733 004e 4AF21403 		movw	r3, #40980
 734 0052 C4F20003 		movt	r3, 16384
 735 0056 4AF21402 		movw	r2, #40980
 736 005a C4F20002 		movt	r2, 16384
 737 005e 5278     		ldrb	r2, [r2, #1]
 738 0060 D2B2     		uxtb	r2, r2
 739 0062 42F01002 		orr	r2, r2, #16
 740 0066 D2B2     		uxtb	r2, r2
 741 0068 5A70     		strb	r2, [r3, #1]
 474:.\Generated_Source\PSoC5/CAN.c **** 
 475:.\Generated_Source\PSoC5/CAN.c ****         /* Verify that bit is set */
 476:.\Generated_Source\PSoC5/CAN.c ****         if ((CAN_CFG_REG.byte[1u] & CAN_ARBITRATION_MASK) ==
 742              		.loc 1 476 0
 743 006a 4AF21403 		movw	r3, #40980
 744 006e C4F20003 		movt	r3, 16384
 745 0072 5B78     		ldrb	r3, [r3, #1]
 746 0074 DBB2     		uxtb	r3, r3
 747 0076 03F01003 		and	r3, r3, #16
 748 007a 002B     		cmp	r3, #0
 749 007c 02D0     		beq	.L34
 477:.\Generated_Source\PSoC5/CAN.c ****             CAN_ARBITRATION_MASK)
 478:.\Generated_Source\PSoC5/CAN.c ****         {
 479:.\Generated_Source\PSoC5/CAN.c ****             result = CYRET_SUCCESS;
 750              		.loc 1 479 0
 751 007e 4FF00003 		mov	r3, #0
 752 0082 FB73     		strb	r3, [r7, #15]
 753              	.L34:
 480:.\Generated_Source\PSoC5/CAN.c ****         }
 481:.\Generated_Source\PSoC5/CAN.c ****     }
 482:.\Generated_Source\PSoC5/CAN.c **** 
 483:.\Generated_Source\PSoC5/CAN.c ****     return (result);
 754              		.loc 1 483 0
 755 0084 FB7B     		ldrb	r3, [r7, #15]	@ zero_extendqisi2
 484:.\Generated_Source\PSoC5/CAN.c **** }
 756              		.loc 1 484 0
 757 0086 1846     		mov	r0, r3
 758 0088 07F11407 		add	r7, r7, #20
 759 008c BD46     		mov	sp, r7
 760 008e 80BC     		pop	{r7}
 761 0090 7047     		bx	lr
 762              		.cfi_endproc
 763              	.LFE7:
 764              		.size	CAN_SetArbiter, .-CAN_SetArbiter
ARM GAS  C:\Users\CHAIYA~1\AppData\Local\Temp\ccQBCuX6.s 			page 23


 765 0092 00BF     		.section	.text.CAN_SetTsegSample,"ax",%progbits
 766              		.align	2
 767              		.global	CAN_SetTsegSample
 768              		.thumb
 769              		.thumb_func
 770              		.type	CAN_SetTsegSample, %function
 771              	CAN_SetTsegSample:
 772              	.LFB8:
 485:.\Generated_Source\PSoC5/CAN.c **** 
 486:.\Generated_Source\PSoC5/CAN.c **** 
 487:.\Generated_Source\PSoC5/CAN.c **** /*******************************************************************************
 488:.\Generated_Source\PSoC5/CAN.c **** * FUNCTION NAME: CAN_SetTsegSample
 489:.\Generated_Source\PSoC5/CAN.c **** ********************************************************************************
 490:.\Generated_Source\PSoC5/CAN.c **** *
 491:.\Generated_Source\PSoC5/CAN.c **** * Summary:
 492:.\Generated_Source\PSoC5/CAN.c **** *  This function configures: Time segment 1, Time segment 2, Sampling Mode
 493:.\Generated_Source\PSoC5/CAN.c **** *  and Synchronization Jump Width.
 494:.\Generated_Source\PSoC5/CAN.c **** *
 495:.\Generated_Source\PSoC5/CAN.c **** * Parameters:
 496:.\Generated_Source\PSoC5/CAN.c **** *  cfgTseg1: Length of time segment 1, value between 0x2 and 0xF are valid;
 497:.\Generated_Source\PSoC5/CAN.c **** *  cfgTseg2: Length of time segment 2, value between 0x1 and 0x7 are valid;
 498:.\Generated_Source\PSoC5/CAN.c **** *  sjw: Synchronization Jump Width, value between 0x0 and 0x3 are valid;
 499:.\Generated_Source\PSoC5/CAN.c **** *  sm: Sampling Mode.
 500:.\Generated_Source\PSoC5/CAN.c **** *   Define                               Description
 501:.\Generated_Source\PSoC5/CAN.c **** *   CAN_ONE_SAMPLE_POINT     one sampling points is used
 502:.\Generated_Source\PSoC5/CAN.c **** *   CAN_THREE_SAMPLE_POINTS  three sampling points are used
 503:.\Generated_Source\PSoC5/CAN.c **** *
 504:.\Generated_Source\PSoC5/CAN.c **** * Return:
 505:.\Generated_Source\PSoC5/CAN.c **** *  Indication whether register is written and verified.
 506:.\Generated_Source\PSoC5/CAN.c **** *   Define                             Description
 507:.\Generated_Source\PSoC5/CAN.c **** *    CYRET_SUCCESS                      Function passed successfully
 508:.\Generated_Source\PSoC5/CAN.c **** *    CAN_FAIL              Function failed
 509:.\Generated_Source\PSoC5/CAN.c **** *    CAN_OUT_OF_RANGE      Function parameter is out of range
 510:.\Generated_Source\PSoC5/CAN.c **** *
 511:.\Generated_Source\PSoC5/CAN.c **** *******************************************************************************/
 512:.\Generated_Source\PSoC5/CAN.c **** uint8 CAN_SetTsegSample(uint8 cfgTseg1, uint8 cfgTseg2, uint8 sjw, uint8 sm)
 513:.\Generated_Source\PSoC5/CAN.c ****                                      
 514:.\Generated_Source\PSoC5/CAN.c **** {
 773              		.loc 1 514 0
 774              		.cfi_startproc
 775              		@ args = 0, pretend = 0, frame = 16
 776              		@ frame_needed = 1, uses_anonymous_args = 0
 777              		@ link register save eliminated.
 778 0000 80B4     		push	{r7}
 779              	.LCFI24:
 780              		.cfi_def_cfa_offset 4
 781              		.cfi_offset 7, -4
 782 0002 85B0     		sub	sp, sp, #20
 783              	.LCFI25:
 784              		.cfi_def_cfa_offset 24
 785 0004 00AF     		add	r7, sp, #0
 786              	.LCFI26:
 787              		.cfi_def_cfa_register 7
 788 0006 F871     		strb	r0, [r7, #7]
 789 0008 B971     		strb	r1, [r7, #6]
 790 000a 7A71     		strb	r2, [r7, #5]
 791 000c 3B71     		strb	r3, [r7, #4]
ARM GAS  C:\Users\CHAIYA~1\AppData\Local\Temp\ccQBCuX6.s 			page 24


 515:.\Generated_Source\PSoC5/CAN.c ****     uint8 result = CAN_OUT_OF_RANGE;
 792              		.loc 1 515 0
 793 000e 4FF00203 		mov	r3, #2
 794 0012 FB73     		strb	r3, [r7, #15]
 516:.\Generated_Source\PSoC5/CAN.c ****     uint8 cfgTemp;
 517:.\Generated_Source\PSoC5/CAN.c **** 
 518:.\Generated_Source\PSoC5/CAN.c ****     if ((cfgTseg1 >= CAN_CFG_REG_TSEG1_LOWER_LIMIT) && (cfgTseg1 <=
 795              		.loc 1 518 0
 796 0014 FB79     		ldrb	r3, [r7, #7]	@ zero_extendqisi2
 797 0016 012B     		cmp	r3, #1
 798 0018 61D9     		bls	.L37
 799              		.loc 1 518 0 is_stmt 0 discriminator 1
 800 001a FB79     		ldrb	r3, [r7, #7]	@ zero_extendqisi2
 801 001c 0F2B     		cmp	r3, #15
 802 001e 5ED8     		bhi	.L37
 519:.\Generated_Source\PSoC5/CAN.c ****          CAN_CFG_REG_TSEG1_UPPER_LIMIT))
 520:.\Generated_Source\PSoC5/CAN.c ****     {
 521:.\Generated_Source\PSoC5/CAN.c ****         if (((cfgTseg2 >= CAN_CFG_REG_TSEG2_LOWER_LIMIT) &&
 803              		.loc 1 521 0 is_stmt 1
 804 0020 BB79     		ldrb	r3, [r7, #6]	@ zero_extendqisi2
 805 0022 012B     		cmp	r3, #1
 806 0024 02D9     		bls	.L38
 807              		.loc 1 521 0 is_stmt 0 discriminator 1
 808 0026 BB79     		ldrb	r3, [r7, #6]	@ zero_extendqisi2
 809 0028 072B     		cmp	r3, #7
 810 002a 05D9     		bls	.L39
 811              	.L38:
 522:.\Generated_Source\PSoC5/CAN.c ****              (cfgTseg2 <= CAN_CFG_REG_TSEG2_UPPER_LIMIT)) || ((sm == CAN_ONE_SAMPLE_POINT) &&
 812              		.loc 1 522 0 is_stmt 1
 813 002c 3B79     		ldrb	r3, [r7, #4]	@ zero_extendqisi2
 814 002e 002B     		cmp	r3, #0
 815 0030 55D1     		bne	.L37
 816              		.loc 1 522 0 is_stmt 0 discriminator 1
 817 0032 BB79     		ldrb	r3, [r7, #6]	@ zero_extendqisi2
 818 0034 012B     		cmp	r3, #1
 819 0036 52D1     		bne	.L37
 820              	.L39:
 523:.\Generated_Source\PSoC5/CAN.c ****              (cfgTseg2 == CAN_CFG_REG_TSEG2_EXCEPTION)))
 524:.\Generated_Source\PSoC5/CAN.c ****         {
 525:.\Generated_Source\PSoC5/CAN.c ****             if ((sjw <= CAN_CFG_REG_SJW_LOWER_LIMIT) && (sjw <= cfgTseg1) && (sjw <= cfgTseg2))
 821              		.loc 1 525 0 is_stmt 1
 822 0038 7B79     		ldrb	r3, [r7, #5]	@ zero_extendqisi2
 823 003a 032B     		cmp	r3, #3
 824 003c 4FD8     		bhi	.L37
 825              		.loc 1 525 0 is_stmt 0 discriminator 1
 826 003e 7A79     		ldrb	r2, [r7, #5]	@ zero_extendqisi2
 827 0040 FB79     		ldrb	r3, [r7, #7]	@ zero_extendqisi2
 828 0042 9A42     		cmp	r2, r3
 829 0044 4BD8     		bhi	.L37
 830 0046 7A79     		ldrb	r2, [r7, #5]	@ zero_extendqisi2
 831 0048 BB79     		ldrb	r3, [r7, #6]	@ zero_extendqisi2
 832 004a 9A42     		cmp	r2, r3
 833 004c 47D8     		bhi	.L37
 526:.\Generated_Source\PSoC5/CAN.c ****             {
 527:.\Generated_Source\PSoC5/CAN.c ****                 result = CAN_FAIL;
 834              		.loc 1 527 0 is_stmt 1
 835 004e 4FF00103 		mov	r3, #1
ARM GAS  C:\Users\CHAIYA~1\AppData\Local\Temp\ccQBCuX6.s 			page 25


 836 0052 FB73     		strb	r3, [r7, #15]
 528:.\Generated_Source\PSoC5/CAN.c **** 
 529:.\Generated_Source\PSoC5/CAN.c ****                 cfgTemp = CAN_CFG_REG.byte[1];
 837              		.loc 1 529 0
 838 0054 4AF21403 		movw	r3, #40980
 839 0058 C4F20003 		movt	r3, 16384
 840 005c 5B78     		ldrb	r3, [r3, #1]
 841 005e BB73     		strb	r3, [r7, #14]
 530:.\Generated_Source\PSoC5/CAN.c ****                 cfgTemp &= (uint8) (~CAN_CFG_REG_TSEG1_MASK);
 842              		.loc 1 530 0
 843 0060 BB7B     		ldrb	r3, [r7, #14]
 844 0062 23F00F03 		bic	r3, r3, #15
 845 0066 BB73     		strb	r3, [r7, #14]
 531:.\Generated_Source\PSoC5/CAN.c ****                 cfgTemp |= cfgTseg1;
 846              		.loc 1 531 0
 847 0068 BA7B     		ldrb	r2, [r7, #14]
 848 006a FB79     		ldrb	r3, [r7, #7]
 849 006c 1343     		orrs	r3, r3, r2
 850 006e BB73     		strb	r3, [r7, #14]
 532:.\Generated_Source\PSoC5/CAN.c **** 
 533:.\Generated_Source\PSoC5/CAN.c ****                 /* write register byte 1 */
 534:.\Generated_Source\PSoC5/CAN.c ****                 CAN_CFG_REG.byte[1u] = cfgTemp;
 851              		.loc 1 534 0
 852 0070 4AF21403 		movw	r3, #40980
 853 0074 C4F20003 		movt	r3, 16384
 854 0078 BA7B     		ldrb	r2, [r7, #14]
 855 007a 5A70     		strb	r2, [r3, #1]
 535:.\Generated_Source\PSoC5/CAN.c **** 
 536:.\Generated_Source\PSoC5/CAN.c ****                 /* Verify 2nd byte of CAN_CFG_REG register */
 537:.\Generated_Source\PSoC5/CAN.c ****                 if (CAN_CFG_REG.byte[1u] == cfgTemp)
 856              		.loc 1 537 0
 857 007c 4AF21403 		movw	r3, #40980
 858 0080 C4F20003 		movt	r3, 16384
 859 0084 5B78     		ldrb	r3, [r3, #1]
 860 0086 DBB2     		uxtb	r3, r3
 861 0088 BA7B     		ldrb	r2, [r7, #14]	@ zero_extendqisi2
 862 008a 9A42     		cmp	r2, r3
 863 008c 27D1     		bne	.L37
 538:.\Generated_Source\PSoC5/CAN.c ****                 {
 539:.\Generated_Source\PSoC5/CAN.c ****                     cfgTemp = 0u;
 864              		.loc 1 539 0
 865 008e 4FF00003 		mov	r3, #0
 866 0092 BB73     		strb	r3, [r7, #14]
 540:.\Generated_Source\PSoC5/CAN.c ****                     /* Set appropriate bits */
 541:.\Generated_Source\PSoC5/CAN.c ****                     if (sm != CAN_ONE_SAMPLE_POINT)
 867              		.loc 1 541 0
 868 0094 3B79     		ldrb	r3, [r7, #4]	@ zero_extendqisi2
 869 0096 002B     		cmp	r3, #0
 870 0098 02D0     		beq	.L40
 542:.\Generated_Source\PSoC5/CAN.c ****                     {
 543:.\Generated_Source\PSoC5/CAN.c ****                         cfgTemp = CAN_SAMPLE_MODE_MASK;
 871              		.loc 1 543 0
 872 009a 4FF00203 		mov	r3, #2
 873 009e BB73     		strb	r3, [r7, #14]
 874              	.L40:
 544:.\Generated_Source\PSoC5/CAN.c ****                     }
 545:.\Generated_Source\PSoC5/CAN.c ****                     cfgTemp |= ((uint8) (cfgTseg2 << CAN_CFG_REG_TSEG2_SHIFT)) |
ARM GAS  C:\Users\CHAIYA~1\AppData\Local\Temp\ccQBCuX6.s 			page 26


 875              		.loc 1 545 0
 876 00a0 BB79     		ldrb	r3, [r7, #6]
 877 00a2 4FEA4313 		lsl	r3, r3, #5
 878 00a6 DAB2     		uxtb	r2, r3
 546:.\Generated_Source\PSoC5/CAN.c ****                                ((uint8) (sjw << CAN_CFG_REG_SJW_SHIFT));
 879              		.loc 1 546 0
 880 00a8 7B79     		ldrb	r3, [r7, #5]
 881 00aa 4FEA8303 		lsl	r3, r3, #2
 882 00ae DBB2     		uxtb	r3, r3
 545:.\Generated_Source\PSoC5/CAN.c ****                     cfgTemp |= ((uint8) (cfgTseg2 << CAN_CFG_REG_TSEG2_SHIFT)) |
 883              		.loc 1 545 0
 884 00b0 1343     		orrs	r3, r3, r2
 885 00b2 DAB2     		uxtb	r2, r3
 886 00b4 BB7B     		ldrb	r3, [r7, #14]
 887 00b6 1343     		orrs	r3, r3, r2
 888 00b8 BB73     		strb	r3, [r7, #14]
 547:.\Generated_Source\PSoC5/CAN.c **** 
 548:.\Generated_Source\PSoC5/CAN.c ****                     /* write register byte 0 */
 549:.\Generated_Source\PSoC5/CAN.c ****                     CAN_CFG_REG.byte[0u] = cfgTemp;
 889              		.loc 1 549 0
 890 00ba 4AF21403 		movw	r3, #40980
 891 00be C4F20003 		movt	r3, 16384
 892 00c2 BA7B     		ldrb	r2, [r7, #14]
 893 00c4 1A70     		strb	r2, [r3, #0]
 550:.\Generated_Source\PSoC5/CAN.c **** 
 551:.\Generated_Source\PSoC5/CAN.c ****                     /* Verify 1st byte of CAN_CFG_REG register */
 552:.\Generated_Source\PSoC5/CAN.c ****                     if (CAN_CFG_REG.byte[0u] == cfgTemp)
 894              		.loc 1 552 0
 895 00c6 4AF21403 		movw	r3, #40980
 896 00ca C4F20003 		movt	r3, 16384
 897 00ce 1B78     		ldrb	r3, [r3, #0]
 898 00d0 DBB2     		uxtb	r3, r3
 899 00d2 BA7B     		ldrb	r2, [r7, #14]	@ zero_extendqisi2
 900 00d4 9A42     		cmp	r2, r3
 901 00d6 02D1     		bne	.L37
 553:.\Generated_Source\PSoC5/CAN.c ****                     {
 554:.\Generated_Source\PSoC5/CAN.c ****                         result = CYRET_SUCCESS;
 902              		.loc 1 554 0
 903 00d8 4FF00003 		mov	r3, #0
 904 00dc FB73     		strb	r3, [r7, #15]
 905              	.L37:
 555:.\Generated_Source\PSoC5/CAN.c ****                     }
 556:.\Generated_Source\PSoC5/CAN.c ****                 }
 557:.\Generated_Source\PSoC5/CAN.c ****             }
 558:.\Generated_Source\PSoC5/CAN.c ****         }
 559:.\Generated_Source\PSoC5/CAN.c ****     }
 560:.\Generated_Source\PSoC5/CAN.c **** 
 561:.\Generated_Source\PSoC5/CAN.c ****     return (result);
 906              		.loc 1 561 0
 907 00de FB7B     		ldrb	r3, [r7, #15]	@ zero_extendqisi2
 562:.\Generated_Source\PSoC5/CAN.c **** }
 908              		.loc 1 562 0
 909 00e0 1846     		mov	r0, r3
 910 00e2 07F11407 		add	r7, r7, #20
 911 00e6 BD46     		mov	sp, r7
 912 00e8 80BC     		pop	{r7}
 913 00ea 7047     		bx	lr
ARM GAS  C:\Users\CHAIYA~1\AppData\Local\Temp\ccQBCuX6.s 			page 27


 914              		.cfi_endproc
 915              	.LFE8:
 916              		.size	CAN_SetTsegSample, .-CAN_SetTsegSample
 917              		.section	.text.CAN_SetRestartType,"ax",%progbits
 918              		.align	2
 919              		.global	CAN_SetRestartType
 920              		.thumb
 921              		.thumb_func
 922              		.type	CAN_SetRestartType, %function
 923              	CAN_SetRestartType:
 924              	.LFB9:
 563:.\Generated_Source\PSoC5/CAN.c **** 
 564:.\Generated_Source\PSoC5/CAN.c **** 
 565:.\Generated_Source\PSoC5/CAN.c **** /*******************************************************************************
 566:.\Generated_Source\PSoC5/CAN.c **** * FUNCTION NAME:   CAN_SetRestartType
 567:.\Generated_Source\PSoC5/CAN.c **** ********************************************************************************
 568:.\Generated_Source\PSoC5/CAN.c **** *
 569:.\Generated_Source\PSoC5/CAN.c **** * Summary:
 570:.\Generated_Source\PSoC5/CAN.c **** *  This function sets Reset type. Types of Reset are Automatic and Manual.
 571:.\Generated_Source\PSoC5/CAN.c **** *  Manual Reset is recommended setting.
 572:.\Generated_Source\PSoC5/CAN.c **** *
 573:.\Generated_Source\PSoC5/CAN.c **** * Parameters:
 574:.\Generated_Source\PSoC5/CAN.c **** *  reset: Reset Type.
 575:.\Generated_Source\PSoC5/CAN.c **** *   Define                             Description
 576:.\Generated_Source\PSoC5/CAN.c **** *    CAN_MANUAL_RESTART    After bus-off, the CAN must be restarted
 577:.\Generated_Source\PSoC5/CAN.c **** *                                       by hand. This is the recommended 
 578:.\Generated_Source\PSoC5/CAN.c **** *                                       setting.
 579:.\Generated_Source\PSoC5/CAN.c **** *    CAN_AUTO_RESTART      After bus-off, the CAN is restarting 
 580:.\Generated_Source\PSoC5/CAN.c **** *                                       automatically after 128 groups of 11 
 581:.\Generated_Source\PSoC5/CAN.c **** *                                       recessive bits.
 582:.\Generated_Source\PSoC5/CAN.c **** *
 583:.\Generated_Source\PSoC5/CAN.c **** * Return:
 584:.\Generated_Source\PSoC5/CAN.c **** *  Indication whether register is written and verified.
 585:.\Generated_Source\PSoC5/CAN.c **** *   Define                             Description
 586:.\Generated_Source\PSoC5/CAN.c **** *    CYRET_SUCCESS                      Function passed successfully
 587:.\Generated_Source\PSoC5/CAN.c **** *    CAN_FAIL              Function failed
 588:.\Generated_Source\PSoC5/CAN.c **** *
 589:.\Generated_Source\PSoC5/CAN.c **** *******************************************************************************/
 590:.\Generated_Source\PSoC5/CAN.c **** uint8 CAN_SetRestartType(uint8 reset) 
 591:.\Generated_Source\PSoC5/CAN.c **** {
 925              		.loc 1 591 0
 926              		.cfi_startproc
 927              		@ args = 0, pretend = 0, frame = 16
 928              		@ frame_needed = 1, uses_anonymous_args = 0
 929              		@ link register save eliminated.
 930 0000 80B4     		push	{r7}
 931              	.LCFI27:
 932              		.cfi_def_cfa_offset 4
 933              		.cfi_offset 7, -4
 934 0002 85B0     		sub	sp, sp, #20
 935              	.LCFI28:
 936              		.cfi_def_cfa_offset 24
 937 0004 00AF     		add	r7, sp, #0
 938              	.LCFI29:
 939              		.cfi_def_cfa_register 7
 940 0006 0346     		mov	r3, r0
 941 0008 FB71     		strb	r3, [r7, #7]
ARM GAS  C:\Users\CHAIYA~1\AppData\Local\Temp\ccQBCuX6.s 			page 28


 592:.\Generated_Source\PSoC5/CAN.c ****     uint8 result = CAN_FAIL;
 942              		.loc 1 592 0
 943 000a 4FF00103 		mov	r3, #1
 944 000e FB73     		strb	r3, [r7, #15]
 593:.\Generated_Source\PSoC5/CAN.c **** 
 594:.\Generated_Source\PSoC5/CAN.c ****     if (reset == CAN_RESTART_BY_HAND)
 945              		.loc 1 594 0
 946 0010 FB79     		ldrb	r3, [r7, #7]	@ zero_extendqisi2
 947 0012 002B     		cmp	r3, #0
 948 0014 1BD1     		bne	.L43
 595:.\Generated_Source\PSoC5/CAN.c ****     {
 596:.\Generated_Source\PSoC5/CAN.c ****         CAN_CFG_REG.byte[0u] &= (uint8) (~CAN_RESET_MASK);   /* Manual reset */
 949              		.loc 1 596 0
 950 0016 4AF21403 		movw	r3, #40980
 951 001a C4F20003 		movt	r3, 16384
 952 001e 4AF21402 		movw	r2, #40980
 953 0022 C4F20002 		movt	r2, 16384
 954 0026 1278     		ldrb	r2, [r2, #0]
 955 0028 D2B2     		uxtb	r2, r2
 956 002a 22F01002 		bic	r2, r2, #16
 957 002e D2B2     		uxtb	r2, r2
 958 0030 1A70     		strb	r2, [r3, #0]
 597:.\Generated_Source\PSoC5/CAN.c **** 
 598:.\Generated_Source\PSoC5/CAN.c ****         /* Verify that bit is cleared */
 599:.\Generated_Source\PSoC5/CAN.c ****         if ((CAN_CFG_REG.byte[0u] & CAN_RESET_MASK) == 0u)
 959              		.loc 1 599 0
 960 0032 4AF21403 		movw	r3, #40980
 961 0036 C4F20003 		movt	r3, 16384
 962 003a 1B78     		ldrb	r3, [r3, #0]
 963 003c DBB2     		uxtb	r3, r3
 964 003e 03F01003 		and	r3, r3, #16
 965 0042 002B     		cmp	r3, #0
 966 0044 1ED1     		bne	.L44
 600:.\Generated_Source\PSoC5/CAN.c ****         {
 601:.\Generated_Source\PSoC5/CAN.c ****             result = CYRET_SUCCESS;
 967              		.loc 1 601 0
 968 0046 4FF00003 		mov	r3, #0
 969 004a FB73     		strb	r3, [r7, #15]
 970 004c 1AE0     		b	.L44
 971              	.L43:
 602:.\Generated_Source\PSoC5/CAN.c ****         }
 603:.\Generated_Source\PSoC5/CAN.c ****     }
 604:.\Generated_Source\PSoC5/CAN.c ****     else
 605:.\Generated_Source\PSoC5/CAN.c ****     {
 606:.\Generated_Source\PSoC5/CAN.c ****         CAN_CFG_REG.byte[0u] |= CAN_RESET_MASK;    /* Automatic restart */
 972              		.loc 1 606 0
 973 004e 4AF21403 		movw	r3, #40980
 974 0052 C4F20003 		movt	r3, 16384
 975 0056 4AF21402 		movw	r2, #40980
 976 005a C4F20002 		movt	r2, 16384
 977 005e 1278     		ldrb	r2, [r2, #0]
 978 0060 D2B2     		uxtb	r2, r2
 979 0062 42F01002 		orr	r2, r2, #16
 980 0066 D2B2     		uxtb	r2, r2
 981 0068 1A70     		strb	r2, [r3, #0]
 607:.\Generated_Source\PSoC5/CAN.c **** 
 608:.\Generated_Source\PSoC5/CAN.c ****         /* Verify that bit is set */
ARM GAS  C:\Users\CHAIYA~1\AppData\Local\Temp\ccQBCuX6.s 			page 29


 609:.\Generated_Source\PSoC5/CAN.c ****         if ((CAN_CFG_REG.byte[0u] & CAN_RESET_MASK) == CAN_RESET_MASK)
 982              		.loc 1 609 0
 983 006a 4AF21403 		movw	r3, #40980
 984 006e C4F20003 		movt	r3, 16384
 985 0072 1B78     		ldrb	r3, [r3, #0]
 986 0074 DBB2     		uxtb	r3, r3
 987 0076 03F01003 		and	r3, r3, #16
 988 007a 002B     		cmp	r3, #0
 989 007c 02D0     		beq	.L44
 610:.\Generated_Source\PSoC5/CAN.c ****         {
 611:.\Generated_Source\PSoC5/CAN.c ****             result = CYRET_SUCCESS;
 990              		.loc 1 611 0
 991 007e 4FF00003 		mov	r3, #0
 992 0082 FB73     		strb	r3, [r7, #15]
 993              	.L44:
 612:.\Generated_Source\PSoC5/CAN.c ****         }
 613:.\Generated_Source\PSoC5/CAN.c ****     }
 614:.\Generated_Source\PSoC5/CAN.c **** 
 615:.\Generated_Source\PSoC5/CAN.c ****     return (result);
 994              		.loc 1 615 0
 995 0084 FB7B     		ldrb	r3, [r7, #15]	@ zero_extendqisi2
 616:.\Generated_Source\PSoC5/CAN.c **** }
 996              		.loc 1 616 0
 997 0086 1846     		mov	r0, r3
 998 0088 07F11407 		add	r7, r7, #20
 999 008c BD46     		mov	sp, r7
 1000 008e 80BC     		pop	{r7}
 1001 0090 7047     		bx	lr
 1002              		.cfi_endproc
 1003              	.LFE9:
 1004              		.size	CAN_SetRestartType, .-CAN_SetRestartType
 1005 0092 00BF     		.section	.text.CAN_SetEdgeMode,"ax",%progbits
 1006              		.align	2
 1007              		.global	CAN_SetEdgeMode
 1008              		.thumb
 1009              		.thumb_func
 1010              		.type	CAN_SetEdgeMode, %function
 1011              	CAN_SetEdgeMode:
 1012              	.LFB10:
 617:.\Generated_Source\PSoC5/CAN.c **** 
 618:.\Generated_Source\PSoC5/CAN.c **** 
 619:.\Generated_Source\PSoC5/CAN.c **** /*******************************************************************************
 620:.\Generated_Source\PSoC5/CAN.c **** * FUNCTION NAME:   CAN_SetEdgeMode
 621:.\Generated_Source\PSoC5/CAN.c **** ********************************************************************************
 622:.\Generated_Source\PSoC5/CAN.c **** *
 623:.\Generated_Source\PSoC5/CAN.c **** * Summary:
 624:.\Generated_Source\PSoC5/CAN.c **** *  This function sets Edge Mode. Modes are 'R' to 'D'(Reccessive to Dominant)
 625:.\Generated_Source\PSoC5/CAN.c **** *  and Both edges are used.
 626:.\Generated_Source\PSoC5/CAN.c **** *
 627:.\Generated_Source\PSoC5/CAN.c **** * Parameters:
 628:.\Generated_Source\PSoC5/CAN.c **** *  edge: Edge Mode.
 629:.\Generated_Source\PSoC5/CAN.c **** *   Define                             Description
 630:.\Generated_Source\PSoC5/CAN.c **** *    CAN_EDGE_R_TO_D       Edge from R to D is used for 
 631:.\Generated_Source\PSoC5/CAN.c **** *                                       synchronization
 632:.\Generated_Source\PSoC5/CAN.c **** *    CAN_BOTH_EDGES        Both edges are used
 633:.\Generated_Source\PSoC5/CAN.c **** *
 634:.\Generated_Source\PSoC5/CAN.c **** * Return:
ARM GAS  C:\Users\CHAIYA~1\AppData\Local\Temp\ccQBCuX6.s 			page 30


 635:.\Generated_Source\PSoC5/CAN.c **** *  Indication whether register is written and verified.
 636:.\Generated_Source\PSoC5/CAN.c **** *   Define                             Description
 637:.\Generated_Source\PSoC5/CAN.c **** *    CYRET_SUCCESS                      Function passed successfully
 638:.\Generated_Source\PSoC5/CAN.c **** *    CAN_FAIL              Function failed
 639:.\Generated_Source\PSoC5/CAN.c **** *
 640:.\Generated_Source\PSoC5/CAN.c **** *******************************************************************************/
 641:.\Generated_Source\PSoC5/CAN.c **** uint8 CAN_SetEdgeMode(uint8 edge) 
 642:.\Generated_Source\PSoC5/CAN.c **** {
 1013              		.loc 1 642 0
 1014              		.cfi_startproc
 1015              		@ args = 0, pretend = 0, frame = 16
 1016              		@ frame_needed = 1, uses_anonymous_args = 0
 1017              		@ link register save eliminated.
 1018 0000 80B4     		push	{r7}
 1019              	.LCFI30:
 1020              		.cfi_def_cfa_offset 4
 1021              		.cfi_offset 7, -4
 1022 0002 85B0     		sub	sp, sp, #20
 1023              	.LCFI31:
 1024              		.cfi_def_cfa_offset 24
 1025 0004 00AF     		add	r7, sp, #0
 1026              	.LCFI32:
 1027              		.cfi_def_cfa_register 7
 1028 0006 0346     		mov	r3, r0
 1029 0008 FB71     		strb	r3, [r7, #7]
 643:.\Generated_Source\PSoC5/CAN.c ****     uint8 result = CAN_FAIL;
 1030              		.loc 1 643 0
 1031 000a 4FF00103 		mov	r3, #1
 1032 000e FB73     		strb	r3, [r7, #15]
 644:.\Generated_Source\PSoC5/CAN.c **** 
 645:.\Generated_Source\PSoC5/CAN.c ****     if (edge == CAN_EDGE_R_TO_D)
 1033              		.loc 1 645 0
 1034 0010 FB79     		ldrb	r3, [r7, #7]	@ zero_extendqisi2
 1035 0012 002B     		cmp	r3, #0
 1036 0014 1BD1     		bne	.L47
 646:.\Generated_Source\PSoC5/CAN.c ****     {
 647:.\Generated_Source\PSoC5/CAN.c ****         /* Recessive to Dominant is used for synchronization */
 648:.\Generated_Source\PSoC5/CAN.c ****         CAN_CFG_REG.byte[0u] &= (uint8) (~CAN_EDGE_MODE_MASK);
 1037              		.loc 1 648 0
 1038 0016 4AF21403 		movw	r3, #40980
 1039 001a C4F20003 		movt	r3, 16384
 1040 001e 4AF21402 		movw	r2, #40980
 1041 0022 C4F20002 		movt	r2, 16384
 1042 0026 1278     		ldrb	r2, [r2, #0]
 1043 0028 D2B2     		uxtb	r2, r2
 1044 002a 22F00102 		bic	r2, r2, #1
 1045 002e D2B2     		uxtb	r2, r2
 1046 0030 1A70     		strb	r2, [r3, #0]
 649:.\Generated_Source\PSoC5/CAN.c **** 
 650:.\Generated_Source\PSoC5/CAN.c ****         /* Verify that bit is cleared */
 651:.\Generated_Source\PSoC5/CAN.c ****         if ((CAN_CFG_REG.byte[0u] & CAN_EDGE_MODE_MASK) == 0u)
 1047              		.loc 1 651 0
 1048 0032 4AF21403 		movw	r3, #40980
 1049 0036 C4F20003 		movt	r3, 16384
 1050 003a 1B78     		ldrb	r3, [r3, #0]
 1051 003c DBB2     		uxtb	r3, r3
 1052 003e 03F00103 		and	r3, r3, #1
ARM GAS  C:\Users\CHAIYA~1\AppData\Local\Temp\ccQBCuX6.s 			page 31


 1053 0042 002B     		cmp	r3, #0
 1054 0044 1ED1     		bne	.L48
 652:.\Generated_Source\PSoC5/CAN.c ****         {
 653:.\Generated_Source\PSoC5/CAN.c ****             result = CYRET_SUCCESS;
 1055              		.loc 1 653 0
 1056 0046 4FF00003 		mov	r3, #0
 1057 004a FB73     		strb	r3, [r7, #15]
 1058 004c 1AE0     		b	.L48
 1059              	.L47:
 654:.\Generated_Source\PSoC5/CAN.c ****         }                      
 655:.\Generated_Source\PSoC5/CAN.c ****     }
 656:.\Generated_Source\PSoC5/CAN.c ****     else
 657:.\Generated_Source\PSoC5/CAN.c ****     {
 658:.\Generated_Source\PSoC5/CAN.c ****         /* Both edges are to be used */
 659:.\Generated_Source\PSoC5/CAN.c ****         CAN_CFG_REG.byte[0u] |= CAN_EDGE_MODE_MASK;
 1060              		.loc 1 659 0
 1061 004e 4AF21403 		movw	r3, #40980
 1062 0052 C4F20003 		movt	r3, 16384
 1063 0056 4AF21402 		movw	r2, #40980
 1064 005a C4F20002 		movt	r2, 16384
 1065 005e 1278     		ldrb	r2, [r2, #0]
 1066 0060 D2B2     		uxtb	r2, r2
 1067 0062 42F00102 		orr	r2, r2, #1
 1068 0066 D2B2     		uxtb	r2, r2
 1069 0068 1A70     		strb	r2, [r3, #0]
 660:.\Generated_Source\PSoC5/CAN.c **** 
 661:.\Generated_Source\PSoC5/CAN.c ****         /* Verify that bit is set */
 662:.\Generated_Source\PSoC5/CAN.c ****         if ((CAN_CFG_REG.byte[0u] & CAN_EDGE_MODE_MASK) == CAN_EDGE_MODE_MASK)
 1070              		.loc 1 662 0
 1071 006a 4AF21403 		movw	r3, #40980
 1072 006e C4F20003 		movt	r3, 16384
 1073 0072 1B78     		ldrb	r3, [r3, #0]
 1074 0074 DBB2     		uxtb	r3, r3
 1075 0076 03F00103 		and	r3, r3, #1
 1076 007a 002B     		cmp	r3, #0
 1077 007c 02D0     		beq	.L48
 663:.\Generated_Source\PSoC5/CAN.c ****         {
 664:.\Generated_Source\PSoC5/CAN.c ****             result = CYRET_SUCCESS;
 1078              		.loc 1 664 0
 1079 007e 4FF00003 		mov	r3, #0
 1080 0082 FB73     		strb	r3, [r7, #15]
 1081              	.L48:
 665:.\Generated_Source\PSoC5/CAN.c ****         }
 666:.\Generated_Source\PSoC5/CAN.c ****     }
 667:.\Generated_Source\PSoC5/CAN.c **** 
 668:.\Generated_Source\PSoC5/CAN.c ****     return (result);
 1082              		.loc 1 668 0
 1083 0084 FB7B     		ldrb	r3, [r7, #15]	@ zero_extendqisi2
 669:.\Generated_Source\PSoC5/CAN.c **** }
 1084              		.loc 1 669 0
 1085 0086 1846     		mov	r0, r3
 1086 0088 07F11407 		add	r7, r7, #20
 1087 008c BD46     		mov	sp, r7
 1088 008e 80BC     		pop	{r7}
 1089 0090 7047     		bx	lr
 1090              		.cfi_endproc
 1091              	.LFE10:
ARM GAS  C:\Users\CHAIYA~1\AppData\Local\Temp\ccQBCuX6.s 			page 32


 1092              		.size	CAN_SetEdgeMode, .-CAN_SetEdgeMode
 1093 0092 00BF     		.section	.text.CAN_SetOpMode,"ax",%progbits
 1094              		.align	2
 1095              		.global	CAN_SetOpMode
 1096              		.thumb
 1097              		.thumb_func
 1098              		.type	CAN_SetOpMode, %function
 1099              	CAN_SetOpMode:
 1100              	.LFB11:
 670:.\Generated_Source\PSoC5/CAN.c **** 
 671:.\Generated_Source\PSoC5/CAN.c **** 
 672:.\Generated_Source\PSoC5/CAN.c **** /*******************************************************************************
 673:.\Generated_Source\PSoC5/CAN.c **** * FUNCTION NAME:   CAN_SetOpMode
 674:.\Generated_Source\PSoC5/CAN.c **** ********************************************************************************
 675:.\Generated_Source\PSoC5/CAN.c **** *
 676:.\Generated_Source\PSoC5/CAN.c **** * Summary:
 677:.\Generated_Source\PSoC5/CAN.c **** *  This function sets Operation Mode. Operations Modes are Active of Listen
 678:.\Generated_Source\PSoC5/CAN.c **** *  Only.
 679:.\Generated_Source\PSoC5/CAN.c **** *
 680:.\Generated_Source\PSoC5/CAN.c **** * Parameters:
 681:.\Generated_Source\PSoC5/CAN.c **** *  opMode: Operation Mode value.
 682:.\Generated_Source\PSoC5/CAN.c **** *   Define                             Description
 683:.\Generated_Source\PSoC5/CAN.c **** *    CAN_ACTIVE_MODE       Active mode
 684:.\Generated_Source\PSoC5/CAN.c **** *    CAN_LISTEN_ONLY       CAN listen only
 685:.\Generated_Source\PSoC5/CAN.c **** *
 686:.\Generated_Source\PSoC5/CAN.c **** * Return:
 687:.\Generated_Source\PSoC5/CAN.c **** *  Indication whether register is written and verified.
 688:.\Generated_Source\PSoC5/CAN.c **** *   Define                             Description
 689:.\Generated_Source\PSoC5/CAN.c **** *    CYRET_SUCCESS                      Function passed successfully
 690:.\Generated_Source\PSoC5/CAN.c **** *    CAN_FAIL              Function failed
 691:.\Generated_Source\PSoC5/CAN.c **** *
 692:.\Generated_Source\PSoC5/CAN.c **** *******************************************************************************/
 693:.\Generated_Source\PSoC5/CAN.c **** uint8 CAN_SetOpMode(uint8 opMode) 
 694:.\Generated_Source\PSoC5/CAN.c **** {
 1101              		.loc 1 694 0
 1102              		.cfi_startproc
 1103              		@ args = 0, pretend = 0, frame = 16
 1104              		@ frame_needed = 1, uses_anonymous_args = 0
 1105              		@ link register save eliminated.
 1106 0000 80B4     		push	{r7}
 1107              	.LCFI33:
 1108              		.cfi_def_cfa_offset 4
 1109              		.cfi_offset 7, -4
 1110 0002 85B0     		sub	sp, sp, #20
 1111              	.LCFI34:
 1112              		.cfi_def_cfa_offset 24
 1113 0004 00AF     		add	r7, sp, #0
 1114              	.LCFI35:
 1115              		.cfi_def_cfa_register 7
 1116 0006 0346     		mov	r3, r0
 1117 0008 FB71     		strb	r3, [r7, #7]
 695:.\Generated_Source\PSoC5/CAN.c ****     uint8 result = CAN_FAIL;
 1118              		.loc 1 695 0
 1119 000a 4FF00103 		mov	r3, #1
 1120 000e FB73     		strb	r3, [r7, #15]
 696:.\Generated_Source\PSoC5/CAN.c **** 
 697:.\Generated_Source\PSoC5/CAN.c ****     if (opMode == CAN_ACTIVE_MODE)
ARM GAS  C:\Users\CHAIYA~1\AppData\Local\Temp\ccQBCuX6.s 			page 33


 1121              		.loc 1 697 0
 1122 0010 FB79     		ldrb	r3, [r7, #7]	@ zero_extendqisi2
 1123 0012 002B     		cmp	r3, #0
 1124 0014 1BD1     		bne	.L51
 698:.\Generated_Source\PSoC5/CAN.c ****     {
 699:.\Generated_Source\PSoC5/CAN.c ****         /* CAN in Active mode */
 700:.\Generated_Source\PSoC5/CAN.c ****         CAN_CMD_REG.byte[0u] &= (uint8) (~CAN_OPMODE_MASK);
 1125              		.loc 1 700 0
 1126 0016 4AF21003 		movw	r3, #40976
 1127 001a C4F20003 		movt	r3, 16384
 1128 001e 4AF21002 		movw	r2, #40976
 1129 0022 C4F20002 		movt	r2, 16384
 1130 0026 1278     		ldrb	r2, [r2, #0]
 1131 0028 D2B2     		uxtb	r2, r2
 1132 002a 22F00202 		bic	r2, r2, #2
 1133 002e D2B2     		uxtb	r2, r2
 1134 0030 1A70     		strb	r2, [r3, #0]
 701:.\Generated_Source\PSoC5/CAN.c **** 
 702:.\Generated_Source\PSoC5/CAN.c ****         /* Verify that bit is cleared */
 703:.\Generated_Source\PSoC5/CAN.c ****         if ((CAN_CMD_REG.byte[0u] & CAN_OPMODE_MASK) == 0u)
 1135              		.loc 1 703 0
 1136 0032 4AF21003 		movw	r3, #40976
 1137 0036 C4F20003 		movt	r3, 16384
 1138 003a 1B78     		ldrb	r3, [r3, #0]
 1139 003c DBB2     		uxtb	r3, r3
 1140 003e 03F00203 		and	r3, r3, #2
 1141 0042 002B     		cmp	r3, #0
 1142 0044 1ED1     		bne	.L52
 704:.\Generated_Source\PSoC5/CAN.c ****         {
 705:.\Generated_Source\PSoC5/CAN.c ****             result = CYRET_SUCCESS;
 1143              		.loc 1 705 0
 1144 0046 4FF00003 		mov	r3, #0
 1145 004a FB73     		strb	r3, [r7, #15]
 1146 004c 1AE0     		b	.L52
 1147              	.L51:
 706:.\Generated_Source\PSoC5/CAN.c ****         }                
 707:.\Generated_Source\PSoC5/CAN.c ****     }
 708:.\Generated_Source\PSoC5/CAN.c ****     else
 709:.\Generated_Source\PSoC5/CAN.c ****     {
 710:.\Generated_Source\PSoC5/CAN.c ****         /* CAN listen only */
 711:.\Generated_Source\PSoC5/CAN.c ****         CAN_CMD_REG.byte[0u] |= CAN_OPMODE_MASK;
 1148              		.loc 1 711 0
 1149 004e 4AF21003 		movw	r3, #40976
 1150 0052 C4F20003 		movt	r3, 16384
 1151 0056 4AF21002 		movw	r2, #40976
 1152 005a C4F20002 		movt	r2, 16384
 1153 005e 1278     		ldrb	r2, [r2, #0]
 1154 0060 D2B2     		uxtb	r2, r2
 1155 0062 42F00202 		orr	r2, r2, #2
 1156 0066 D2B2     		uxtb	r2, r2
 1157 0068 1A70     		strb	r2, [r3, #0]
 712:.\Generated_Source\PSoC5/CAN.c **** 
 713:.\Generated_Source\PSoC5/CAN.c ****         /* Verify that bit is set */
 714:.\Generated_Source\PSoC5/CAN.c ****         if ((CAN_CMD_REG.byte[0u] & CAN_OPMODE_MASK) == CAN_OPMODE_MASK)
 1158              		.loc 1 714 0
 1159 006a 4AF21003 		movw	r3, #40976
 1160 006e C4F20003 		movt	r3, 16384
ARM GAS  C:\Users\CHAIYA~1\AppData\Local\Temp\ccQBCuX6.s 			page 34


 1161 0072 1B78     		ldrb	r3, [r3, #0]
 1162 0074 DBB2     		uxtb	r3, r3
 1163 0076 03F00203 		and	r3, r3, #2
 1164 007a 002B     		cmp	r3, #0
 1165 007c 02D0     		beq	.L52
 715:.\Generated_Source\PSoC5/CAN.c ****         {
 716:.\Generated_Source\PSoC5/CAN.c ****             result = CYRET_SUCCESS;
 1166              		.loc 1 716 0
 1167 007e 4FF00003 		mov	r3, #0
 1168 0082 FB73     		strb	r3, [r7, #15]
 1169              	.L52:
 717:.\Generated_Source\PSoC5/CAN.c ****         }
 718:.\Generated_Source\PSoC5/CAN.c ****     }
 719:.\Generated_Source\PSoC5/CAN.c **** 
 720:.\Generated_Source\PSoC5/CAN.c ****     return (result);
 1170              		.loc 1 720 0
 1171 0084 FB7B     		ldrb	r3, [r7, #15]	@ zero_extendqisi2
 721:.\Generated_Source\PSoC5/CAN.c **** }
 1172              		.loc 1 721 0
 1173 0086 1846     		mov	r0, r3
 1174 0088 07F11407 		add	r7, r7, #20
 1175 008c BD46     		mov	sp, r7
 1176 008e 80BC     		pop	{r7}
 1177 0090 7047     		bx	lr
 1178              		.cfi_endproc
 1179              	.LFE11:
 1180              		.size	CAN_SetOpMode, .-CAN_SetOpMode
 1181 0092 00BF     		.section	.text.CAN_RXRegisterInit,"ax",%progbits
 1182              		.align	2
 1183              		.global	CAN_RXRegisterInit
 1184              		.thumb
 1185              		.thumb_func
 1186              		.type	CAN_RXRegisterInit, %function
 1187              	CAN_RXRegisterInit:
 1188              	.LFB12:
 722:.\Generated_Source\PSoC5/CAN.c **** 
 723:.\Generated_Source\PSoC5/CAN.c **** 
 724:.\Generated_Source\PSoC5/CAN.c **** /*******************************************************************************
 725:.\Generated_Source\PSoC5/CAN.c **** * FUNCTION NAME:   CAN_RXRegisterInit
 726:.\Generated_Source\PSoC5/CAN.c **** ********************************************************************************
 727:.\Generated_Source\PSoC5/CAN.c **** *
 728:.\Generated_Source\PSoC5/CAN.c **** * Summary:
 729:.\Generated_Source\PSoC5/CAN.c **** *  This function writes only receive CAN registers.
 730:.\Generated_Source\PSoC5/CAN.c **** *
 731:.\Generated_Source\PSoC5/CAN.c **** * Parameters:
 732:.\Generated_Source\PSoC5/CAN.c **** *  regAddr: Pointer to CAN receive register;
 733:.\Generated_Source\PSoC5/CAN.c **** *  config:  Value that will be written in register.
 734:.\Generated_Source\PSoC5/CAN.c **** *
 735:.\Generated_Source\PSoC5/CAN.c **** * Return:
 736:.\Generated_Source\PSoC5/CAN.c **** *  Indication whether register is written and verified.
 737:.\Generated_Source\PSoC5/CAN.c **** *   Define                             Description
 738:.\Generated_Source\PSoC5/CAN.c **** *    CYRET_SUCCESS                      Function passed successfully
 739:.\Generated_Source\PSoC5/CAN.c **** *    CAN_FAIL              Function failed
 740:.\Generated_Source\PSoC5/CAN.c **** *    CAN_OUT_OF_RANGE      Function parameter is out of range
 741:.\Generated_Source\PSoC5/CAN.c **** *
 742:.\Generated_Source\PSoC5/CAN.c **** *******************************************************************************/
 743:.\Generated_Source\PSoC5/CAN.c **** uint8 CAN_RXRegisterInit(reg32 *regAddr, uint32 config)
ARM GAS  C:\Users\CHAIYA~1\AppData\Local\Temp\ccQBCuX6.s 			page 35


 744:.\Generated_Source\PSoC5/CAN.c ****                                       
 745:.\Generated_Source\PSoC5/CAN.c **** {
 1189              		.loc 1 745 0
 1190              		.cfi_startproc
 1191              		@ args = 0, pretend = 0, frame = 16
 1192              		@ frame_needed = 1, uses_anonymous_args = 0
 1193              		@ link register save eliminated.
 1194 0000 80B4     		push	{r7}
 1195              	.LCFI36:
 1196              		.cfi_def_cfa_offset 4
 1197              		.cfi_offset 7, -4
 1198 0002 85B0     		sub	sp, sp, #20
 1199              	.LCFI37:
 1200              		.cfi_def_cfa_offset 24
 1201 0004 00AF     		add	r7, sp, #0
 1202              	.LCFI38:
 1203              		.cfi_def_cfa_register 7
 1204 0006 7860     		str	r0, [r7, #4]
 1205 0008 3960     		str	r1, [r7, #0]
 746:.\Generated_Source\PSoC5/CAN.c ****     uint8 result = CAN_OUT_OF_RANGE;    
 1206              		.loc 1 746 0
 1207 000a 4FF00203 		mov	r3, #2
 1208 000e FB73     		strb	r3, [r7, #15]
 747:.\Generated_Source\PSoC5/CAN.c ****     
 748:.\Generated_Source\PSoC5/CAN.c ****     if ((((uint32) regAddr & 0x0000FFFFu) >= ((uint32) CAN_RX_FIRST_REGISTER_PTR & 0x0000FFFFu)) &&
 1209              		.loc 1 748 0
 1210 0010 7B68     		ldr	r3, [r7, #4]
 1211 0012 4FEA0343 		lsl	r3, r3, #16
 1212 0016 4FEA1343 		lsr	r3, r3, #16
 1213 001a 4AF29F02 		movw	r2, #41119
 1214 001e 9342     		cmp	r3, r2
 1215 0020 4AD9     		bls	.L55
 749:.\Generated_Source\PSoC5/CAN.c ****          ((((uint32) regAddr & 0x0000FFFFu)) <= ((uint32) CAN_RX_LAST_REGISTER_PTR & 0x0000FFFFu)))
 1216              		.loc 1 749 0 discriminator 1
 1217 0022 7B68     		ldr	r3, [r7, #4]
 1218 0024 4FEA0343 		lsl	r3, r3, #16
 1219 0028 4FEA1343 		lsr	r3, r3, #16
 748:.\Generated_Source\PSoC5/CAN.c ****     if ((((uint32) regAddr & 0x0000FFFFu) >= ((uint32) CAN_RX_FIRST_REGISTER_PTR & 0x0000FFFFu)) &&
 1220              		.loc 1 748 0 discriminator 1
 1221 002c 4AF29C22 		movw	r2, #41628
 1222 0030 9342     		cmp	r3, r2
 1223 0032 41D8     		bhi	.L55
 750:.\Generated_Source\PSoC5/CAN.c ****     {
 751:.\Generated_Source\PSoC5/CAN.c ****         result = CAN_FAIL;
 1224              		.loc 1 751 0
 1225 0034 4FF00103 		mov	r3, #1
 1226 0038 FB73     		strb	r3, [r7, #15]
 752:.\Generated_Source\PSoC5/CAN.c ****         
 753:.\Generated_Source\PSoC5/CAN.c ****         if ((((uint32) regAddr & 0x0000FFFFu) % CAN_RX_CMD_REG_WIDTH) == 0u)
 1227              		.loc 1 753 0
 1228 003a 7B68     		ldr	r3, [r7, #4]
 1229 003c 03F01F03 		and	r3, r3, #31
 1230 0040 002B     		cmp	r3, #0
 1231 0042 20D1     		bne	.L56
 754:.\Generated_Source\PSoC5/CAN.c ****         {
 755:.\Generated_Source\PSoC5/CAN.c ****             config |= CAN_RX_WPN_SET;
 1232              		.loc 1 755 0
ARM GAS  C:\Users\CHAIYA~1\AppData\Local\Temp\ccQBCuX6.s 			page 36


 1233 0044 3B68     		ldr	r3, [r7, #0]
 1234 0046 43F08013 		orr	r3, r3, #8388736
 1235 004a 3B60     		str	r3, [r7, #0]
 756:.\Generated_Source\PSoC5/CAN.c ****             
 757:.\Generated_Source\PSoC5/CAN.c ****     /* Disable isr */
 758:.\Generated_Source\PSoC5/CAN.c ****     CyIntDisable(CAN_ISR_NUMBER);
 1236              		.loc 1 758 0
 1237 004c 4EF28013 		movw	r3, #57728
 1238 0050 CEF20003 		movt	r3, 57344
 1239 0054 4FF48032 		mov	r2, #65536
 1240 0058 1A60     		str	r2, [r3, #0]
 759:.\Generated_Source\PSoC5/CAN.c **** 
 760:.\Generated_Source\PSoC5/CAN.c ****             /* Write defined RX CMD registers */
 761:.\Generated_Source\PSoC5/CAN.c ****             CY_SET_REG32(regAddr, config);
 1241              		.loc 1 761 0
 1242 005a 7B68     		ldr	r3, [r7, #4]
 1243 005c 3A68     		ldr	r2, [r7, #0]
 1244 005e 1A60     		str	r2, [r3, #0]
 762:.\Generated_Source\PSoC5/CAN.c ****             
 763:.\Generated_Source\PSoC5/CAN.c ****     /* Enable isr */
 764:.\Generated_Source\PSoC5/CAN.c ****     CyIntEnable(CAN_ISR_NUMBER);
 1245              		.loc 1 764 0
 1246 0060 4FF46143 		mov	r3, #57600
 1247 0064 CEF20003 		movt	r3, 57344
 1248 0068 4FF48032 		mov	r2, #65536
 1249 006c 1A60     		str	r2, [r3, #0]
 765:.\Generated_Source\PSoC5/CAN.c **** 
 766:.\Generated_Source\PSoC5/CAN.c ****             /* Verify register */
 767:.\Generated_Source\PSoC5/CAN.c ****             if ((CY_GET_REG32(regAddr) & CAN_RX_READ_BACK_MASK) ==
 1250              		.loc 1 767 0
 1251 006e 7B68     		ldr	r3, [r7, #4]
 1252 0070 1A68     		ldr	r2, [r3, #0]
 1253 0072 3B68     		ldr	r3, [r7, #0]
 1254 0074 5340     		eors	r3, r3, r2
 1255 0076 03F07F13 		and	r3, r3, #8323199
 1256 007a 002B     		cmp	r3, #0
 1257 007c 1CD1     		bne	.L55
 768:.\Generated_Source\PSoC5/CAN.c ****                 (config & CAN_RX_READ_BACK_MASK))
 769:.\Generated_Source\PSoC5/CAN.c ****             {
 770:.\Generated_Source\PSoC5/CAN.c ****                 result = CYRET_SUCCESS;
 1258              		.loc 1 770 0
 1259 007e 4FF00003 		mov	r3, #0
 1260 0082 FB73     		strb	r3, [r7, #15]
 1261 0084 18E0     		b	.L55
 1262              	.L56:
 771:.\Generated_Source\PSoC5/CAN.c ****             }
 772:.\Generated_Source\PSoC5/CAN.c ****         }
 773:.\Generated_Source\PSoC5/CAN.c ****         /* All registers except RX CMD*/
 774:.\Generated_Source\PSoC5/CAN.c ****         else
 775:.\Generated_Source\PSoC5/CAN.c ****         {            
 776:.\Generated_Source\PSoC5/CAN.c ****     /* Disable isr */
 777:.\Generated_Source\PSoC5/CAN.c ****     CyIntDisable(CAN_ISR_NUMBER);
 1263              		.loc 1 777 0
 1264 0086 4EF28013 		movw	r3, #57728
 1265 008a CEF20003 		movt	r3, 57344
 1266 008e 4FF48032 		mov	r2, #65536
 1267 0092 1A60     		str	r2, [r3, #0]
ARM GAS  C:\Users\CHAIYA~1\AppData\Local\Temp\ccQBCuX6.s 			page 37


 778:.\Generated_Source\PSoC5/CAN.c **** 
 779:.\Generated_Source\PSoC5/CAN.c ****             /* Write defined CAN receive register */
 780:.\Generated_Source\PSoC5/CAN.c ****             CY_SET_REG32(regAddr, config);
 1268              		.loc 1 780 0
 1269 0094 7B68     		ldr	r3, [r7, #4]
 1270 0096 3A68     		ldr	r2, [r7, #0]
 1271 0098 1A60     		str	r2, [r3, #0]
 781:.\Generated_Source\PSoC5/CAN.c ****             
 782:.\Generated_Source\PSoC5/CAN.c ****     /* Enable isr */
 783:.\Generated_Source\PSoC5/CAN.c ****     CyIntEnable(CAN_ISR_NUMBER);
 1272              		.loc 1 783 0
 1273 009a 4FF46143 		mov	r3, #57600
 1274 009e CEF20003 		movt	r3, 57344
 1275 00a2 4FF48032 		mov	r2, #65536
 1276 00a6 1A60     		str	r2, [r3, #0]
 784:.\Generated_Source\PSoC5/CAN.c **** 
 785:.\Generated_Source\PSoC5/CAN.c ****             /* Verify register */
 786:.\Generated_Source\PSoC5/CAN.c ****             if (CY_GET_REG32(regAddr) == config)
 1277              		.loc 1 786 0
 1278 00a8 7B68     		ldr	r3, [r7, #4]
 1279 00aa 1A68     		ldr	r2, [r3, #0]
 1280 00ac 3B68     		ldr	r3, [r7, #0]
 1281 00ae 9A42     		cmp	r2, r3
 1282 00b0 02D1     		bne	.L55
 787:.\Generated_Source\PSoC5/CAN.c ****             {
 788:.\Generated_Source\PSoC5/CAN.c ****                 result = CYRET_SUCCESS;
 1283              		.loc 1 788 0
 1284 00b2 4FF00003 		mov	r3, #0
 1285 00b6 FB73     		strb	r3, [r7, #15]
 1286              	.L55:
 789:.\Generated_Source\PSoC5/CAN.c ****             }
 790:.\Generated_Source\PSoC5/CAN.c ****         }
 791:.\Generated_Source\PSoC5/CAN.c ****     }
 792:.\Generated_Source\PSoC5/CAN.c ****     
 793:.\Generated_Source\PSoC5/CAN.c ****     return (result);
 1287              		.loc 1 793 0
 1288 00b8 FB7B     		ldrb	r3, [r7, #15]	@ zero_extendqisi2
 794:.\Generated_Source\PSoC5/CAN.c **** }
 1289              		.loc 1 794 0
 1290 00ba 1846     		mov	r0, r3
 1291 00bc 07F11407 		add	r7, r7, #20
 1292 00c0 BD46     		mov	sp, r7
 1293 00c2 80BC     		pop	{r7}
 1294 00c4 7047     		bx	lr
 1295              		.cfi_endproc
 1296              	.LFE12:
 1297              		.size	CAN_RXRegisterInit, .-CAN_RXRegisterInit
 1298 00c6 00BF     		.section	.text.CAN_SetIrqMask,"ax",%progbits
 1299              		.align	2
 1300              		.global	CAN_SetIrqMask
 1301              		.thumb
 1302              		.thumb_func
 1303              		.type	CAN_SetIrqMask, %function
 1304              	CAN_SetIrqMask:
 1305              	.LFB13:
 795:.\Generated_Source\PSoC5/CAN.c **** 
 796:.\Generated_Source\PSoC5/CAN.c **** 
ARM GAS  C:\Users\CHAIYA~1\AppData\Local\Temp\ccQBCuX6.s 			page 38


 797:.\Generated_Source\PSoC5/CAN.c **** /*******************************************************************************
 798:.\Generated_Source\PSoC5/CAN.c **** * FUNCTION NAME:   CAN_SetIrqMask
 799:.\Generated_Source\PSoC5/CAN.c **** ********************************************************************************
 800:.\Generated_Source\PSoC5/CAN.c **** *
 801:.\Generated_Source\PSoC5/CAN.c **** * Summary:
 802:.\Generated_Source\PSoC5/CAN.c **** *  This function sets to enable/disable particular interrupt sources. Interrupt
 803:.\Generated_Source\PSoC5/CAN.c **** *  Mask directly write to CAN Interrupt Enable register. A particular interrupt
 804:.\Generated_Source\PSoC5/CAN.c **** *  source is enabled by setting its respective flag to 1.
 805:.\Generated_Source\PSoC5/CAN.c **** *
 806:.\Generated_Source\PSoC5/CAN.c **** * Parameters:
 807:.\Generated_Source\PSoC5/CAN.c **** *  mask: Interrupt enable/disable request. 1 bit per interrupt source.
 808:.\Generated_Source\PSoC5/CAN.c **** *   Define                                    Description
 809:.\Generated_Source\PSoC5/CAN.c **** *    CAN_GLOBAL_INT_ENABLE        Global Interrupt Enable Flag
 810:.\Generated_Source\PSoC5/CAN.c **** *    CAN_ARBITRATION_LOST_ENABLE  Arbitration Loss Interrupt Enable
 811:.\Generated_Source\PSoC5/CAN.c **** *    CAN_OVERLOAD_ERROR_ENABLE    Overload Interrupt Enable
 812:.\Generated_Source\PSoC5/CAN.c **** *    CAN_BIT_ERROR_ENABLE         Bit Error Interrupt Enable
 813:.\Generated_Source\PSoC5/CAN.c **** *    CAN_STUFF_ERROR_ENABLE       Stuff Error Interrupt Enable
 814:.\Generated_Source\PSoC5/CAN.c **** *    CAN_ACK_ERROR_ENABLE         Ack Error Interrupt Enable
 815:.\Generated_Source\PSoC5/CAN.c **** *    CAN_FORM_ERROR_ENABLE        Form Error Interrupt Enable
 816:.\Generated_Source\PSoC5/CAN.c **** *    CAN_CRC_ERROR_ENABLE         CRC Error Interrupt Enable
 817:.\Generated_Source\PSoC5/CAN.c **** *    CAN_BUS_OFF_ENABLE           Busoff State Interrupt Enable
 818:.\Generated_Source\PSoC5/CAN.c **** *    CAN_RX_MSG_LOST_ENABLE       Rx Msg Loss Interrupt Enable
 819:.\Generated_Source\PSoC5/CAN.c **** *    CAN_TX_MESSAGE_ENABLE        Tx Msg Sent Interrupt Enable
 820:.\Generated_Source\PSoC5/CAN.c **** *    CAN_RX_MESSAGE_ENABLE        Msg Recived Interrupt Enable
 821:.\Generated_Source\PSoC5/CAN.c **** *
 822:.\Generated_Source\PSoC5/CAN.c **** * Return:
 823:.\Generated_Source\PSoC5/CAN.c **** *  Indication whether register is written and verified.
 824:.\Generated_Source\PSoC5/CAN.c **** *   Define                             Description
 825:.\Generated_Source\PSoC5/CAN.c **** *    CYRET_SUCCESS                      Function passed successfully
 826:.\Generated_Source\PSoC5/CAN.c **** *    CAN_FAIL              Function failed
 827:.\Generated_Source\PSoC5/CAN.c **** *
 828:.\Generated_Source\PSoC5/CAN.c **** *******************************************************************************/
 829:.\Generated_Source\PSoC5/CAN.c **** uint8 CAN_SetIrqMask(uint16 mask) 
 830:.\Generated_Source\PSoC5/CAN.c **** {
 1306              		.loc 1 830 0
 1307              		.cfi_startproc
 1308              		@ args = 0, pretend = 0, frame = 16
 1309              		@ frame_needed = 1, uses_anonymous_args = 0
 1310              		@ link register save eliminated.
 1311 0000 80B4     		push	{r7}
 1312              	.LCFI39:
 1313              		.cfi_def_cfa_offset 4
 1314              		.cfi_offset 7, -4
 1315 0002 85B0     		sub	sp, sp, #20
 1316              	.LCFI40:
 1317              		.cfi_def_cfa_offset 24
 1318 0004 00AF     		add	r7, sp, #0
 1319              	.LCFI41:
 1320              		.cfi_def_cfa_register 7
 1321 0006 0346     		mov	r3, r0
 1322 0008 FB80     		strh	r3, [r7, #6]	@ movhi
 831:.\Generated_Source\PSoC5/CAN.c ****     uint8 result = CAN_FAIL;
 1323              		.loc 1 831 0
 1324 000a 4FF00103 		mov	r3, #1
 1325 000e FB73     		strb	r3, [r7, #15]
 832:.\Generated_Source\PSoC5/CAN.c **** 
 833:.\Generated_Source\PSoC5/CAN.c ****     /* Write byte 0 and 1 of CAN_INT_EN_REG register */
ARM GAS  C:\Users\CHAIYA~1\AppData\Local\Temp\ccQBCuX6.s 			page 39


 834:.\Generated_Source\PSoC5/CAN.c ****     CY_SET_REG16((reg16 *) &CAN_INT_EN_REG, mask);
 1326              		.loc 1 834 0
 1327 0010 4AF20403 		movw	r3, #40964
 1328 0014 C4F20003 		movt	r3, 16384
 1329 0018 FA88     		ldrh	r2, [r7, #6]	@ movhi
 1330 001a 1A80     		strh	r2, [r3, #0]	@ movhi
 835:.\Generated_Source\PSoC5/CAN.c **** 
 836:.\Generated_Source\PSoC5/CAN.c ****     /* Verify CAN_INT_EN_REG register */
 837:.\Generated_Source\PSoC5/CAN.c ****     if (CY_GET_REG16((reg16 *) &CAN_INT_EN_REG) == mask)
 1331              		.loc 1 837 0
 1332 001c 4AF20403 		movw	r3, #40964
 1333 0020 C4F20003 		movt	r3, 16384
 1334 0024 1B88     		ldrh	r3, [r3, #0]	@ movhi
 1335 0026 9BB2     		uxth	r3, r3
 1336 0028 FA88     		ldrh	r2, [r7, #6]
 1337 002a 9A42     		cmp	r2, r3
 1338 002c 02D1     		bne	.L59
 838:.\Generated_Source\PSoC5/CAN.c ****     {
 839:.\Generated_Source\PSoC5/CAN.c ****         result = CYRET_SUCCESS;
 1339              		.loc 1 839 0
 1340 002e 4FF00003 		mov	r3, #0
 1341 0032 FB73     		strb	r3, [r7, #15]
 1342              	.L59:
 840:.\Generated_Source\PSoC5/CAN.c ****     }
 841:.\Generated_Source\PSoC5/CAN.c **** 
 842:.\Generated_Source\PSoC5/CAN.c ****     return (result);
 1343              		.loc 1 842 0
 1344 0034 FB7B     		ldrb	r3, [r7, #15]	@ zero_extendqisi2
 843:.\Generated_Source\PSoC5/CAN.c **** }
 1345              		.loc 1 843 0
 1346 0036 1846     		mov	r0, r3
 1347 0038 07F11407 		add	r7, r7, #20
 1348 003c BD46     		mov	sp, r7
 1349 003e 80BC     		pop	{r7}
 1350 0040 7047     		bx	lr
 1351              		.cfi_endproc
 1352              	.LFE13:
 1353              		.size	CAN_SetIrqMask, .-CAN_SetIrqMask
 1354 0042 00BF     		.section	.text.CAN_GetTXErrorFlag,"ax",%progbits
 1355              		.align	2
 1356              		.global	CAN_GetTXErrorFlag
 1357              		.thumb
 1358              		.thumb_func
 1359              		.type	CAN_GetTXErrorFlag, %function
 1360              	CAN_GetTXErrorFlag:
 1361              	.LFB14:
 844:.\Generated_Source\PSoC5/CAN.c **** 
 845:.\Generated_Source\PSoC5/CAN.c **** 
 846:.\Generated_Source\PSoC5/CAN.c **** /*******************************************************************************
 847:.\Generated_Source\PSoC5/CAN.c **** * FUNCTION NAME:   CAN_GetTXErrorflag
 848:.\Generated_Source\PSoC5/CAN.c **** ********************************************************************************
 849:.\Generated_Source\PSoC5/CAN.c **** *
 850:.\Generated_Source\PSoC5/CAN.c **** * Summary:
 851:.\Generated_Source\PSoC5/CAN.c **** *  This function returns the bit that indicates if the number of TX errors
 852:.\Generated_Source\PSoC5/CAN.c **** *  exceeds 0x60.
 853:.\Generated_Source\PSoC5/CAN.c **** *
 854:.\Generated_Source\PSoC5/CAN.c **** * Parameters:
ARM GAS  C:\Users\CHAIYA~1\AppData\Local\Temp\ccQBCuX6.s 			page 40


 855:.\Generated_Source\PSoC5/CAN.c **** *  None.
 856:.\Generated_Source\PSoC5/CAN.c **** *
 857:.\Generated_Source\PSoC5/CAN.c **** * Return:
 858:.\Generated_Source\PSoC5/CAN.c **** *  Indication whether the number of TX errors exceeds 0x60.
 859:.\Generated_Source\PSoC5/CAN.c **** *
 860:.\Generated_Source\PSoC5/CAN.c **** *******************************************************************************/
 861:.\Generated_Source\PSoC5/CAN.c **** uint8 CAN_GetTXErrorFlag(void) 
 862:.\Generated_Source\PSoC5/CAN.c **** {
 1362              		.loc 1 862 0
 1363              		.cfi_startproc
 1364              		@ args = 0, pretend = 0, frame = 0
 1365              		@ frame_needed = 1, uses_anonymous_args = 0
 1366              		@ link register save eliminated.
 1367 0000 80B4     		push	{r7}
 1368              	.LCFI42:
 1369              		.cfi_def_cfa_offset 4
 1370              		.cfi_offset 7, -4
 1371 0002 00AF     		add	r7, sp, #0
 1372              	.LCFI43:
 1373              		.cfi_def_cfa_register 7
 863:.\Generated_Source\PSoC5/CAN.c ****     /* Get the state of the transmit error flag */
 864:.\Generated_Source\PSoC5/CAN.c ****     return (((CAN_ERR_SR_REG.byte[2u] & CAN_TX_ERROR_FLAG_MASK) ==
 1374              		.loc 1 864 0
 1375 0004 4AF20C03 		movw	r3, #40972
 1376 0008 C4F20003 		movt	r3, 16384
 1377 000c 9B78     		ldrb	r3, [r3, #2]
 1378 000e DBB2     		uxtb	r3, r3
 1379 0010 03F00403 		and	r3, r3, #4
 1380 0014 002B     		cmp	r3, #0
 1381 0016 02D0     		beq	.L62
 1382              		.loc 1 864 0 is_stmt 0 discriminator 1
 1383 0018 4FF00103 		mov	r3, #1
 1384 001c 01E0     		b	.L63
 1385              	.L62:
 1386              		.loc 1 864 0 discriminator 2
 1387 001e 4FF00003 		mov	r3, #0
 1388              	.L63:
 865:.\Generated_Source\PSoC5/CAN.c ****               CAN_TX_ERROR_FLAG_MASK) ? 1u : 0u);
 866:.\Generated_Source\PSoC5/CAN.c **** }
 1389              		.loc 1 866 0 is_stmt 1 discriminator 3
 1390 0022 1846     		mov	r0, r3
 1391 0024 BD46     		mov	sp, r7
 1392 0026 80BC     		pop	{r7}
 1393 0028 7047     		bx	lr
 1394              		.cfi_endproc
 1395              	.LFE14:
 1396              		.size	CAN_GetTXErrorFlag, .-CAN_GetTXErrorFlag
 1397 002a 00BF     		.section	.text.CAN_GetRXErrorFlag,"ax",%progbits
 1398              		.align	2
 1399              		.global	CAN_GetRXErrorFlag
 1400              		.thumb
 1401              		.thumb_func
 1402              		.type	CAN_GetRXErrorFlag, %function
 1403              	CAN_GetRXErrorFlag:
 1404              	.LFB15:
 867:.\Generated_Source\PSoC5/CAN.c **** 
 868:.\Generated_Source\PSoC5/CAN.c **** 
ARM GAS  C:\Users\CHAIYA~1\AppData\Local\Temp\ccQBCuX6.s 			page 41


 869:.\Generated_Source\PSoC5/CAN.c **** /*******************************************************************************
 870:.\Generated_Source\PSoC5/CAN.c **** * FUNCTION NAME:   CAN_GetRXErrorFlag
 871:.\Generated_Source\PSoC5/CAN.c **** ********************************************************************************
 872:.\Generated_Source\PSoC5/CAN.c **** *
 873:.\Generated_Source\PSoC5/CAN.c **** * Summary:
 874:.\Generated_Source\PSoC5/CAN.c **** *  This function returns the bit that indicates if the number of RX errors
 875:.\Generated_Source\PSoC5/CAN.c **** *  exceeds 0x60.
 876:.\Generated_Source\PSoC5/CAN.c **** *
 877:.\Generated_Source\PSoC5/CAN.c **** * Parameters:
 878:.\Generated_Source\PSoC5/CAN.c **** *  None.
 879:.\Generated_Source\PSoC5/CAN.c **** *
 880:.\Generated_Source\PSoC5/CAN.c **** * Return:
 881:.\Generated_Source\PSoC5/CAN.c **** *  Indication whether the number of TX errors exceeds 0x60.
 882:.\Generated_Source\PSoC5/CAN.c **** *
 883:.\Generated_Source\PSoC5/CAN.c **** *******************************************************************************/
 884:.\Generated_Source\PSoC5/CAN.c **** uint8 CAN_GetRXErrorFlag(void) 
 885:.\Generated_Source\PSoC5/CAN.c **** {
 1405              		.loc 1 885 0
 1406              		.cfi_startproc
 1407              		@ args = 0, pretend = 0, frame = 0
 1408              		@ frame_needed = 1, uses_anonymous_args = 0
 1409              		@ link register save eliminated.
 1410 0000 80B4     		push	{r7}
 1411              	.LCFI44:
 1412              		.cfi_def_cfa_offset 4
 1413              		.cfi_offset 7, -4
 1414 0002 00AF     		add	r7, sp, #0
 1415              	.LCFI45:
 1416              		.cfi_def_cfa_register 7
 886:.\Generated_Source\PSoC5/CAN.c ****     /* Get the state of the receive error flag */
 887:.\Generated_Source\PSoC5/CAN.c ****     return (((CAN_ERR_SR_REG.byte[2u] & CAN_RX_ERROR_FLAG_MASK) ==
 1417              		.loc 1 887 0
 1418 0004 4AF20C03 		movw	r3, #40972
 1419 0008 C4F20003 		movt	r3, 16384
 1420 000c 9B78     		ldrb	r3, [r3, #2]
 1421 000e DBB2     		uxtb	r3, r3
 1422 0010 03F00803 		and	r3, r3, #8
 1423 0014 002B     		cmp	r3, #0
 1424 0016 02D0     		beq	.L66
 1425              		.loc 1 887 0 is_stmt 0 discriminator 1
 1426 0018 4FF00103 		mov	r3, #1
 1427 001c 01E0     		b	.L67
 1428              	.L66:
 1429              		.loc 1 887 0 discriminator 2
 1430 001e 4FF00003 		mov	r3, #0
 1431              	.L67:
 888:.\Generated_Source\PSoC5/CAN.c ****               CAN_RX_ERROR_FLAG_MASK) ? 1u : 0u);
 889:.\Generated_Source\PSoC5/CAN.c **** }
 1432              		.loc 1 889 0 is_stmt 1 discriminator 3
 1433 0022 1846     		mov	r0, r3
 1434 0024 BD46     		mov	sp, r7
 1435 0026 80BC     		pop	{r7}
 1436 0028 7047     		bx	lr
 1437              		.cfi_endproc
 1438              	.LFE15:
 1439              		.size	CAN_GetRXErrorFlag, .-CAN_GetRXErrorFlag
 1440 002a 00BF     		.section	.text.CAN_GetTXErrorCount,"ax",%progbits
ARM GAS  C:\Users\CHAIYA~1\AppData\Local\Temp\ccQBCuX6.s 			page 42


 1441              		.align	2
 1442              		.global	CAN_GetTXErrorCount
 1443              		.thumb
 1444              		.thumb_func
 1445              		.type	CAN_GetTXErrorCount, %function
 1446              	CAN_GetTXErrorCount:
 1447              	.LFB16:
 890:.\Generated_Source\PSoC5/CAN.c **** 
 891:.\Generated_Source\PSoC5/CAN.c **** 
 892:.\Generated_Source\PSoC5/CAN.c **** /*******************************************************************************
 893:.\Generated_Source\PSoC5/CAN.c **** * FUNCTION NAME:   CAN_TXErrorCount
 894:.\Generated_Source\PSoC5/CAN.c **** ********************************************************************************
 895:.\Generated_Source\PSoC5/CAN.c **** *
 896:.\Generated_Source\PSoC5/CAN.c **** * Summary:
 897:.\Generated_Source\PSoC5/CAN.c **** *  This function returns the number of Transmit Errors.
 898:.\Generated_Source\PSoC5/CAN.c **** *
 899:.\Generated_Source\PSoC5/CAN.c **** * Parameters:
 900:.\Generated_Source\PSoC5/CAN.c **** *  None.
 901:.\Generated_Source\PSoC5/CAN.c **** *
 902:.\Generated_Source\PSoC5/CAN.c **** * Return:
 903:.\Generated_Source\PSoC5/CAN.c **** *  Number of Transmit Errors.
 904:.\Generated_Source\PSoC5/CAN.c **** *
 905:.\Generated_Source\PSoC5/CAN.c **** *******************************************************************************/
 906:.\Generated_Source\PSoC5/CAN.c **** uint8 CAN_GetTXErrorCount(void) 
 907:.\Generated_Source\PSoC5/CAN.c **** {
 1448              		.loc 1 907 0
 1449              		.cfi_startproc
 1450              		@ args = 0, pretend = 0, frame = 0
 1451              		@ frame_needed = 1, uses_anonymous_args = 0
 1452              		@ link register save eliminated.
 1453 0000 80B4     		push	{r7}
 1454              	.LCFI46:
 1455              		.cfi_def_cfa_offset 4
 1456              		.cfi_offset 7, -4
 1457 0002 00AF     		add	r7, sp, #0
 1458              	.LCFI47:
 1459              		.cfi_def_cfa_register 7
 908:.\Generated_Source\PSoC5/CAN.c ****     /* Get the state of the transmit error count */
 909:.\Generated_Source\PSoC5/CAN.c ****     return (CAN_ERR_SR_REG.byte[0u]);    /* bits 7-0 */
 1460              		.loc 1 909 0
 1461 0004 4AF20C03 		movw	r3, #40972
 1462 0008 C4F20003 		movt	r3, 16384
 1463 000c 1B78     		ldrb	r3, [r3, #0]
 1464 000e DBB2     		uxtb	r3, r3
 910:.\Generated_Source\PSoC5/CAN.c **** }
 1465              		.loc 1 910 0
 1466 0010 1846     		mov	r0, r3
 1467 0012 BD46     		mov	sp, r7
 1468 0014 80BC     		pop	{r7}
 1469 0016 7047     		bx	lr
 1470              		.cfi_endproc
 1471              	.LFE16:
 1472              		.size	CAN_GetTXErrorCount, .-CAN_GetTXErrorCount
 1473              		.section	.text.CAN_GetRXErrorCount,"ax",%progbits
 1474              		.align	2
 1475              		.global	CAN_GetRXErrorCount
 1476              		.thumb
ARM GAS  C:\Users\CHAIYA~1\AppData\Local\Temp\ccQBCuX6.s 			page 43


 1477              		.thumb_func
 1478              		.type	CAN_GetRXErrorCount, %function
 1479              	CAN_GetRXErrorCount:
 1480              	.LFB17:
 911:.\Generated_Source\PSoC5/CAN.c **** 
 912:.\Generated_Source\PSoC5/CAN.c **** 
 913:.\Generated_Source\PSoC5/CAN.c **** /*******************************************************************************
 914:.\Generated_Source\PSoC5/CAN.c **** * FUNCTION NAME:   CAN_RXErrorCount
 915:.\Generated_Source\PSoC5/CAN.c **** ********************************************************************************
 916:.\Generated_Source\PSoC5/CAN.c **** *
 917:.\Generated_Source\PSoC5/CAN.c **** * Summary:
 918:.\Generated_Source\PSoC5/CAN.c **** *  This function returns the number of Receive Errors.
 919:.\Generated_Source\PSoC5/CAN.c **** *
 920:.\Generated_Source\PSoC5/CAN.c **** * Parameters:
 921:.\Generated_Source\PSoC5/CAN.c **** *  None.
 922:.\Generated_Source\PSoC5/CAN.c **** *
 923:.\Generated_Source\PSoC5/CAN.c **** * Return:
 924:.\Generated_Source\PSoC5/CAN.c **** *  Number of Receive Errors.
 925:.\Generated_Source\PSoC5/CAN.c **** *
 926:.\Generated_Source\PSoC5/CAN.c **** *******************************************************************************/
 927:.\Generated_Source\PSoC5/CAN.c **** uint8 CAN_GetRXErrorCount(void) 
 928:.\Generated_Source\PSoC5/CAN.c **** {
 1481              		.loc 1 928 0
 1482              		.cfi_startproc
 1483              		@ args = 0, pretend = 0, frame = 0
 1484              		@ frame_needed = 1, uses_anonymous_args = 0
 1485              		@ link register save eliminated.
 1486 0000 80B4     		push	{r7}
 1487              	.LCFI48:
 1488              		.cfi_def_cfa_offset 4
 1489              		.cfi_offset 7, -4
 1490 0002 00AF     		add	r7, sp, #0
 1491              	.LCFI49:
 1492              		.cfi_def_cfa_register 7
 929:.\Generated_Source\PSoC5/CAN.c ****     /* Get the state of the receive error count */
 930:.\Generated_Source\PSoC5/CAN.c ****     return (CAN_ERR_SR_REG.byte[1u]);    /* bits 15-8 */
 1493              		.loc 1 930 0
 1494 0004 4AF20C03 		movw	r3, #40972
 1495 0008 C4F20003 		movt	r3, 16384
 1496 000c 5B78     		ldrb	r3, [r3, #1]
 1497 000e DBB2     		uxtb	r3, r3
 931:.\Generated_Source\PSoC5/CAN.c **** }
 1498              		.loc 1 931 0
 1499 0010 1846     		mov	r0, r3
 1500 0012 BD46     		mov	sp, r7
 1501 0014 80BC     		pop	{r7}
 1502 0016 7047     		bx	lr
 1503              		.cfi_endproc
 1504              	.LFE17:
 1505              		.size	CAN_GetRXErrorCount, .-CAN_GetRXErrorCount
 1506              		.section	.text.CAN_GetErrorState,"ax",%progbits
 1507              		.align	2
 1508              		.global	CAN_GetErrorState
 1509              		.thumb
 1510              		.thumb_func
 1511              		.type	CAN_GetErrorState, %function
 1512              	CAN_GetErrorState:
ARM GAS  C:\Users\CHAIYA~1\AppData\Local\Temp\ccQBCuX6.s 			page 44


 1513              	.LFB18:
 932:.\Generated_Source\PSoC5/CAN.c **** 
 933:.\Generated_Source\PSoC5/CAN.c **** 
 934:.\Generated_Source\PSoC5/CAN.c **** /*******************************************************************************
 935:.\Generated_Source\PSoC5/CAN.c **** * FUNCTION NAME:   CAN_GetErrorState
 936:.\Generated_Source\PSoC5/CAN.c **** ********************************************************************************
 937:.\Generated_Source\PSoC5/CAN.c **** *
 938:.\Generated_Source\PSoC5/CAN.c **** * Summary:
 939:.\Generated_Source\PSoC5/CAN.c **** *  This function returns error status of CAN Component.
 940:.\Generated_Source\PSoC5/CAN.c **** *
 941:.\Generated_Source\PSoC5/CAN.c **** * Parameters:
 942:.\Generated_Source\PSoC5/CAN.c **** *  None.
 943:.\Generated_Source\PSoC5/CAN.c **** *
 944:.\Generated_Source\PSoC5/CAN.c **** * Return:
 945:.\Generated_Source\PSoC5/CAN.c **** *  Error status.
 946:.\Generated_Source\PSoC5/CAN.c **** *
 947:.\Generated_Source\PSoC5/CAN.c **** *******************************************************************************/
 948:.\Generated_Source\PSoC5/CAN.c **** uint8 CAN_GetErrorState(void) 
 949:.\Generated_Source\PSoC5/CAN.c **** {
 1514              		.loc 1 949 0
 1515              		.cfi_startproc
 1516              		@ args = 0, pretend = 0, frame = 0
 1517              		@ frame_needed = 1, uses_anonymous_args = 0
 1518              		@ link register save eliminated.
 1519 0000 80B4     		push	{r7}
 1520              	.LCFI50:
 1521              		.cfi_def_cfa_offset 4
 1522              		.cfi_offset 7, -4
 1523 0002 00AF     		add	r7, sp, #0
 1524              	.LCFI51:
 1525              		.cfi_def_cfa_register 7
 950:.\Generated_Source\PSoC5/CAN.c ****     /* Get the error state of the receiver */
 951:.\Generated_Source\PSoC5/CAN.c ****     return (CAN_ERR_SR_REG.byte[2u] & CAN_ERROR_STATE_MASK);
 1526              		.loc 1 951 0
 1527 0004 4AF20C03 		movw	r3, #40972
 1528 0008 C4F20003 		movt	r3, 16384
 1529 000c 9B78     		ldrb	r3, [r3, #2]
 1530 000e DBB2     		uxtb	r3, r3
 1531 0010 03F00303 		and	r3, r3, #3
 1532 0014 DBB2     		uxtb	r3, r3
 952:.\Generated_Source\PSoC5/CAN.c **** }
 1533              		.loc 1 952 0
 1534 0016 1846     		mov	r0, r3
 1535 0018 BD46     		mov	sp, r7
 1536 001a 80BC     		pop	{r7}
 1537 001c 7047     		bx	lr
 1538              		.cfi_endproc
 1539              	.LFE18:
 1540              		.size	CAN_GetErrorState, .-CAN_GetErrorState
 1541 001e 00BF     		.section	.text.CAN_RxBufConfig,"ax",%progbits
 1542              		.align	2
 1543              		.global	CAN_RxBufConfig
 1544              		.thumb
 1545              		.thumb_func
 1546              		.type	CAN_RxBufConfig, %function
 1547              	CAN_RxBufConfig:
 1548              	.LFB19:
ARM GAS  C:\Users\CHAIYA~1\AppData\Local\Temp\ccQBCuX6.s 			page 45


 953:.\Generated_Source\PSoC5/CAN.c **** 
 954:.\Generated_Source\PSoC5/CAN.c **** 
 955:.\Generated_Source\PSoC5/CAN.c **** /*******************************************************************************
 956:.\Generated_Source\PSoC5/CAN.c **** * FUNCTION NAME:   CAN_RxBufConfig
 957:.\Generated_Source\PSoC5/CAN.c **** ********************************************************************************
 958:.\Generated_Source\PSoC5/CAN.c **** *
 959:.\Generated_Source\PSoC5/CAN.c **** * Summary:
 960:.\Generated_Source\PSoC5/CAN.c **** *  This function configures all receive registers for particular mailbox.
 961:.\Generated_Source\PSoC5/CAN.c **** *
 962:.\Generated_Source\PSoC5/CAN.c **** * Parameters:
 963:.\Generated_Source\PSoC5/CAN.c **** *  rxConfig: Pointer to structure that contain all required values to configure
 964:.\Generated_Source\PSoC5/CAN.c **** *  all receive registers for particular mailbox.
 965:.\Generated_Source\PSoC5/CAN.c **** *
 966:.\Generated_Source\PSoC5/CAN.c **** * Return:
 967:.\Generated_Source\PSoC5/CAN.c **** *  Indication if particular configuration has been accepted or rejected.
 968:.\Generated_Source\PSoC5/CAN.c **** *   Define                             Description
 969:.\Generated_Source\PSoC5/CAN.c **** *    CYRET_SUCCESS                      Function passed successfully
 970:.\Generated_Source\PSoC5/CAN.c **** *    CAN_FAIL              Function failed
 971:.\Generated_Source\PSoC5/CAN.c **** *
 972:.\Generated_Source\PSoC5/CAN.c **** *******************************************************************************/
 973:.\Generated_Source\PSoC5/CAN.c **** uint8 CAN_RxBufConfig(const CAN_RX_CFG *rxConfig)
 974:.\Generated_Source\PSoC5/CAN.c ****                                    
 975:.\Generated_Source\PSoC5/CAN.c **** {
 1549              		.loc 1 975 0
 1550              		.cfi_startproc
 1551              		@ args = 0, pretend = 0, frame = 16
 1552              		@ frame_needed = 1, uses_anonymous_args = 0
 1553              		@ link register save eliminated.
 1554 0000 80B4     		push	{r7}
 1555              	.LCFI52:
 1556              		.cfi_def_cfa_offset 4
 1557              		.cfi_offset 7, -4
 1558 0002 85B0     		sub	sp, sp, #20
 1559              	.LCFI53:
 1560              		.cfi_def_cfa_offset 24
 1561 0004 00AF     		add	r7, sp, #0
 1562              	.LCFI54:
 1563              		.cfi_def_cfa_register 7
 1564 0006 7860     		str	r0, [r7, #4]
 976:.\Generated_Source\PSoC5/CAN.c ****     uint8 result = CAN_FAIL;
 1565              		.loc 1 976 0
 1566 0008 4FF00103 		mov	r3, #1
 1567 000c FB73     		strb	r3, [r7, #15]
 977:.\Generated_Source\PSoC5/CAN.c **** 
 978:.\Generated_Source\PSoC5/CAN.c ****     /* Write RX CMD Register */
 979:.\Generated_Source\PSoC5/CAN.c ****     CY_SET_REG32((reg32 *) &CAN_RX[rxConfig->rxmailbox].rxcmd, (rxConfig->rxcmd |
 1568              		.loc 1 979 0
 1569 000e 7B68     		ldr	r3, [r7, #4]
 1570 0010 1B78     		ldrb	r3, [r3, #0]	@ zero_extendqisi2
 1571 0012 4FEA4312 		lsl	r2, r3, #5
 1572 0016 4AF2A003 		movw	r3, #41120
 1573 001a C4F20003 		movt	r3, 16384
 1574 001e D318     		adds	r3, r2, r3
 1575 0020 7A68     		ldr	r2, [r7, #4]
 1576 0022 5268     		ldr	r2, [r2, #4]
 1577 0024 42F08012 		orr	r2, r2, #8388736
 1578 0028 1A60     		str	r2, [r3, #0]
ARM GAS  C:\Users\CHAIYA~1\AppData\Local\Temp\ccQBCuX6.s 			page 46


 980:.\Generated_Source\PSoC5/CAN.c ****                  CAN_RX_WPN_SET));
 981:.\Generated_Source\PSoC5/CAN.c ****     if ((CY_GET_REG32((reg32 *) &CAN_RX[rxConfig->rxmailbox].rxcmd) &
 1579              		.loc 1 981 0
 1580 002a 7B68     		ldr	r3, [r7, #4]
 1581 002c 1B78     		ldrb	r3, [r3, #0]	@ zero_extendqisi2
 1582 002e 4FEA4312 		lsl	r2, r3, #5
 1583 0032 4AF2A003 		movw	r3, #41120
 1584 0036 C4F20003 		movt	r3, 16384
 1585 003a D318     		adds	r3, r2, r3
 1586 003c 1B68     		ldr	r3, [r3, #0]
 1587 003e 03F07F12 		and	r2, r3, #8323199
 982:.\Generated_Source\PSoC5/CAN.c ****          CAN_RX_READ_BACK_MASK) == (rxConfig->rxcmd & CAN_RX_WPN_CLEAR))
 1588              		.loc 1 982 0
 1589 0042 7B68     		ldr	r3, [r7, #4]
 1590 0044 5B68     		ldr	r3, [r3, #4]
 1591 0046 23F08013 		bic	r3, r3, #8388736
 981:.\Generated_Source\PSoC5/CAN.c ****     if ((CY_GET_REG32((reg32 *) &CAN_RX[rxConfig->rxmailbox].rxcmd) &
 1592              		.loc 1 981 0
 1593 004a 9A42     		cmp	r2, r3
 1594 004c 77D1     		bne	.L76
 983:.\Generated_Source\PSoC5/CAN.c ****     {
 984:.\Generated_Source\PSoC5/CAN.c ****         /* Write RX AMR Register */
 985:.\Generated_Source\PSoC5/CAN.c ****         CY_SET_REG32((reg32 *) &CAN_RX[rxConfig->rxmailbox].rxamr, rxConfig->rxamr);
 1595              		.loc 1 985 0
 1596 004e 7B68     		ldr	r3, [r7, #4]
 1597 0050 1B78     		ldrb	r3, [r3, #0]	@ zero_extendqisi2
 1598 0052 4FEA4312 		lsl	r2, r3, #5
 1599 0056 4AF2A003 		movw	r3, #41120
 1600 005a C4F20003 		movt	r3, 16384
 1601 005e D318     		adds	r3, r2, r3
 1602 0060 03F11003 		add	r3, r3, #16
 1603 0064 7A68     		ldr	r2, [r7, #4]
 1604 0066 9268     		ldr	r2, [r2, #8]
 1605 0068 1A60     		str	r2, [r3, #0]
 986:.\Generated_Source\PSoC5/CAN.c ****         if (CY_GET_REG32((reg32 *) &CAN_RX[rxConfig->rxmailbox].rxamr) == rxConfig->rxamr)
 1606              		.loc 1 986 0
 1607 006a 7B68     		ldr	r3, [r7, #4]
 1608 006c 1B78     		ldrb	r3, [r3, #0]	@ zero_extendqisi2
 1609 006e 4FEA4312 		lsl	r2, r3, #5
 1610 0072 4AF2A003 		movw	r3, #41120
 1611 0076 C4F20003 		movt	r3, 16384
 1612 007a D318     		adds	r3, r2, r3
 1613 007c 03F11003 		add	r3, r3, #16
 1614 0080 1A68     		ldr	r2, [r3, #0]
 1615 0082 7B68     		ldr	r3, [r7, #4]
 1616 0084 9B68     		ldr	r3, [r3, #8]
 1617 0086 9A42     		cmp	r2, r3
 1618 0088 59D1     		bne	.L76
 987:.\Generated_Source\PSoC5/CAN.c ****         {
 988:.\Generated_Source\PSoC5/CAN.c ****             /* Write RX ACR Register */
 989:.\Generated_Source\PSoC5/CAN.c ****             CY_SET_REG32((reg32 *) &CAN_RX[rxConfig->rxmailbox].rxacr, rxConfig->rxacr);
 1619              		.loc 1 989 0
 1620 008a 7B68     		ldr	r3, [r7, #4]
 1621 008c 1B78     		ldrb	r3, [r3, #0]	@ zero_extendqisi2
 1622 008e 4FEA4312 		lsl	r2, r3, #5
 1623 0092 4AF2A003 		movw	r3, #41120
 1624 0096 C4F20003 		movt	r3, 16384
ARM GAS  C:\Users\CHAIYA~1\AppData\Local\Temp\ccQBCuX6.s 			page 47


 1625 009a D318     		adds	r3, r2, r3
 1626 009c 03F11403 		add	r3, r3, #20
 1627 00a0 7A68     		ldr	r2, [r7, #4]
 1628 00a2 D268     		ldr	r2, [r2, #12]
 1629 00a4 1A60     		str	r2, [r3, #0]
 990:.\Generated_Source\PSoC5/CAN.c ****             if (CY_GET_REG32((reg32 *) &CAN_RX[rxConfig->rxmailbox].rxacr) == rxConfig->rxacr)
 1630              		.loc 1 990 0
 1631 00a6 7B68     		ldr	r3, [r7, #4]
 1632 00a8 1B78     		ldrb	r3, [r3, #0]	@ zero_extendqisi2
 1633 00aa 4FEA4312 		lsl	r2, r3, #5
 1634 00ae 4AF2A003 		movw	r3, #41120
 1635 00b2 C4F20003 		movt	r3, 16384
 1636 00b6 D318     		adds	r3, r2, r3
 1637 00b8 03F11403 		add	r3, r3, #20
 1638 00bc 1A68     		ldr	r2, [r3, #0]
 1639 00be 7B68     		ldr	r3, [r7, #4]
 1640 00c0 DB68     		ldr	r3, [r3, #12]
 1641 00c2 9A42     		cmp	r2, r3
 1642 00c4 3BD1     		bne	.L76
 991:.\Generated_Source\PSoC5/CAN.c ****             {
 992:.\Generated_Source\PSoC5/CAN.c ****                 /* Write RX AMRD Register */
 993:.\Generated_Source\PSoC5/CAN.c ****                 CY_SET_REG32((reg32 *) &CAN_RX[rxConfig->rxmailbox].rxamrd, 0xFFFFFFFFu);
 1643              		.loc 1 993 0
 1644 00c6 7B68     		ldr	r3, [r7, #4]
 1645 00c8 1B78     		ldrb	r3, [r3, #0]	@ zero_extendqisi2
 1646 00ca 4FEA4312 		lsl	r2, r3, #5
 1647 00ce 4AF2A003 		movw	r3, #41120
 1648 00d2 C4F20003 		movt	r3, 16384
 1649 00d6 D318     		adds	r3, r2, r3
 1650 00d8 03F11803 		add	r3, r3, #24
 1651 00dc 4FF0FF32 		mov	r2, #-1
 1652 00e0 1A60     		str	r2, [r3, #0]
 994:.\Generated_Source\PSoC5/CAN.c ****                 if (CY_GET_REG32((reg32 *) &CAN_RX[rxConfig->rxmailbox].rxamrd) == 0xFFFFFFFFu)
 1653              		.loc 1 994 0
 1654 00e2 7B68     		ldr	r3, [r7, #4]
 1655 00e4 1B78     		ldrb	r3, [r3, #0]	@ zero_extendqisi2
 1656 00e6 4FEA4312 		lsl	r2, r3, #5
 1657 00ea 4AF2A003 		movw	r3, #41120
 1658 00ee C4F20003 		movt	r3, 16384
 1659 00f2 D318     		adds	r3, r2, r3
 1660 00f4 03F11803 		add	r3, r3, #24
 1661 00f8 1B68     		ldr	r3, [r3, #0]
 1662 00fa B3F1FF3F 		cmp	r3, #-1
 1663 00fe 1ED1     		bne	.L76
 995:.\Generated_Source\PSoC5/CAN.c ****                 {
 996:.\Generated_Source\PSoC5/CAN.c ****                     /* Write RX ACRD Register */
 997:.\Generated_Source\PSoC5/CAN.c ****                     CY_SET_REG32((reg32 *) &CAN_RX[rxConfig->rxmailbox].rxacrd, 0x00000000u);
 1664              		.loc 1 997 0
 1665 0100 7B68     		ldr	r3, [r7, #4]
 1666 0102 1B78     		ldrb	r3, [r3, #0]	@ zero_extendqisi2
 1667 0104 4FEA4312 		lsl	r2, r3, #5
 1668 0108 4AF2A003 		movw	r3, #41120
 1669 010c C4F20003 		movt	r3, 16384
 1670 0110 D318     		adds	r3, r2, r3
 1671 0112 03F11C03 		add	r3, r3, #28
 1672 0116 4FF00002 		mov	r2, #0
 1673 011a 1A60     		str	r2, [r3, #0]
ARM GAS  C:\Users\CHAIYA~1\AppData\Local\Temp\ccQBCuX6.s 			page 48


 998:.\Generated_Source\PSoC5/CAN.c ****                     if (CY_GET_REG32((reg32 *) &CAN_RX[rxConfig->rxmailbox].rxacrd) == 0x00000000u)
 1674              		.loc 1 998 0
 1675 011c 7B68     		ldr	r3, [r7, #4]
 1676 011e 1B78     		ldrb	r3, [r3, #0]	@ zero_extendqisi2
 1677 0120 4FEA4312 		lsl	r2, r3, #5
 1678 0124 4AF2A003 		movw	r3, #41120
 1679 0128 C4F20003 		movt	r3, 16384
 1680 012c D318     		adds	r3, r2, r3
 1681 012e 03F11C03 		add	r3, r3, #28
 1682 0132 1B68     		ldr	r3, [r3, #0]
 1683 0134 002B     		cmp	r3, #0
 1684 0136 02D1     		bne	.L76
 999:.\Generated_Source\PSoC5/CAN.c ****                     {
1000:.\Generated_Source\PSoC5/CAN.c ****                             result = CYRET_SUCCESS;
 1685              		.loc 1 1000 0
 1686 0138 4FF00003 		mov	r3, #0
 1687 013c FB73     		strb	r3, [r7, #15]
 1688              	.L76:
1001:.\Generated_Source\PSoC5/CAN.c ****                     }
1002:.\Generated_Source\PSoC5/CAN.c ****                 }
1003:.\Generated_Source\PSoC5/CAN.c ****             }
1004:.\Generated_Source\PSoC5/CAN.c ****         }
1005:.\Generated_Source\PSoC5/CAN.c ****     }
1006:.\Generated_Source\PSoC5/CAN.c **** 
1007:.\Generated_Source\PSoC5/CAN.c ****     return (result);
 1689              		.loc 1 1007 0
 1690 013e FB7B     		ldrb	r3, [r7, #15]	@ zero_extendqisi2
1008:.\Generated_Source\PSoC5/CAN.c **** }
 1691              		.loc 1 1008 0
 1692 0140 1846     		mov	r0, r3
 1693 0142 07F11407 		add	r7, r7, #20
 1694 0146 BD46     		mov	sp, r7
 1695 0148 80BC     		pop	{r7}
 1696 014a 7047     		bx	lr
 1697              		.cfi_endproc
 1698              	.LFE19:
 1699              		.size	CAN_RxBufConfig, .-CAN_RxBufConfig
 1700              		.section	.text.CAN_TxBufConfig,"ax",%progbits
 1701              		.align	2
 1702              		.global	CAN_TxBufConfig
 1703              		.thumb
 1704              		.thumb_func
 1705              		.type	CAN_TxBufConfig, %function
 1706              	CAN_TxBufConfig:
 1707              	.LFB20:
1009:.\Generated_Source\PSoC5/CAN.c **** 
1010:.\Generated_Source\PSoC5/CAN.c **** 
1011:.\Generated_Source\PSoC5/CAN.c **** /*******************************************************************************
1012:.\Generated_Source\PSoC5/CAN.c **** * FUNCTION NAME:   CAN_TxBufConfig
1013:.\Generated_Source\PSoC5/CAN.c **** ********************************************************************************
1014:.\Generated_Source\PSoC5/CAN.c **** *
1015:.\Generated_Source\PSoC5/CAN.c **** * Summary:
1016:.\Generated_Source\PSoC5/CAN.c **** *  This function configures all transmit registers for particular mailbox.
1017:.\Generated_Source\PSoC5/CAN.c **** *  Mailbox number contains CAN_TX_CFG structure.
1018:.\Generated_Source\PSoC5/CAN.c **** *
1019:.\Generated_Source\PSoC5/CAN.c **** * Parameters:
1020:.\Generated_Source\PSoC5/CAN.c **** *  txConfig: Pointer to structure that contain all required values to configure
ARM GAS  C:\Users\CHAIYA~1\AppData\Local\Temp\ccQBCuX6.s 			page 49


1021:.\Generated_Source\PSoC5/CAN.c **** *  all transmit registers for particular mailbox.
1022:.\Generated_Source\PSoC5/CAN.c **** *
1023:.\Generated_Source\PSoC5/CAN.c **** * Return:
1024:.\Generated_Source\PSoC5/CAN.c **** *  Indication if particular configuration has been accepted or rejected.
1025:.\Generated_Source\PSoC5/CAN.c **** *   Define                             Description
1026:.\Generated_Source\PSoC5/CAN.c **** *    CYRET_SUCCESS                      Function passed successfully
1027:.\Generated_Source\PSoC5/CAN.c **** *    CAN_FAIL              Function failed
1028:.\Generated_Source\PSoC5/CAN.c **** *
1029:.\Generated_Source\PSoC5/CAN.c **** *******************************************************************************/
1030:.\Generated_Source\PSoC5/CAN.c **** uint8 CAN_TxBufConfig(const CAN_TX_CFG *txConfig) 
1031:.\Generated_Source\PSoC5/CAN.c ****                                    
1032:.\Generated_Source\PSoC5/CAN.c **** {
 1708              		.loc 1 1032 0
 1709              		.cfi_startproc
 1710              		@ args = 0, pretend = 0, frame = 16
 1711              		@ frame_needed = 1, uses_anonymous_args = 0
 1712              		@ link register save eliminated.
 1713 0000 80B4     		push	{r7}
 1714              	.LCFI55:
 1715              		.cfi_def_cfa_offset 4
 1716              		.cfi_offset 7, -4
 1717 0002 85B0     		sub	sp, sp, #20
 1718              	.LCFI56:
 1719              		.cfi_def_cfa_offset 24
 1720 0004 00AF     		add	r7, sp, #0
 1721              	.LCFI57:
 1722              		.cfi_def_cfa_register 7
 1723 0006 7860     		str	r0, [r7, #4]
1033:.\Generated_Source\PSoC5/CAN.c ****     uint8 result = CAN_FAIL;
 1724              		.loc 1 1033 0
 1725 0008 4FF00103 		mov	r3, #1
 1726 000c FB73     		strb	r3, [r7, #15]
1034:.\Generated_Source\PSoC5/CAN.c **** 
1035:.\Generated_Source\PSoC5/CAN.c ****     /* Write TX CMD Register */
1036:.\Generated_Source\PSoC5/CAN.c ****     CY_SET_REG32((reg32 *) &CAN_TX[txConfig->txmailbox].txcmd, (txConfig->txcmd |
 1727              		.loc 1 1036 0
 1728 000e 7B68     		ldr	r3, [r7, #4]
 1729 0010 1B78     		ldrb	r3, [r3, #0]	@ zero_extendqisi2
 1730 0012 4FEA0312 		lsl	r2, r3, #4
 1731 0016 4AF22003 		movw	r3, #40992
 1732 001a C4F20003 		movt	r3, 16384
 1733 001e D318     		adds	r3, r2, r3
 1734 0020 1A46     		mov	r2, r3
 1735 0022 7B68     		ldr	r3, [r7, #4]
 1736 0024 5B68     		ldr	r3, [r3, #4]
 1737 0026 43F40003 		orr	r3, r3, #8388608
 1738 002a 43F00803 		orr	r3, r3, #8
 1739 002e 1360     		str	r3, [r2, #0]
1037:.\Generated_Source\PSoC5/CAN.c ****                  CAN_TX_WPN_SET));
1038:.\Generated_Source\PSoC5/CAN.c ****     if ((CY_GET_REG32((reg32 *) & CAN_TX[txConfig->txmailbox].txcmd) &
 1740              		.loc 1 1038 0
 1741 0030 7B68     		ldr	r3, [r7, #4]
 1742 0032 1B78     		ldrb	r3, [r3, #0]	@ zero_extendqisi2
 1743 0034 4FEA0312 		lsl	r2, r3, #4
 1744 0038 4AF22003 		movw	r3, #40992
 1745 003c C4F20003 		movt	r3, 16384
 1746 0040 D318     		adds	r3, r2, r3
ARM GAS  C:\Users\CHAIYA~1\AppData\Local\Temp\ccQBCuX6.s 			page 50


 1747 0042 1A68     		ldr	r2, [r3, #0]
 1748 0044 4FF0F703 		mov	r3, #247
 1749 0048 C0F27F03 		movt	r3, 127
 1750 004c 1340     		ands	r3, r3, r2
1039:.\Generated_Source\PSoC5/CAN.c ****         CAN_TX_READ_BACK_MASK) == (txConfig->txcmd & CAN_TX_WPN_CLEAR))
 1751              		.loc 1 1039 0
 1752 004e 7A68     		ldr	r2, [r7, #4]
 1753 0050 5268     		ldr	r2, [r2, #4]
 1754 0052 22F40002 		bic	r2, r2, #8388608
 1755 0056 22F00802 		bic	r2, r2, #8
1038:.\Generated_Source\PSoC5/CAN.c ****     if ((CY_GET_REG32((reg32 *) & CAN_TX[txConfig->txmailbox].txcmd) &
 1756              		.loc 1 1038 0
 1757 005a 9342     		cmp	r3, r2
 1758 005c 20D1     		bne	.L79
1040:.\Generated_Source\PSoC5/CAN.c ****     {
1041:.\Generated_Source\PSoC5/CAN.c ****         /* Write TX ID Register */
1042:.\Generated_Source\PSoC5/CAN.c ****         CY_SET_REG32( (reg32 *) &CAN_TX[txConfig->txmailbox].txid, txConfig->txid);
 1759              		.loc 1 1042 0
 1760 005e 7B68     		ldr	r3, [r7, #4]
 1761 0060 1B78     		ldrb	r3, [r3, #0]	@ zero_extendqisi2
 1762 0062 4FEA0312 		lsl	r2, r3, #4
 1763 0066 4AF22003 		movw	r3, #40992
 1764 006a C4F20003 		movt	r3, 16384
 1765 006e D318     		adds	r3, r2, r3
 1766 0070 03F10403 		add	r3, r3, #4
 1767 0074 7A68     		ldr	r2, [r7, #4]
 1768 0076 9268     		ldr	r2, [r2, #8]
 1769 0078 1A60     		str	r2, [r3, #0]
1043:.\Generated_Source\PSoC5/CAN.c ****         if (CY_GET_REG32( (reg32 *) &CAN_TX[txConfig->txmailbox].txid) == txConfig->txid)
 1770              		.loc 1 1043 0
 1771 007a 7B68     		ldr	r3, [r7, #4]
 1772 007c 1B78     		ldrb	r3, [r3, #0]	@ zero_extendqisi2
 1773 007e 4FEA0312 		lsl	r2, r3, #4
 1774 0082 4AF22003 		movw	r3, #40992
 1775 0086 C4F20003 		movt	r3, 16384
 1776 008a D318     		adds	r3, r2, r3
 1777 008c 03F10403 		add	r3, r3, #4
 1778 0090 1A68     		ldr	r2, [r3, #0]
 1779 0092 7B68     		ldr	r3, [r7, #4]
 1780 0094 9B68     		ldr	r3, [r3, #8]
 1781 0096 9A42     		cmp	r2, r3
 1782 0098 02D1     		bne	.L79
1044:.\Generated_Source\PSoC5/CAN.c ****         {
1045:.\Generated_Source\PSoC5/CAN.c ****             result = CYRET_SUCCESS;
 1783              		.loc 1 1045 0
 1784 009a 4FF00003 		mov	r3, #0
 1785 009e FB73     		strb	r3, [r7, #15]
 1786              	.L79:
1046:.\Generated_Source\PSoC5/CAN.c ****         }
1047:.\Generated_Source\PSoC5/CAN.c ****     }
1048:.\Generated_Source\PSoC5/CAN.c **** 
1049:.\Generated_Source\PSoC5/CAN.c ****     return (result);
 1787              		.loc 1 1049 0
 1788 00a0 FB7B     		ldrb	r3, [r7, #15]	@ zero_extendqisi2
1050:.\Generated_Source\PSoC5/CAN.c **** }
 1789              		.loc 1 1050 0
 1790 00a2 1846     		mov	r0, r3
ARM GAS  C:\Users\CHAIYA~1\AppData\Local\Temp\ccQBCuX6.s 			page 51


 1791 00a4 07F11407 		add	r7, r7, #20
 1792 00a8 BD46     		mov	sp, r7
 1793 00aa 80BC     		pop	{r7}
 1794 00ac 7047     		bx	lr
 1795              		.cfi_endproc
 1796              	.LFE20:
 1797              		.size	CAN_TxBufConfig, .-CAN_TxBufConfig
 1798 00ae 00BF     		.section	.rodata
 1799              		.align	2
 1800              		.type	CAN_TXConfigStruct.4856, %object
 1801              		.size	CAN_TXConfigStruct.4856, 96
 1802              	CAN_TXConfigStruct.4856:
 1803 0000 00       		.byte	0
 1804 0001 000000   		.space	3
 1805 0004 04000400 		.word	262148
 1806 0008 00002000 		.word	2097152
 1807 000c 01       		.byte	1
 1808 000d 000000   		.space	3
 1809 0010 04000600 		.word	393220
 1810 0014 00002000 		.word	2097152
 1811 0018 02       		.byte	2
 1812 0019 000000   		.space	3
 1813 001c 04000100 		.word	65540
 1814 0020 00002000 		.word	2097152
 1815 0024 03       		.byte	3
 1816 0025 000000   		.space	3
 1817 0028 00000000 		.word	0
 1818 002c 00000000 		.word	0
 1819 0030 04       		.byte	4
 1820 0031 000000   		.space	3
 1821 0034 00000000 		.word	0
 1822 0038 00000000 		.word	0
 1823 003c 05       		.byte	5
 1824 003d 000000   		.space	3
 1825 0040 00000000 		.word	0
 1826 0044 00000000 		.word	0
 1827 0048 06       		.byte	6
 1828 0049 000000   		.space	3
 1829 004c 00000000 		.word	0
 1830 0050 00000000 		.word	0
 1831 0054 07       		.byte	7
 1832 0055 000000   		.space	3
 1833 0058 00000000 		.word	0
 1834 005c 00000000 		.word	0
 1835              		.align	2
 1836              		.type	CAN_RXConfigStruct.4855, %object
 1837              		.size	CAN_RXConfigStruct.4855, 256
 1838              	CAN_RXConfigStruct.4855:
 1839 0060 00       		.byte	0
 1840 0061 000000   		.space	3
 1841 0064 28000000 		.word	40
 1842 0068 F9FF1F00 		.word	2097145
 1843 006c 00002000 		.word	2097152
 1844 0070 01       		.byte	1
 1845 0071 000000   		.space	3
 1846 0074 00000000 		.word	0
 1847 0078 00000000 		.word	0
ARM GAS  C:\Users\CHAIYA~1\AppData\Local\Temp\ccQBCuX6.s 			page 52


 1848 007c 00000000 		.word	0
 1849 0080 02       		.byte	2
 1850 0081 000000   		.space	3
 1851 0084 00000000 		.word	0
 1852 0088 00000000 		.word	0
 1853 008c 00000000 		.word	0
 1854 0090 03       		.byte	3
 1855 0091 000000   		.space	3
 1856 0094 00000000 		.word	0
 1857 0098 00000000 		.word	0
 1858 009c 00000000 		.word	0
 1859 00a0 04       		.byte	4
 1860 00a1 000000   		.space	3
 1861 00a4 00000000 		.word	0
 1862 00a8 00000000 		.word	0
 1863 00ac 00000000 		.word	0
 1864 00b0 05       		.byte	5
 1865 00b1 000000   		.space	3
 1866 00b4 00000000 		.word	0
 1867 00b8 00000000 		.word	0
 1868 00bc 00000000 		.word	0
 1869 00c0 06       		.byte	6
 1870 00c1 000000   		.space	3
 1871 00c4 00000000 		.word	0
 1872 00c8 00000000 		.word	0
 1873 00cc 00000000 		.word	0
 1874 00d0 07       		.byte	7
 1875 00d1 000000   		.space	3
 1876 00d4 00000000 		.word	0
 1877 00d8 00000000 		.word	0
 1878 00dc 00000000 		.word	0
 1879 00e0 08       		.byte	8
 1880 00e1 000000   		.space	3
 1881 00e4 00000000 		.word	0
 1882 00e8 00000000 		.word	0
 1883 00ec 00000000 		.word	0
 1884 00f0 09       		.byte	9
 1885 00f1 000000   		.space	3
 1886 00f4 00000000 		.word	0
 1887 00f8 00000000 		.word	0
 1888 00fc 00000000 		.word	0
 1889 0100 0A       		.byte	10
 1890 0101 000000   		.space	3
 1891 0104 00000000 		.word	0
 1892 0108 00000000 		.word	0
 1893 010c 00000000 		.word	0
 1894 0110 0B       		.byte	11
 1895 0111 000000   		.space	3
 1896 0114 00000000 		.word	0
 1897 0118 00000000 		.word	0
 1898 011c 00000000 		.word	0
 1899 0120 0C       		.byte	12
 1900 0121 000000   		.space	3
 1901 0124 00000000 		.word	0
 1902 0128 00000000 		.word	0
 1903 012c 00000000 		.word	0
 1904 0130 0D       		.byte	13
ARM GAS  C:\Users\CHAIYA~1\AppData\Local\Temp\ccQBCuX6.s 			page 53


 1905 0131 000000   		.space	3
 1906 0134 00000000 		.word	0
 1907 0138 00000000 		.word	0
 1908 013c 00000000 		.word	0
 1909 0140 0E       		.byte	14
 1910 0141 000000   		.space	3
 1911 0144 00000000 		.word	0
 1912 0148 00000000 		.word	0
 1913 014c 00000000 		.word	0
 1914 0150 0F       		.byte	15
 1915 0151 000000   		.space	3
 1916 0154 00000000 		.word	0
 1917 0158 00000000 		.word	0
 1918 015c 00000000 		.word	0
 1919              		.text
 1920              	.Letext0:
 1921              		.file 2 ".\\Generated_Source\\PSoC5\\cytypes.h"
 1922              		.file 3 ".\\Generated_Source\\PSoC5\\CAN.h"