ARM GAS  C:\Users\CHAIYA~1\AppData\Local\Temp\ccQTahQS.s 			page 1


   1              		.syntax unified
   2              		.cpu cortex-m3
   3              		.fpu softvfp
   4              		.eabi_attribute 20, 1
   5              		.eabi_attribute 21, 1
   6              		.eabi_attribute 23, 3
   7              		.eabi_attribute 24, 1
   8              		.eabi_attribute 25, 1
   9              		.eabi_attribute 26, 1
  10              		.eabi_attribute 30, 6
  11              		.eabi_attribute 34, 1
  12              		.eabi_attribute 18, 4
  13              		.thumb
  14              		.file	"CAN_INT.c"
  15              		.text
  16              	.Ltext0:
  17              		.cfi_sections	.debug_frame
  18              		.section	.text.CAN_BusOffIsr,"ax",%progbits
  19              		.align	2
  20              		.global	CAN_BusOffIsr
  21              		.thumb
  22              		.thumb_func
  23              		.type	CAN_BusOffIsr, %function
  24              	CAN_BusOffIsr:
  25              	.LFB0:
  26              		.file 1 ".\\Generated_Source\\PSoC5\\CAN_INT.c"
   1:.\Generated_Source\PSoC5/CAN_INT.c **** /*******************************************************************************
   2:.\Generated_Source\PSoC5/CAN_INT.c **** * File Name: CAN_INT.c
   3:.\Generated_Source\PSoC5/CAN_INT.c **** * Version 2.30
   4:.\Generated_Source\PSoC5/CAN_INT.c **** *
   5:.\Generated_Source\PSoC5/CAN_INT.c **** * Description:
   6:.\Generated_Source\PSoC5/CAN_INT.c **** *  This file contains the Interrupt Service Routine (ISR) for the CAN
   7:.\Generated_Source\PSoC5/CAN_INT.c **** *  Component. Interrupt handlers functions generate accordingly to PSoC Creator 
   8:.\Generated_Source\PSoC5/CAN_INT.c **** *  Customizer inputs.
   9:.\Generated_Source\PSoC5/CAN_INT.c **** *
  10:.\Generated_Source\PSoC5/CAN_INT.c **** * Note:
  11:.\Generated_Source\PSoC5/CAN_INT.c **** *  None
  12:.\Generated_Source\PSoC5/CAN_INT.c **** *
  13:.\Generated_Source\PSoC5/CAN_INT.c **** ********************************************************************************
  14:.\Generated_Source\PSoC5/CAN_INT.c **** * Copyright 2008-2012, Cypress Semiconductor Corporation.  All rights reserved.
  15:.\Generated_Source\PSoC5/CAN_INT.c **** * You may use this file only in accordance with the license, terms, conditions,
  16:.\Generated_Source\PSoC5/CAN_INT.c **** * disclaimers, and limitations in the end user license agreement accompanying
  17:.\Generated_Source\PSoC5/CAN_INT.c **** * the software package with which this file was provided.
  18:.\Generated_Source\PSoC5/CAN_INT.c **** *******************************************************************************/
  19:.\Generated_Source\PSoC5/CAN_INT.c **** 
  20:.\Generated_Source\PSoC5/CAN_INT.c **** #include "CAN.h"
  21:.\Generated_Source\PSoC5/CAN_INT.c **** 
  22:.\Generated_Source\PSoC5/CAN_INT.c **** /* `#START CAN_INT_C_CODE_DEFINITION` */
  23:.\Generated_Source\PSoC5/CAN_INT.c **** 
  24:.\Generated_Source\PSoC5/CAN_INT.c **** /* `#END` */
  25:.\Generated_Source\PSoC5/CAN_INT.c **** 
  26:.\Generated_Source\PSoC5/CAN_INT.c **** #if (CAN_ARB_LOST)
  27:.\Generated_Source\PSoC5/CAN_INT.c **** 
  28:.\Generated_Source\PSoC5/CAN_INT.c ****     /*******************************************************************************
  29:.\Generated_Source\PSoC5/CAN_INT.c ****     * FUNCTION NAME:   CAN_ArbLost
  30:.\Generated_Source\PSoC5/CAN_INT.c ****     ********************************************************************************
  31:.\Generated_Source\PSoC5/CAN_INT.c ****     *
ARM GAS  C:\Users\CHAIYA~1\AppData\Local\Temp\ccQTahQS.s 			page 2


  32:.\Generated_Source\PSoC5/CAN_INT.c ****     * Summary:
  33:.\Generated_Source\PSoC5/CAN_INT.c ****     *  This function is entry point to Arbitration Lost Interrupt. Clears
  34:.\Generated_Source\PSoC5/CAN_INT.c ****     *  Arbitration Lost interrupt flag. Only generated if Arbitration Lost
  35:.\Generated_Source\PSoC5/CAN_INT.c ****     *  Interrupt enable in Customizer.
  36:.\Generated_Source\PSoC5/CAN_INT.c ****     *
  37:.\Generated_Source\PSoC5/CAN_INT.c ****     * Parameters:
  38:.\Generated_Source\PSoC5/CAN_INT.c ****     *  None.
  39:.\Generated_Source\PSoC5/CAN_INT.c ****     *
  40:.\Generated_Source\PSoC5/CAN_INT.c ****     * Return:
  41:.\Generated_Source\PSoC5/CAN_INT.c ****     *  None.
  42:.\Generated_Source\PSoC5/CAN_INT.c ****     * 
  43:.\Generated_Source\PSoC5/CAN_INT.c ****     * Reentrant:
  44:.\Generated_Source\PSoC5/CAN_INT.c ****     *  Depends on Customer code.
  45:.\Generated_Source\PSoC5/CAN_INT.c ****     *
  46:.\Generated_Source\PSoC5/CAN_INT.c ****     *******************************************************************************/
  47:.\Generated_Source\PSoC5/CAN_INT.c ****     void CAN_ArbLostIsr(void) 
  48:.\Generated_Source\PSoC5/CAN_INT.c ****     {
  49:.\Generated_Source\PSoC5/CAN_INT.c ****         /* Clear Arbitration Lost flag */
  50:.\Generated_Source\PSoC5/CAN_INT.c ****         CAN_INT_SR_REG.byte[0u] = CAN_ARBITRATION_LOST_MASK;
  51:.\Generated_Source\PSoC5/CAN_INT.c ****     
  52:.\Generated_Source\PSoC5/CAN_INT.c ****         /* `#START ARBITRATION_LOST_ISR` */
  53:.\Generated_Source\PSoC5/CAN_INT.c **** 
  54:.\Generated_Source\PSoC5/CAN_INT.c ****         /* `#END` */
  55:.\Generated_Source\PSoC5/CAN_INT.c ****     }
  56:.\Generated_Source\PSoC5/CAN_INT.c ****     
  57:.\Generated_Source\PSoC5/CAN_INT.c **** #endif /* CAN_ARB_LOST */
  58:.\Generated_Source\PSoC5/CAN_INT.c **** 
  59:.\Generated_Source\PSoC5/CAN_INT.c **** #if (CAN_OVERLOAD)
  60:.\Generated_Source\PSoC5/CAN_INT.c **** 
  61:.\Generated_Source\PSoC5/CAN_INT.c ****     /*******************************************************************************
  62:.\Generated_Source\PSoC5/CAN_INT.c ****     * FUNCTION NAME:   CAN_OvrLdErrror
  63:.\Generated_Source\PSoC5/CAN_INT.c ****     ********************************************************************************
  64:.\Generated_Source\PSoC5/CAN_INT.c ****     *
  65:.\Generated_Source\PSoC5/CAN_INT.c ****     * Summary:
  66:.\Generated_Source\PSoC5/CAN_INT.c ****     *  This function is entry point to Overload Error Interrupt. Clears Overload
  67:.\Generated_Source\PSoC5/CAN_INT.c ****     *  Error interrupt flag. Only generated if Overload Error Interrupt enable
  68:.\Generated_Source\PSoC5/CAN_INT.c ****     *  in Customizer.
  69:.\Generated_Source\PSoC5/CAN_INT.c ****     *
  70:.\Generated_Source\PSoC5/CAN_INT.c ****     * Parameters:
  71:.\Generated_Source\PSoC5/CAN_INT.c ****     *  None.
  72:.\Generated_Source\PSoC5/CAN_INT.c ****     *
  73:.\Generated_Source\PSoC5/CAN_INT.c ****     * Return:
  74:.\Generated_Source\PSoC5/CAN_INT.c ****     *  None.        
  75:.\Generated_Source\PSoC5/CAN_INT.c ****     *
  76:.\Generated_Source\PSoC5/CAN_INT.c ****     * Reentrant:
  77:.\Generated_Source\PSoC5/CAN_INT.c ****     *  Depends on Customer code.
  78:.\Generated_Source\PSoC5/CAN_INT.c ****     *
  79:.\Generated_Source\PSoC5/CAN_INT.c ****     *******************************************************************************/
  80:.\Generated_Source\PSoC5/CAN_INT.c ****     void CAN_OvrLdErrorIsr(void) 
  81:.\Generated_Source\PSoC5/CAN_INT.c ****     {
  82:.\Generated_Source\PSoC5/CAN_INT.c ****         /* Clear Overload Error flag */
  83:.\Generated_Source\PSoC5/CAN_INT.c ****         CAN_INT_SR_REG.byte[0u] = CAN_OVERLOAD_ERROR_MASK;
  84:.\Generated_Source\PSoC5/CAN_INT.c ****     
  85:.\Generated_Source\PSoC5/CAN_INT.c ****         /* `#START OVER_LOAD_ERROR_ISR` */
  86:.\Generated_Source\PSoC5/CAN_INT.c **** 
  87:.\Generated_Source\PSoC5/CAN_INT.c ****         /* `#END` */
  88:.\Generated_Source\PSoC5/CAN_INT.c ****     }
ARM GAS  C:\Users\CHAIYA~1\AppData\Local\Temp\ccQTahQS.s 			page 3


  89:.\Generated_Source\PSoC5/CAN_INT.c ****     
  90:.\Generated_Source\PSoC5/CAN_INT.c **** #endif /* CAN_OVERLOAD */
  91:.\Generated_Source\PSoC5/CAN_INT.c **** 
  92:.\Generated_Source\PSoC5/CAN_INT.c **** #if (CAN_BIT_ERR)
  93:.\Generated_Source\PSoC5/CAN_INT.c **** 
  94:.\Generated_Source\PSoC5/CAN_INT.c ****     /*******************************************************************************
  95:.\Generated_Source\PSoC5/CAN_INT.c ****     * FUNCTION NAME:   CAN_BitError
  96:.\Generated_Source\PSoC5/CAN_INT.c ****     ********************************************************************************
  97:.\Generated_Source\PSoC5/CAN_INT.c ****     *
  98:.\Generated_Source\PSoC5/CAN_INT.c ****     * Summary:
  99:.\Generated_Source\PSoC5/CAN_INT.c ****     *  This function is entry point to Bit Error Interrupt. Clears Bit Error
 100:.\Generated_Source\PSoC5/CAN_INT.c ****     *  interrupt flag. Only generated if Bit Error Interrupt enable in Customizer.
 101:.\Generated_Source\PSoC5/CAN_INT.c ****     *
 102:.\Generated_Source\PSoC5/CAN_INT.c ****     * Parameters:
 103:.\Generated_Source\PSoC5/CAN_INT.c ****     *  None.
 104:.\Generated_Source\PSoC5/CAN_INT.c ****     *
 105:.\Generated_Source\PSoC5/CAN_INT.c ****     * Return:
 106:.\Generated_Source\PSoC5/CAN_INT.c ****     *  None.
 107:.\Generated_Source\PSoC5/CAN_INT.c ****     *
 108:.\Generated_Source\PSoC5/CAN_INT.c ****     * Reentrant:
 109:.\Generated_Source\PSoC5/CAN_INT.c ****     *  Depends on Customer code.
 110:.\Generated_Source\PSoC5/CAN_INT.c ****     *
 111:.\Generated_Source\PSoC5/CAN_INT.c ****     *******************************************************************************/
 112:.\Generated_Source\PSoC5/CAN_INT.c ****     void CAN_BitErrorIsr(void) 
 113:.\Generated_Source\PSoC5/CAN_INT.c ****     {
 114:.\Generated_Source\PSoC5/CAN_INT.c ****         /* Clear Bit Error flag */
 115:.\Generated_Source\PSoC5/CAN_INT.c ****         CAN_INT_SR_REG.byte[0u] = CAN_BIT_ERROR_MASK;
 116:.\Generated_Source\PSoC5/CAN_INT.c ****     
 117:.\Generated_Source\PSoC5/CAN_INT.c ****         /* `#START BIT_ERROR_ISR` */
 118:.\Generated_Source\PSoC5/CAN_INT.c **** 
 119:.\Generated_Source\PSoC5/CAN_INT.c ****         /* `#END` */
 120:.\Generated_Source\PSoC5/CAN_INT.c ****     }
 121:.\Generated_Source\PSoC5/CAN_INT.c ****     
 122:.\Generated_Source\PSoC5/CAN_INT.c **** #endif /* CAN_BIT_ERR */
 123:.\Generated_Source\PSoC5/CAN_INT.c **** 
 124:.\Generated_Source\PSoC5/CAN_INT.c **** #if (CAN_STUFF_ERR)
 125:.\Generated_Source\PSoC5/CAN_INT.c **** 
 126:.\Generated_Source\PSoC5/CAN_INT.c ****     /*******************************************************************************
 127:.\Generated_Source\PSoC5/CAN_INT.c ****     * FUNCTION NAME:   CAN_BitStuffError
 128:.\Generated_Source\PSoC5/CAN_INT.c ****     ********************************************************************************
 129:.\Generated_Source\PSoC5/CAN_INT.c ****     *
 130:.\Generated_Source\PSoC5/CAN_INT.c ****     * Summary:
 131:.\Generated_Source\PSoC5/CAN_INT.c ****     *  This function is entry point to Bit Stuff Error Interrupt. Clears Bit Stuff
 132:.\Generated_Source\PSoC5/CAN_INT.c ****     *  Error interrupt flag. Only generated if Bit Stuff Error Interrupt enable
 133:.\Generated_Source\PSoC5/CAN_INT.c ****     *  in Customizer.
 134:.\Generated_Source\PSoC5/CAN_INT.c ****     *
 135:.\Generated_Source\PSoC5/CAN_INT.c ****     * Parameters:
 136:.\Generated_Source\PSoC5/CAN_INT.c ****     *  None.
 137:.\Generated_Source\PSoC5/CAN_INT.c ****     *
 138:.\Generated_Source\PSoC5/CAN_INT.c ****     * Return:
 139:.\Generated_Source\PSoC5/CAN_INT.c ****     *  None.
 140:.\Generated_Source\PSoC5/CAN_INT.c ****     *
 141:.\Generated_Source\PSoC5/CAN_INT.c ****     * Reentrant:
 142:.\Generated_Source\PSoC5/CAN_INT.c ****     *  Depends on Customer code.
 143:.\Generated_Source\PSoC5/CAN_INT.c ****     *
 144:.\Generated_Source\PSoC5/CAN_INT.c ****     *******************************************************************************/
 145:.\Generated_Source\PSoC5/CAN_INT.c ****     void CAN_BitStuffErrorIsr(void) 
ARM GAS  C:\Users\CHAIYA~1\AppData\Local\Temp\ccQTahQS.s 			page 4


 146:.\Generated_Source\PSoC5/CAN_INT.c ****     {
 147:.\Generated_Source\PSoC5/CAN_INT.c ****         /* Clear Stuff Error flag */
 148:.\Generated_Source\PSoC5/CAN_INT.c ****         CAN_INT_SR_REG.byte[0u] = CAN_STUFF_ERROR_MASK;
 149:.\Generated_Source\PSoC5/CAN_INT.c ****     
 150:.\Generated_Source\PSoC5/CAN_INT.c ****         /* `#START BIT_STUFF_ERROR_ISR` */
 151:.\Generated_Source\PSoC5/CAN_INT.c **** 
 152:.\Generated_Source\PSoC5/CAN_INT.c ****         /* `#END` */
 153:.\Generated_Source\PSoC5/CAN_INT.c ****     }
 154:.\Generated_Source\PSoC5/CAN_INT.c ****     
 155:.\Generated_Source\PSoC5/CAN_INT.c **** #endif /* CAN_STUFF_ERR */
 156:.\Generated_Source\PSoC5/CAN_INT.c **** 
 157:.\Generated_Source\PSoC5/CAN_INT.c **** #if (CAN_ACK_ERR)
 158:.\Generated_Source\PSoC5/CAN_INT.c **** 
 159:.\Generated_Source\PSoC5/CAN_INT.c ****     /*******************************************************************************
 160:.\Generated_Source\PSoC5/CAN_INT.c ****     * FUNCTION NAME:   CAN_AckErrorIsr
 161:.\Generated_Source\PSoC5/CAN_INT.c ****     ********************************************************************************
 162:.\Generated_Source\PSoC5/CAN_INT.c ****     *
 163:.\Generated_Source\PSoC5/CAN_INT.c ****     * Summary:
 164:.\Generated_Source\PSoC5/CAN_INT.c ****     *  This function is entry point to Acknowledge Error Interrupt. Clears
 165:.\Generated_Source\PSoC5/CAN_INT.c ****     *  Acknowledge Error interrupt flag. Only generated if Acknowledge Error
 166:.\Generated_Source\PSoC5/CAN_INT.c ****     *  Interrupt enable in Customizer.
 167:.\Generated_Source\PSoC5/CAN_INT.c ****     *
 168:.\Generated_Source\PSoC5/CAN_INT.c ****     * Parameters:
 169:.\Generated_Source\PSoC5/CAN_INT.c ****     *  None.
 170:.\Generated_Source\PSoC5/CAN_INT.c ****     *
 171:.\Generated_Source\PSoC5/CAN_INT.c ****     * Return:
 172:.\Generated_Source\PSoC5/CAN_INT.c ****     *  None.
 173:.\Generated_Source\PSoC5/CAN_INT.c ****     *
 174:.\Generated_Source\PSoC5/CAN_INT.c ****     * Reentrant:
 175:.\Generated_Source\PSoC5/CAN_INT.c ****     *  Depends on Customer code.
 176:.\Generated_Source\PSoC5/CAN_INT.c ****     *
 177:.\Generated_Source\PSoC5/CAN_INT.c ****     *******************************************************************************/
 178:.\Generated_Source\PSoC5/CAN_INT.c ****     void CAN_AckErrorIsr(void) 
 179:.\Generated_Source\PSoC5/CAN_INT.c ****     {
 180:.\Generated_Source\PSoC5/CAN_INT.c ****         /* Clear Acknoledge Error flag */
 181:.\Generated_Source\PSoC5/CAN_INT.c ****         CAN_INT_SR_REG.byte[0u] = CAN_ACK_ERROR_MASK;
 182:.\Generated_Source\PSoC5/CAN_INT.c ****     
 183:.\Generated_Source\PSoC5/CAN_INT.c ****         /* `#START ACKNOWLEDGE_ERROR_ISR` */
 184:.\Generated_Source\PSoC5/CAN_INT.c **** 
 185:.\Generated_Source\PSoC5/CAN_INT.c ****         /* `#END` */
 186:.\Generated_Source\PSoC5/CAN_INT.c ****     }
 187:.\Generated_Source\PSoC5/CAN_INT.c ****     
 188:.\Generated_Source\PSoC5/CAN_INT.c **** #endif /* CAN_ACK_ERR */
 189:.\Generated_Source\PSoC5/CAN_INT.c **** 
 190:.\Generated_Source\PSoC5/CAN_INT.c **** #if (CAN_FORM_ERR)
 191:.\Generated_Source\PSoC5/CAN_INT.c **** 
 192:.\Generated_Source\PSoC5/CAN_INT.c ****     /*******************************************************************************
 193:.\Generated_Source\PSoC5/CAN_INT.c ****     * FUNCTION NAME:   CAN_MsgError
 194:.\Generated_Source\PSoC5/CAN_INT.c ****     ********************************************************************************
 195:.\Generated_Source\PSoC5/CAN_INT.c ****     *
 196:.\Generated_Source\PSoC5/CAN_INT.c ****     * Summary:
 197:.\Generated_Source\PSoC5/CAN_INT.c ****     *  This function is entry point to Form Error Interrupt. Clears Form Error
 198:.\Generated_Source\PSoC5/CAN_INT.c ****     *  interrupt flag. Only generated if Form Error Interrupt enable in Customizer.
 199:.\Generated_Source\PSoC5/CAN_INT.c ****     *
 200:.\Generated_Source\PSoC5/CAN_INT.c ****     * Parameters:
 201:.\Generated_Source\PSoC5/CAN_INT.c ****     *  None.
 202:.\Generated_Source\PSoC5/CAN_INT.c ****     *
ARM GAS  C:\Users\CHAIYA~1\AppData\Local\Temp\ccQTahQS.s 			page 5


 203:.\Generated_Source\PSoC5/CAN_INT.c ****     * Return:
 204:.\Generated_Source\PSoC5/CAN_INT.c ****     *  None.
 205:.\Generated_Source\PSoC5/CAN_INT.c ****     *
 206:.\Generated_Source\PSoC5/CAN_INT.c ****     * Reentrant:
 207:.\Generated_Source\PSoC5/CAN_INT.c ****     *  Depends on Customer code.
 208:.\Generated_Source\PSoC5/CAN_INT.c ****     *
 209:.\Generated_Source\PSoC5/CAN_INT.c ****     *******************************************************************************/
 210:.\Generated_Source\PSoC5/CAN_INT.c ****     void CAN_MsgErrorIsr(void) 
 211:.\Generated_Source\PSoC5/CAN_INT.c ****     {
 212:.\Generated_Source\PSoC5/CAN_INT.c ****         /* Clear Form Error flag */
 213:.\Generated_Source\PSoC5/CAN_INT.c ****         CAN_INT_SR_REG.byte[0u] = CAN_FORM_ERROR_MASK;
 214:.\Generated_Source\PSoC5/CAN_INT.c ****     
 215:.\Generated_Source\PSoC5/CAN_INT.c ****         /* `#START MESSAGE_ERROR_ISR` */
 216:.\Generated_Source\PSoC5/CAN_INT.c **** 
 217:.\Generated_Source\PSoC5/CAN_INT.c ****         /* `#END` */
 218:.\Generated_Source\PSoC5/CAN_INT.c ****     }
 219:.\Generated_Source\PSoC5/CAN_INT.c ****     
 220:.\Generated_Source\PSoC5/CAN_INT.c **** #endif /* CAN_FORM_ERR */
 221:.\Generated_Source\PSoC5/CAN_INT.c **** 
 222:.\Generated_Source\PSoC5/CAN_INT.c **** #if (CAN_CRC_ERR)
 223:.\Generated_Source\PSoC5/CAN_INT.c **** 
 224:.\Generated_Source\PSoC5/CAN_INT.c ****     /*******************************************************************************
 225:.\Generated_Source\PSoC5/CAN_INT.c ****     * FUNCTION NAME:   CAN_CrcError
 226:.\Generated_Source\PSoC5/CAN_INT.c ****     ********************************************************************************
 227:.\Generated_Source\PSoC5/CAN_INT.c ****     *
 228:.\Generated_Source\PSoC5/CAN_INT.c ****     * Summary:
 229:.\Generated_Source\PSoC5/CAN_INT.c ****     *  This function is entry point to CRC Error Interrupt. Clears CRC Error
 230:.\Generated_Source\PSoC5/CAN_INT.c ****     *  interrupt flag. Only generated if CRC Error Interrupt enable in Customizer.
 231:.\Generated_Source\PSoC5/CAN_INT.c ****     *
 232:.\Generated_Source\PSoC5/CAN_INT.c ****     * Parameters:
 233:.\Generated_Source\PSoC5/CAN_INT.c ****     *  None.
 234:.\Generated_Source\PSoC5/CAN_INT.c ****     *
 235:.\Generated_Source\PSoC5/CAN_INT.c ****     * Return:
 236:.\Generated_Source\PSoC5/CAN_INT.c ****     *  None.
 237:.\Generated_Source\PSoC5/CAN_INT.c ****     *
 238:.\Generated_Source\PSoC5/CAN_INT.c ****     * Reentrant:
 239:.\Generated_Source\PSoC5/CAN_INT.c ****     *  Depends on Customer code.
 240:.\Generated_Source\PSoC5/CAN_INT.c ****     *
 241:.\Generated_Source\PSoC5/CAN_INT.c ****     *******************************************************************************/
 242:.\Generated_Source\PSoC5/CAN_INT.c ****     void CAN_CrcErrorIsr(void) 
 243:.\Generated_Source\PSoC5/CAN_INT.c ****     {
 244:.\Generated_Source\PSoC5/CAN_INT.c ****         /* Clear CRC Error flag */
 245:.\Generated_Source\PSoC5/CAN_INT.c ****         CAN_INT_SR_REG.byte[1u] = CAN_CRC_ERROR_MASK;
 246:.\Generated_Source\PSoC5/CAN_INT.c ****     
 247:.\Generated_Source\PSoC5/CAN_INT.c ****         /* `#START CRC_ERROR_ISR` */
 248:.\Generated_Source\PSoC5/CAN_INT.c **** 
 249:.\Generated_Source\PSoC5/CAN_INT.c ****         /* `#END` */
 250:.\Generated_Source\PSoC5/CAN_INT.c ****     }
 251:.\Generated_Source\PSoC5/CAN_INT.c ****     
 252:.\Generated_Source\PSoC5/CAN_INT.c **** #endif /* CAN_CRC_ERR */
 253:.\Generated_Source\PSoC5/CAN_INT.c **** 
 254:.\Generated_Source\PSoC5/CAN_INT.c **** #if (CAN_BUS_OFF)
 255:.\Generated_Source\PSoC5/CAN_INT.c **** 
 256:.\Generated_Source\PSoC5/CAN_INT.c ****     /*******************************************************************************
 257:.\Generated_Source\PSoC5/CAN_INT.c ****     * FUNCTION NAME:   CAN_BusOff
 258:.\Generated_Source\PSoC5/CAN_INT.c ****     ********************************************************************************
 259:.\Generated_Source\PSoC5/CAN_INT.c ****     *
ARM GAS  C:\Users\CHAIYA~1\AppData\Local\Temp\ccQTahQS.s 			page 6


 260:.\Generated_Source\PSoC5/CAN_INT.c ****     * Summary:
 261:.\Generated_Source\PSoC5/CAN_INT.c ****     *  This function is entry point to Bus Off Interrupt. Places CAN Component
 262:.\Generated_Source\PSoC5/CAN_INT.c ****     *  to Stop mode. Only generated if Bus Off Interrupt enable in Customizer.
 263:.\Generated_Source\PSoC5/CAN_INT.c ****     *  Recommended setting to enable this interrupt.
 264:.\Generated_Source\PSoC5/CAN_INT.c ****     *
 265:.\Generated_Source\PSoC5/CAN_INT.c ****     * Parameters:
 266:.\Generated_Source\PSoC5/CAN_INT.c ****     *  None.
 267:.\Generated_Source\PSoC5/CAN_INT.c ****     *
 268:.\Generated_Source\PSoC5/CAN_INT.c ****     * Return:
 269:.\Generated_Source\PSoC5/CAN_INT.c ****     *  None.
 270:.\Generated_Source\PSoC5/CAN_INT.c ****     *
 271:.\Generated_Source\PSoC5/CAN_INT.c ****     * Side Effects:
 272:.\Generated_Source\PSoC5/CAN_INT.c ****     *  Disable power to the CAN Core.
 273:.\Generated_Source\PSoC5/CAN_INT.c ****     *
 274:.\Generated_Source\PSoC5/CAN_INT.c ****     *******************************************************************************/
 275:.\Generated_Source\PSoC5/CAN_INT.c ****     void CAN_BusOffIsr(void) 
 276:.\Generated_Source\PSoC5/CAN_INT.c ****     {        
  27              		.loc 1 276 0
  28              		.cfi_startproc
  29              		@ args = 0, pretend = 0, frame = 0
  30              		@ frame_needed = 1, uses_anonymous_args = 0
  31 0000 80B5     		push	{r7, lr}
  32              	.LCFI0:
  33              		.cfi_def_cfa_offset 8
  34              		.cfi_offset 7, -8
  35              		.cfi_offset 14, -4
  36 0002 00AF     		add	r7, sp, #0
  37              	.LCFI1:
  38              		.cfi_def_cfa_register 7
 277:.\Generated_Source\PSoC5/CAN_INT.c ****         /* Clear Bus Off flag */
 278:.\Generated_Source\PSoC5/CAN_INT.c ****         CAN_INT_SR_REG.byte[1u] = CAN_BUS_OFF_MASK;
  39              		.loc 1 278 0
  40 0004 4FF42043 		mov	r3, #40960
  41 0008 C4F20003 		movt	r3, 16384
  42 000c 4FF00202 		mov	r2, #2
  43 0010 5A70     		strb	r2, [r3, #1]
 279:.\Generated_Source\PSoC5/CAN_INT.c ****     
 280:.\Generated_Source\PSoC5/CAN_INT.c ****         /* `#START BUS_OFF_ISR` */
 281:.\Generated_Source\PSoC5/CAN_INT.c **** 
 282:.\Generated_Source\PSoC5/CAN_INT.c ****         /* `#END` */
 283:.\Generated_Source\PSoC5/CAN_INT.c ****         (void) CAN_Stop();
  44              		.loc 1 283 0
  45 0012 FFF7FEFF 		bl	CAN_Stop
 284:.\Generated_Source\PSoC5/CAN_INT.c ****     }
  46              		.loc 1 284 0
  47 0016 80BD     		pop	{r7, pc}
  48              		.cfi_endproc
  49              	.LFE0:
  50              		.size	CAN_BusOffIsr, .-CAN_BusOffIsr
  51              		.section	.text.CAN_MsgRXIsr,"ax",%progbits
  52              		.align	2
  53              		.global	CAN_MsgRXIsr
  54              		.thumb
  55              		.thumb_func
  56              		.type	CAN_MsgRXIsr, %function
  57              	CAN_MsgRXIsr:
  58              	.LFB1:
ARM GAS  C:\Users\CHAIYA~1\AppData\Local\Temp\ccQTahQS.s 			page 7


 285:.\Generated_Source\PSoC5/CAN_INT.c ****     
 286:.\Generated_Source\PSoC5/CAN_INT.c **** #endif /* CAN_BUS_OFF */
 287:.\Generated_Source\PSoC5/CAN_INT.c **** 
 288:.\Generated_Source\PSoC5/CAN_INT.c **** #if (CAN_RX_MSG_LOST)
 289:.\Generated_Source\PSoC5/CAN_INT.c **** 
 290:.\Generated_Source\PSoC5/CAN_INT.c ****     /*******************************************************************************
 291:.\Generated_Source\PSoC5/CAN_INT.c ****     * FUNCTION NAME:   CAN_MsgLost
 292:.\Generated_Source\PSoC5/CAN_INT.c ****     ********************************************************************************
 293:.\Generated_Source\PSoC5/CAN_INT.c ****     *
 294:.\Generated_Source\PSoC5/CAN_INT.c ****     * Summary:
 295:.\Generated_Source\PSoC5/CAN_INT.c ****     *  This function is entry point to Message Lost Interrupt. Clears Message Lost
 296:.\Generated_Source\PSoC5/CAN_INT.c ****     *  interrupt flag. Only generated if Message Lost Interrupt enable in Customizer
 297:.\Generated_Source\PSoC5/CAN_INT.c ****     *
 298:.\Generated_Source\PSoC5/CAN_INT.c ****     * Parameters:
 299:.\Generated_Source\PSoC5/CAN_INT.c ****     *  None.
 300:.\Generated_Source\PSoC5/CAN_INT.c ****     *
 301:.\Generated_Source\PSoC5/CAN_INT.c ****     * Return:
 302:.\Generated_Source\PSoC5/CAN_INT.c ****     *  None.
 303:.\Generated_Source\PSoC5/CAN_INT.c ****     *
 304:.\Generated_Source\PSoC5/CAN_INT.c ****     * Reentrant:
 305:.\Generated_Source\PSoC5/CAN_INT.c ****     *  Depends on Customer code.
 306:.\Generated_Source\PSoC5/CAN_INT.c ****     *
 307:.\Generated_Source\PSoC5/CAN_INT.c ****     *******************************************************************************/
 308:.\Generated_Source\PSoC5/CAN_INT.c ****     void CAN_MsgLostIsr(void) 
 309:.\Generated_Source\PSoC5/CAN_INT.c ****     {
 310:.\Generated_Source\PSoC5/CAN_INT.c ****         /* Clear Receive Message Lost flag */
 311:.\Generated_Source\PSoC5/CAN_INT.c ****         CAN_INT_SR_REG.byte[1u] = CAN_RX_MSG_LOST_MASK;
 312:.\Generated_Source\PSoC5/CAN_INT.c ****     
 313:.\Generated_Source\PSoC5/CAN_INT.c ****         /* `#START MESSAGE_LOST_ISR` */
 314:.\Generated_Source\PSoC5/CAN_INT.c **** 
 315:.\Generated_Source\PSoC5/CAN_INT.c ****         /* `#END` */
 316:.\Generated_Source\PSoC5/CAN_INT.c ****     }
 317:.\Generated_Source\PSoC5/CAN_INT.c ****     
 318:.\Generated_Source\PSoC5/CAN_INT.c **** #endif /* CAN_RX_MSG_LOST */
 319:.\Generated_Source\PSoC5/CAN_INT.c **** 
 320:.\Generated_Source\PSoC5/CAN_INT.c **** #if (CAN_TX_MESSAGE)
 321:.\Generated_Source\PSoC5/CAN_INT.c **** 
 322:.\Generated_Source\PSoC5/CAN_INT.c ****     /*******************************************************************************
 323:.\Generated_Source\PSoC5/CAN_INT.c ****     * FUNCTION NAME:   CAN_MsgTXIsr
 324:.\Generated_Source\PSoC5/CAN_INT.c ****     ********************************************************************************
 325:.\Generated_Source\PSoC5/CAN_INT.c ****     *
 326:.\Generated_Source\PSoC5/CAN_INT.c ****     * Summary:
 327:.\Generated_Source\PSoC5/CAN_INT.c ****     *  This function is entry point to Transmit Message Interrupt. Clears Transmit
 328:.\Generated_Source\PSoC5/CAN_INT.c ****     *  Message interrupt flag. Only generated if Transmit Message Interrupt enable
 329:.\Generated_Source\PSoC5/CAN_INT.c ****     *  in Customizer.
 330:.\Generated_Source\PSoC5/CAN_INT.c ****     *
 331:.\Generated_Source\PSoC5/CAN_INT.c ****     * Parameters:
 332:.\Generated_Source\PSoC5/CAN_INT.c ****     *  None.
 333:.\Generated_Source\PSoC5/CAN_INT.c ****     *
 334:.\Generated_Source\PSoC5/CAN_INT.c ****     * Return:
 335:.\Generated_Source\PSoC5/CAN_INT.c ****     *  None.    
 336:.\Generated_Source\PSoC5/CAN_INT.c ****     *
 337:.\Generated_Source\PSoC5/CAN_INT.c ****     * Reentrant:
 338:.\Generated_Source\PSoC5/CAN_INT.c ****     *  Depends on Customer code.
 339:.\Generated_Source\PSoC5/CAN_INT.c ****     *
 340:.\Generated_Source\PSoC5/CAN_INT.c ****     *******************************************************************************/
 341:.\Generated_Source\PSoC5/CAN_INT.c ****     void CAN_MsgTXIsr(void) 
ARM GAS  C:\Users\CHAIYA~1\AppData\Local\Temp\ccQTahQS.s 			page 8


 342:.\Generated_Source\PSoC5/CAN_INT.c ****     {
 343:.\Generated_Source\PSoC5/CAN_INT.c ****         /* Clear Transmit Message flag */
 344:.\Generated_Source\PSoC5/CAN_INT.c ****         CAN_INT_SR_REG.byte[1u] = CAN_TX_MESSAGE_MASK;
 345:.\Generated_Source\PSoC5/CAN_INT.c ****         
 346:.\Generated_Source\PSoC5/CAN_INT.c ****         /* `#START MESSAGE_TRANSMITTED_ISR` */
 347:.\Generated_Source\PSoC5/CAN_INT.c **** 
 348:.\Generated_Source\PSoC5/CAN_INT.c ****         /* `#END` */
 349:.\Generated_Source\PSoC5/CAN_INT.c ****     }
 350:.\Generated_Source\PSoC5/CAN_INT.c ****     
 351:.\Generated_Source\PSoC5/CAN_INT.c **** #endif /* CAN_TX_MESSAGE */
 352:.\Generated_Source\PSoC5/CAN_INT.c **** 
 353:.\Generated_Source\PSoC5/CAN_INT.c **** #if (CAN_RX_MESSAGE)
 354:.\Generated_Source\PSoC5/CAN_INT.c **** 
 355:.\Generated_Source\PSoC5/CAN_INT.c ****     /*******************************************************************************
 356:.\Generated_Source\PSoC5/CAN_INT.c ****     * FUNCTION NAME:   CAN_MsgRXIsr
 357:.\Generated_Source\PSoC5/CAN_INT.c ****     ********************************************************************************
 358:.\Generated_Source\PSoC5/CAN_INT.c ****     *
 359:.\Generated_Source\PSoC5/CAN_INT.c ****     * Summary:
 360:.\Generated_Source\PSoC5/CAN_INT.c ****     *  This function is entry point to Receive Message Interrupt. Clears Receive
 361:.\Generated_Source\PSoC5/CAN_INT.c ****     *  Message interrupt flag and call appropriate handlers for Basic and Full
 362:.\Generated_Source\PSoC5/CAN_INT.c ****     *  interrupt based mailboxes. Only generated if Receive Message Interrupt
 363:.\Generated_Source\PSoC5/CAN_INT.c ****     *  enable in Customizer. Recommended setting to enable this interrupt.
 364:.\Generated_Source\PSoC5/CAN_INT.c ****     *
 365:.\Generated_Source\PSoC5/CAN_INT.c ****     * Parameters:
 366:.\Generated_Source\PSoC5/CAN_INT.c ****     *  None.
 367:.\Generated_Source\PSoC5/CAN_INT.c ****     *
 368:.\Generated_Source\PSoC5/CAN_INT.c ****     * Return:
 369:.\Generated_Source\PSoC5/CAN_INT.c ****     *  None.
 370:.\Generated_Source\PSoC5/CAN_INT.c ****     *
 371:.\Generated_Source\PSoC5/CAN_INT.c ****     *******************************************************************************/
 372:.\Generated_Source\PSoC5/CAN_INT.c ****     void CAN_MsgRXIsr(void) 
 373:.\Generated_Source\PSoC5/CAN_INT.c ****     {
  59              		.loc 1 373 0
  60              		.cfi_startproc
  61              		@ args = 0, pretend = 0, frame = 8
  62              		@ frame_needed = 1, uses_anonymous_args = 0
  63 0000 80B5     		push	{r7, lr}
  64              	.LCFI2:
  65              		.cfi_def_cfa_offset 8
  66              		.cfi_offset 7, -8
  67              		.cfi_offset 14, -4
  68 0002 82B0     		sub	sp, sp, #8
  69              	.LCFI3:
  70              		.cfi_def_cfa_offset 16
  71 0004 00AF     		add	r7, sp, #0
  72              	.LCFI4:
  73              		.cfi_def_cfa_register 7
 374:.\Generated_Source\PSoC5/CAN_INT.c ****         uint8 i;
 375:.\Generated_Source\PSoC5/CAN_INT.c ****         uint16 shift = 0x01u;
  74              		.loc 1 375 0
  75 0006 4FF00103 		mov	r3, #1
  76 000a BB80     		strh	r3, [r7, #4]	@ movhi
 376:.\Generated_Source\PSoC5/CAN_INT.c ****     
 377:.\Generated_Source\PSoC5/CAN_INT.c ****         /* Clear Receive Message flag */
 378:.\Generated_Source\PSoC5/CAN_INT.c ****         CAN_INT_SR_REG.byte[1u] = CAN_RX_MESSAGE_MASK;
  77              		.loc 1 378 0
  78 000c 4FF42043 		mov	r3, #40960
ARM GAS  C:\Users\CHAIYA~1\AppData\Local\Temp\ccQTahQS.s 			page 9


  79 0010 C4F20003 		movt	r3, 16384
  80 0014 4FF01002 		mov	r2, #16
  81 0018 5A70     		strb	r2, [r3, #1]
 379:.\Generated_Source\PSoC5/CAN_INT.c ****         
 380:.\Generated_Source\PSoC5/CAN_INT.c ****         /* `#START MESSAGE_RECEIVE_ISR` */
 381:.\Generated_Source\PSoC5/CAN_INT.c **** 
 382:.\Generated_Source\PSoC5/CAN_INT.c ****         /* `#END` */
 383:.\Generated_Source\PSoC5/CAN_INT.c ****     
 384:.\Generated_Source\PSoC5/CAN_INT.c ****         for (i = 0u; i < CAN_NUMBER_OF_RX_MAILBOXES; i++)
  82              		.loc 1 384 0
  83 001a 4FF00003 		mov	r3, #0
  84 001e FB71     		strb	r3, [r7, #7]
  85 0020 2AE0     		b	.L3
  86              	.L6:
 385:.\Generated_Source\PSoC5/CAN_INT.c ****         {
 386:.\Generated_Source\PSoC5/CAN_INT.c ****             if ((CY_GET_REG16((reg16 *) &CAN_BUF_SR_REG.byte[0u]) & shift) == shift)
  87              		.loc 1 386 0
  88 0022 4AF20803 		movw	r3, #40968
  89 0026 C4F20003 		movt	r3, 16384
  90 002a 1B88     		ldrh	r3, [r3, #0]	@ movhi
  91 002c 9AB2     		uxth	r2, r3
  92 002e BB88     		ldrh	r3, [r7, #4]	@ movhi
  93 0030 1340     		ands	r3, r3, r2
  94 0032 9BB2     		uxth	r3, r3
  95 0034 BA88     		ldrh	r2, [r7, #4]
  96 0036 9A42     		cmp	r2, r3
  97 0038 16D1     		bne	.L4
 387:.\Generated_Source\PSoC5/CAN_INT.c ****             {
 388:.\Generated_Source\PSoC5/CAN_INT.c ****                 if ((CAN_RX[i].rxcmd.byte[0u] & CAN_RX_INT_ENABLE_MASK) ==
  98              		.loc 1 388 0
  99 003a FB79     		ldrb	r3, [r7, #7]	@ zero_extendqisi2
 100 003c 4FEA4312 		lsl	r2, r3, #5
 101 0040 4AF2A003 		movw	r3, #41120
 102 0044 C4F20003 		movt	r3, 16384
 103 0048 D318     		adds	r3, r2, r3
 104 004a 1B78     		ldrb	r3, [r3, #0]
 105 004c DBB2     		uxtb	r3, r3
 106 004e 03F02003 		and	r3, r3, #32
 107 0052 002B     		cmp	r3, #0
 108 0054 08D0     		beq	.L4
 389:.\Generated_Source\PSoC5/CAN_INT.c ****                     CAN_RX_INT_ENABLE_MASK)
 390:.\Generated_Source\PSoC5/CAN_INT.c ****                 {
 391:.\Generated_Source\PSoC5/CAN_INT.c ****                     if ((CAN_RX_MAILBOX_TYPE & shift) == shift)
 109              		.loc 1 391 0
 110 0056 BB88     		ldrh	r3, [r7, #4]
 111 0058 002B     		cmp	r3, #0
 112 005a 04D0     		beq	.L7
 113              	.L5:
 392:.\Generated_Source\PSoC5/CAN_INT.c ****                     {
 393:.\Generated_Source\PSoC5/CAN_INT.c ****                         /* RX Full mailboxes handler */
 394:.\Generated_Source\PSoC5/CAN_INT.c ****                         switch(i)
 395:.\Generated_Source\PSoC5/CAN_INT.c ****                         {
 396:.\Generated_Source\PSoC5/CAN_INT.c ****                             default:
 397:.\Generated_Source\PSoC5/CAN_INT.c ****                             break;
 398:.\Generated_Source\PSoC5/CAN_INT.c ****                         }
 399:.\Generated_Source\PSoC5/CAN_INT.c ****                     }
 400:.\Generated_Source\PSoC5/CAN_INT.c ****                     else
ARM GAS  C:\Users\CHAIYA~1\AppData\Local\Temp\ccQTahQS.s 			page 10


 401:.\Generated_Source\PSoC5/CAN_INT.c ****                     {
 402:.\Generated_Source\PSoC5/CAN_INT.c ****                         /* RX Basic mailbox handler */
 403:.\Generated_Source\PSoC5/CAN_INT.c ****                         CAN_ReceiveMsg(i);
 114              		.loc 1 403 0
 115 005c FB79     		ldrb	r3, [r7, #7]	@ zero_extendqisi2
 116 005e 1846     		mov	r0, r3
 117 0060 FFF7FEFF 		bl	CAN_ReceiveMsg
 118 0064 00E0     		b	.L4
 119              	.L7:
 397:.\Generated_Source\PSoC5/CAN_INT.c ****                             break;
 120              		.loc 1 397 0
 121 0066 00BF     		nop
 122              	.L4:
 404:.\Generated_Source\PSoC5/CAN_INT.c ****                     }
 405:.\Generated_Source\PSoC5/CAN_INT.c ****                 }
 406:.\Generated_Source\PSoC5/CAN_INT.c ****             }
 407:.\Generated_Source\PSoC5/CAN_INT.c ****             shift <<= 1u;
 123              		.loc 1 407 0
 124 0068 BB88     		ldrh	r3, [r7, #4]	@ movhi
 125 006a 4FEA4303 		lsl	r3, r3, #1
 126 006e BB80     		strh	r3, [r7, #4]	@ movhi
 384:.\Generated_Source\PSoC5/CAN_INT.c ****         for (i = 0u; i < CAN_NUMBER_OF_RX_MAILBOXES; i++)
 127              		.loc 1 384 0
 128 0070 FB79     		ldrb	r3, [r7, #7]
 129 0072 03F10103 		add	r3, r3, #1
 130 0076 FB71     		strb	r3, [r7, #7]
 131              	.L3:
 384:.\Generated_Source\PSoC5/CAN_INT.c ****         for (i = 0u; i < CAN_NUMBER_OF_RX_MAILBOXES; i++)
 132              		.loc 1 384 0 is_stmt 0 discriminator 1
 133 0078 FB79     		ldrb	r3, [r7, #7]	@ zero_extendqisi2
 134 007a 0F2B     		cmp	r3, #15
 135 007c D1D9     		bls	.L6
 408:.\Generated_Source\PSoC5/CAN_INT.c ****         }            
 409:.\Generated_Source\PSoC5/CAN_INT.c ****     }
 136              		.loc 1 409 0 is_stmt 1
 137 007e 07F10807 		add	r7, r7, #8
 138 0082 BD46     		mov	sp, r7
 139 0084 80BD     		pop	{r7, pc}
 140              		.cfi_endproc
 141              	.LFE1:
 142              		.size	CAN_MsgRXIsr, .-CAN_MsgRXIsr
 143 0086 00BF     		.section	.text.CAN_ISR,"ax",%progbits
 144              		.align	2
 145              		.global	CAN_ISR
 146              		.thumb
 147              		.thumb_func
 148              		.type	CAN_ISR, %function
 149              	CAN_ISR:
 150              	.LFB2:
 410:.\Generated_Source\PSoC5/CAN_INT.c ****     
 411:.\Generated_Source\PSoC5/CAN_INT.c **** #endif /* CAN_RX_MESSAGE */
 412:.\Generated_Source\PSoC5/CAN_INT.c **** 
 413:.\Generated_Source\PSoC5/CAN_INT.c **** 
 414:.\Generated_Source\PSoC5/CAN_INT.c **** /*******************************************************************************
 415:.\Generated_Source\PSoC5/CAN_INT.c **** * Function Name: CAN_ISR
 416:.\Generated_Source\PSoC5/CAN_INT.c **** ********************************************************************************
 417:.\Generated_Source\PSoC5/CAN_INT.c **** *
ARM GAS  C:\Users\CHAIYA~1\AppData\Local\Temp\ccQTahQS.s 			page 11


 418:.\Generated_Source\PSoC5/CAN_INT.c **** * Summary:
 419:.\Generated_Source\PSoC5/CAN_INT.c **** *  This ISR is executed when CAN core generate interrupt on one of events:
 420:.\Generated_Source\PSoC5/CAN_INT.c **** *  Arb_lost, Overload, Bit_err, Stuff_err, Ack_err, Form_err, Crc_err,
 421:.\Generated_Source\PSoC5/CAN_INT.c **** *  Buss_off, Rx_msg_lost, Tx_msg or Rx_msg. The interrupt sources depends
 422:.\Generated_Source\PSoC5/CAN_INT.c **** *  on Customizer inputs.
 423:.\Generated_Source\PSoC5/CAN_INT.c **** *
 424:.\Generated_Source\PSoC5/CAN_INT.c **** * Parameters:
 425:.\Generated_Source\PSoC5/CAN_INT.c **** *  None.
 426:.\Generated_Source\PSoC5/CAN_INT.c **** *
 427:.\Generated_Source\PSoC5/CAN_INT.c **** * Return:
 428:.\Generated_Source\PSoC5/CAN_INT.c **** *  None.
 429:.\Generated_Source\PSoC5/CAN_INT.c **** *
 430:.\Generated_Source\PSoC5/CAN_INT.c **** *******************************************************************************/
 431:.\Generated_Source\PSoC5/CAN_INT.c **** CY_ISR(CAN_ISR)
 432:.\Generated_Source\PSoC5/CAN_INT.c **** {
 151              		.loc 1 432 0
 152              		.cfi_startproc
 153              		@ args = 0, pretend = 0, frame = 0
 154              		@ frame_needed = 1, uses_anonymous_args = 0
 155 0000 80B5     		push	{r7, lr}
 156              	.LCFI5:
 157              		.cfi_def_cfa_offset 8
 158              		.cfi_offset 7, -8
 159              		.cfi_offset 14, -4
 160 0002 00AF     		add	r7, sp, #0
 161              	.LCFI6:
 162              		.cfi_def_cfa_register 7
 433:.\Generated_Source\PSoC5/CAN_INT.c ****     /* Place your Interrupt code here. */
 434:.\Generated_Source\PSoC5/CAN_INT.c ****     /* `#START CAN_ISR` */
 435:.\Generated_Source\PSoC5/CAN_INT.c **** 
 436:.\Generated_Source\PSoC5/CAN_INT.c ****     /* `#END` */    
 437:.\Generated_Source\PSoC5/CAN_INT.c ****     
 438:.\Generated_Source\PSoC5/CAN_INT.c ****     /* Arbitration */
 439:.\Generated_Source\PSoC5/CAN_INT.c ****     #if (CAN_ARB_LOST && (CAN_ARB_LOST_USE_HELPER || \
 440:.\Generated_Source\PSoC5/CAN_INT.c ****         (!CAN_ADVANCED_INTERRUPT_CFG)))
 441:.\Generated_Source\PSoC5/CAN_INT.c ****         if ((CAN_INT_SR_REG.byte[0u] & CAN_ARBITRATION_LOST_MASK) ==
 442:.\Generated_Source\PSoC5/CAN_INT.c ****              CAN_ARBITRATION_LOST_MASK)
 443:.\Generated_Source\PSoC5/CAN_INT.c ****         {
 444:.\Generated_Source\PSoC5/CAN_INT.c ****             CAN_ArbLostIsr();
 445:.\Generated_Source\PSoC5/CAN_INT.c ****         } 
 446:.\Generated_Source\PSoC5/CAN_INT.c ****     #endif /* CAN_ARB_LOST && CAN_ARB_LOST_USE_HELPER */
 447:.\Generated_Source\PSoC5/CAN_INT.c ****     
 448:.\Generated_Source\PSoC5/CAN_INT.c ****     /* Overload Error */
 449:.\Generated_Source\PSoC5/CAN_INT.c ****     #if (CAN_OVERLOAD && (CAN_OVERLOAD_USE_HELPER || \
 450:.\Generated_Source\PSoC5/CAN_INT.c ****         (!CAN_ADVANCED_INTERRUPT_CFG)))
 451:.\Generated_Source\PSoC5/CAN_INT.c ****         if ((CAN_INT_SR_REG.byte[0u] & CAN_OVERLOAD_ERROR_MASK) ==
 452:.\Generated_Source\PSoC5/CAN_INT.c ****              CAN_OVERLOAD_ERROR_MASK)
 453:.\Generated_Source\PSoC5/CAN_INT.c ****         {
 454:.\Generated_Source\PSoC5/CAN_INT.c ****             CAN_OvrLdErrorIsr();
 455:.\Generated_Source\PSoC5/CAN_INT.c ****         }
 456:.\Generated_Source\PSoC5/CAN_INT.c ****     #endif /* CAN_OVERLOAD && CAN_OVERLOAD_USE_HELPER */
 457:.\Generated_Source\PSoC5/CAN_INT.c ****     
 458:.\Generated_Source\PSoC5/CAN_INT.c ****     /* Bit Error */
 459:.\Generated_Source\PSoC5/CAN_INT.c ****     #if (CAN_BIT_ERR && (CAN_BIT_ERR_USE_HELPER || \
 460:.\Generated_Source\PSoC5/CAN_INT.c ****         (!CAN_ADVANCED_INTERRUPT_CFG)))
 461:.\Generated_Source\PSoC5/CAN_INT.c ****         if ((CAN_INT_SR_REG.byte[0u] & CAN_BIT_ERROR_MASK) == CAN_BIT_ERROR_MASK)
 462:.\Generated_Source\PSoC5/CAN_INT.c ****         {
ARM GAS  C:\Users\CHAIYA~1\AppData\Local\Temp\ccQTahQS.s 			page 12


 463:.\Generated_Source\PSoC5/CAN_INT.c ****             CAN_BitErrorIsr();
 464:.\Generated_Source\PSoC5/CAN_INT.c ****         }
 465:.\Generated_Source\PSoC5/CAN_INT.c ****     #endif /* CAN_BIT_ERR && CAN_BIT_ERR_USE_HELPER */
 466:.\Generated_Source\PSoC5/CAN_INT.c ****     
 467:.\Generated_Source\PSoC5/CAN_INT.c ****     /* Bit Staff Error */
 468:.\Generated_Source\PSoC5/CAN_INT.c ****     #if (CAN_STUFF_ERR && (CAN_STUFF_ERR_USE_HELPER || \
 469:.\Generated_Source\PSoC5/CAN_INT.c ****         (!CAN_ADVANCED_INTERRUPT_CFG)))
 470:.\Generated_Source\PSoC5/CAN_INT.c ****         if ((CAN_INT_SR_REG.byte[0u] & CAN_STUFF_ERROR_MASK) ==
 471:.\Generated_Source\PSoC5/CAN_INT.c ****              CAN_STUFF_ERROR_MASK)
 472:.\Generated_Source\PSoC5/CAN_INT.c ****         {
 473:.\Generated_Source\PSoC5/CAN_INT.c ****             CAN_BitStuffErrorIsr();
 474:.\Generated_Source\PSoC5/CAN_INT.c ****         }
 475:.\Generated_Source\PSoC5/CAN_INT.c ****     #endif /* CAN_STUFF_ERR && CAN_STUFF_ERR_USE_HELPER */
 476:.\Generated_Source\PSoC5/CAN_INT.c ****     
 477:.\Generated_Source\PSoC5/CAN_INT.c ****     /* ACK Error */
 478:.\Generated_Source\PSoC5/CAN_INT.c ****     #if (CAN_ACK_ERR && (CAN_ACK_ERR_USE_HELPER || \
 479:.\Generated_Source\PSoC5/CAN_INT.c ****         (!CAN_ADVANCED_INTERRUPT_CFG)))
 480:.\Generated_Source\PSoC5/CAN_INT.c ****         if ((CAN_INT_SR_REG.byte[0u] & CAN_ACK_ERROR_MASK) ==
 481:.\Generated_Source\PSoC5/CAN_INT.c ****              CAN_ACK_ERROR_MASK)
 482:.\Generated_Source\PSoC5/CAN_INT.c ****         {
 483:.\Generated_Source\PSoC5/CAN_INT.c ****             CAN_AckErrorIsr();
 484:.\Generated_Source\PSoC5/CAN_INT.c ****         }
 485:.\Generated_Source\PSoC5/CAN_INT.c ****     #endif /* CAN_ACK_ERR && CAN_ACK_ERR_USE_HELPER */
 486:.\Generated_Source\PSoC5/CAN_INT.c ****     
 487:.\Generated_Source\PSoC5/CAN_INT.c ****     /* Form(msg) Error */
 488:.\Generated_Source\PSoC5/CAN_INT.c ****     #if (CAN_FORM_ERR && (CAN_FORM_ERR_USE_HELPER || \
 489:.\Generated_Source\PSoC5/CAN_INT.c ****         (!CAN_ADVANCED_INTERRUPT_CFG)))
 490:.\Generated_Source\PSoC5/CAN_INT.c ****         if ((CAN_INT_SR_REG.byte[0u] & CAN_FORM_ERROR_MASK) ==
 491:.\Generated_Source\PSoC5/CAN_INT.c ****              CAN_FORM_ERROR_MASK)
 492:.\Generated_Source\PSoC5/CAN_INT.c ****         {
 493:.\Generated_Source\PSoC5/CAN_INT.c ****             CAN_MsgErrorIsr();
 494:.\Generated_Source\PSoC5/CAN_INT.c ****         }
 495:.\Generated_Source\PSoC5/CAN_INT.c ****     #endif /* CAN_FORM_ERR && CAN_FORM_ERR_USE_HELPER */
 496:.\Generated_Source\PSoC5/CAN_INT.c ****     
 497:.\Generated_Source\PSoC5/CAN_INT.c ****     /* CRC Error */
 498:.\Generated_Source\PSoC5/CAN_INT.c ****     #if (CAN_CRC_ERR && (CAN_CRC_ERR_USE_HELPER || \
 499:.\Generated_Source\PSoC5/CAN_INT.c ****         (!CAN_ADVANCED_INTERRUPT_CFG)))
 500:.\Generated_Source\PSoC5/CAN_INT.c ****         if ((CAN_INT_SR_REG.byte[1u] & CAN_CRC_ERROR_MASK) == CAN_CRC_ERROR_MASK)
 501:.\Generated_Source\PSoC5/CAN_INT.c ****         {
 502:.\Generated_Source\PSoC5/CAN_INT.c ****             CAN_CrcErrorIsr();
 503:.\Generated_Source\PSoC5/CAN_INT.c ****         }
 504:.\Generated_Source\PSoC5/CAN_INT.c ****     #endif /* CAN_CRC_ERR && CAN_CRC_ERR_USE_HELPER */
 505:.\Generated_Source\PSoC5/CAN_INT.c ****     
 506:.\Generated_Source\PSoC5/CAN_INT.c ****     /* Bus Off state */
 507:.\Generated_Source\PSoC5/CAN_INT.c ****     #if (CAN_BUS_OFF && (CAN_BUS_OFF_USE_HELPER || \
 508:.\Generated_Source\PSoC5/CAN_INT.c ****         (!CAN_ADVANCED_INTERRUPT_CFG)))
 509:.\Generated_Source\PSoC5/CAN_INT.c ****         if ((CAN_INT_SR_REG.byte[1u] & CAN_BUS_OFF_MASK) == CAN_BUS_OFF_MASK)
 163              		.loc 1 509 0
 164 0004 4FF42043 		mov	r3, #40960
 165 0008 C4F20003 		movt	r3, 16384
 166 000c 5B78     		ldrb	r3, [r3, #1]
 167 000e DBB2     		uxtb	r3, r3
 168 0010 03F00203 		and	r3, r3, #2
 169 0014 002B     		cmp	r3, #0
 170 0016 01D0     		beq	.L9
 510:.\Generated_Source\PSoC5/CAN_INT.c ****         {
 511:.\Generated_Source\PSoC5/CAN_INT.c ****             CAN_BusOffIsr();
ARM GAS  C:\Users\CHAIYA~1\AppData\Local\Temp\ccQTahQS.s 			page 13


 171              		.loc 1 511 0
 172 0018 FFF7FEFF 		bl	CAN_BusOffIsr
 173              	.L9:
 512:.\Generated_Source\PSoC5/CAN_INT.c ****         }
 513:.\Generated_Source\PSoC5/CAN_INT.c ****     #endif /* CAN_BUS_OFF && CAN_BUS_OFF_USE_HELPER */
 514:.\Generated_Source\PSoC5/CAN_INT.c ****     
 515:.\Generated_Source\PSoC5/CAN_INT.c ****     /* Message Lost */
 516:.\Generated_Source\PSoC5/CAN_INT.c ****     #if (CAN_RX_MSG_LOST && (CAN_RX_MSG_LOST_USE_HELPER || \
 517:.\Generated_Source\PSoC5/CAN_INT.c ****         (!CAN_ADVANCED_INTERRUPT_CFG)))
 518:.\Generated_Source\PSoC5/CAN_INT.c ****         if ((CAN_INT_SR_REG.byte[1u] & CAN_RX_MSG_LOST_MASK) ==
 519:.\Generated_Source\PSoC5/CAN_INT.c ****              CAN_RX_MSG_LOST_MASK)
 520:.\Generated_Source\PSoC5/CAN_INT.c ****         {
 521:.\Generated_Source\PSoC5/CAN_INT.c ****             CAN_MsgLostIsr();
 522:.\Generated_Source\PSoC5/CAN_INT.c ****         }
 523:.\Generated_Source\PSoC5/CAN_INT.c ****     #endif /* CAN_RX_MSG_LOST && CAN_RX_MSG_LOST_USE_HELPER */
 524:.\Generated_Source\PSoC5/CAN_INT.c ****     
 525:.\Generated_Source\PSoC5/CAN_INT.c ****     /* TX Message Send */
 526:.\Generated_Source\PSoC5/CAN_INT.c ****     #if (CAN_TX_MESSAGE && (CAN_TX_MESSAGE_USE_HELPER || \
 527:.\Generated_Source\PSoC5/CAN_INT.c ****         (!CAN_ADVANCED_INTERRUPT_CFG)))
 528:.\Generated_Source\PSoC5/CAN_INT.c ****         if ((CAN_INT_SR_REG.byte[1u] & CAN_TX_MESSAGE_MASK) ==
 529:.\Generated_Source\PSoC5/CAN_INT.c ****              CAN_TX_MESSAGE_MASK)
 530:.\Generated_Source\PSoC5/CAN_INT.c ****         {
 531:.\Generated_Source\PSoC5/CAN_INT.c ****             CAN_MsgTXIsr();
 532:.\Generated_Source\PSoC5/CAN_INT.c ****         }
 533:.\Generated_Source\PSoC5/CAN_INT.c ****     #endif /* CAN_TX_MESSAGE && CAN_TX_MESSAGE_USE_HELPER */
 534:.\Generated_Source\PSoC5/CAN_INT.c ****     
 535:.\Generated_Source\PSoC5/CAN_INT.c ****     /* RX Message Available */
 536:.\Generated_Source\PSoC5/CAN_INT.c ****     #if (CAN_RX_MESSAGE && (CAN_RX_MESSAGE_USE_HELPER || \
 537:.\Generated_Source\PSoC5/CAN_INT.c ****         (!CAN_ADVANCED_INTERRUPT_CFG)))
 538:.\Generated_Source\PSoC5/CAN_INT.c ****         if ((CAN_INT_SR_REG.byte[1u] & CAN_RX_MESSAGE_MASK) ==
 174              		.loc 1 538 0
 175 001c 4FF42043 		mov	r3, #40960
 176 0020 C4F20003 		movt	r3, 16384
 177 0024 5B78     		ldrb	r3, [r3, #1]
 178 0026 DBB2     		uxtb	r3, r3
 179 0028 03F01003 		and	r3, r3, #16
 180 002c 002B     		cmp	r3, #0
 181 002e 01D0     		beq	.L8
 539:.\Generated_Source\PSoC5/CAN_INT.c ****              CAN_RX_MESSAGE_MASK)
 540:.\Generated_Source\PSoC5/CAN_INT.c ****         {
 541:.\Generated_Source\PSoC5/CAN_INT.c ****             CAN_MsgRXIsr();
 182              		.loc 1 541 0
 183 0030 FFF7FEFF 		bl	CAN_MsgRXIsr
 184              	.L8:
 542:.\Generated_Source\PSoC5/CAN_INT.c ****         }
 543:.\Generated_Source\PSoC5/CAN_INT.c ****     #endif /* CAN_RX_MESSAGE && CAN_RX_MESSAGE_USE_HELPER */
 544:.\Generated_Source\PSoC5/CAN_INT.c **** 
 545:.\Generated_Source\PSoC5/CAN_INT.c **** 
 546:.\Generated_Source\PSoC5/CAN_INT.c **** }
 185              		.loc 1 546 0
 186 0034 80BD     		pop	{r7, pc}
 187              		.cfi_endproc
 188              	.LFE2:
 189              		.size	CAN_ISR, .-CAN_ISR
 190 0036 00BF     		.text
 191              	.Letext0:
 192              		.file 2 ".\\Generated_Source\\PSoC5\\cytypes.h"
ARM GAS  C:\Users\CHAIYA~1\AppData\Local\Temp\ccQTahQS.s 			page 14


 193              		.file 3 ".\\Generated_Source\\PSoC5\\CAN.h"