ARM GAS  C:\Users\CHAIYA~1\AppData\Local\Temp\ccrE7040.s 			page 1


   1              		.syntax unified
   2              		.cpu cortex-m3
   3              		.fpu softvfp
   4              		.eabi_attribute 20, 1
   5              		.eabi_attribute 21, 1
   6              		.eabi_attribute 23, 3
   7              		.eabi_attribute 24, 1
   8              		.eabi_attribute 25, 1
   9              		.eabi_attribute 26, 1
  10              		.eabi_attribute 30, 6
  11              		.eabi_attribute 34, 1
  12              		.eabi_attribute 18, 4
  13              		.thumb
  14              		.file	"CAN_TX_RX_func.c"
  15              		.text
  16              	.Ltext0:
  17              		.cfi_sections	.debug_frame
  18              		.section	.text.CAN_SendMsg,"ax",%progbits
  19              		.align	2
  20              		.global	CAN_SendMsg
  21              		.thumb
  22              		.thumb_func
  23              		.type	CAN_SendMsg, %function
  24              	CAN_SendMsg:
  25              	.LFB0:
  26              		.file 1 ".\\Generated_Source\\PSoC5\\CAN_TX_RX_func.c"
   1:.\Generated_Source\PSoC5/CAN_TX_RX_func.c **** /*******************************************************************************
   2:.\Generated_Source\PSoC5/CAN_TX_RX_func.c **** * File Name: CAN_TX_RX_func.c
   3:.\Generated_Source\PSoC5/CAN_TX_RX_func.c **** * Version 2.30
   4:.\Generated_Source\PSoC5/CAN_TX_RX_func.c **** *
   5:.\Generated_Source\PSoC5/CAN_TX_RX_func.c **** * Description:
   6:.\Generated_Source\PSoC5/CAN_TX_RX_func.c **** *  There are fucntions process "Full" Receive and Transmit mailboxes:
   7:.\Generated_Source\PSoC5/CAN_TX_RX_func.c **** *     - CAN_SendMsg0-7();
   8:.\Generated_Source\PSoC5/CAN_TX_RX_func.c **** *     - CAN_ReceiveMsg0-15();
   9:.\Generated_Source\PSoC5/CAN_TX_RX_func.c **** *  Transmition of message, and receive routine for "Basic" mailboxes:
  10:.\Generated_Source\PSoC5/CAN_TX_RX_func.c **** *     - CAN_SendMsg();
  11:.\Generated_Source\PSoC5/CAN_TX_RX_func.c **** *     - CAN_TxCancel();
  12:.\Generated_Source\PSoC5/CAN_TX_RX_func.c **** *     - CAN_ReceiveMsg();
  13:.\Generated_Source\PSoC5/CAN_TX_RX_func.c **** *
  14:.\Generated_Source\PSoC5/CAN_TX_RX_func.c **** *  Note:
  15:.\Generated_Source\PSoC5/CAN_TX_RX_func.c **** *   None
  16:.\Generated_Source\PSoC5/CAN_TX_RX_func.c **** *
  17:.\Generated_Source\PSoC5/CAN_TX_RX_func.c **** ********************************************************************************
  18:.\Generated_Source\PSoC5/CAN_TX_RX_func.c **** * Copyright 2008-2012, Cypress Semiconductor Corporation.  All rights reserved.
  19:.\Generated_Source\PSoC5/CAN_TX_RX_func.c **** * You may use this file only in accordance with the license, terms, conditions,
  20:.\Generated_Source\PSoC5/CAN_TX_RX_func.c **** * disclaimers, and limitations in the end user license agreement accompanying
  21:.\Generated_Source\PSoC5/CAN_TX_RX_func.c **** * the software package with which this file was provided.
  22:.\Generated_Source\PSoC5/CAN_TX_RX_func.c **** *******************************************************************************/
  23:.\Generated_Source\PSoC5/CAN_TX_RX_func.c **** 
  24:.\Generated_Source\PSoC5/CAN_TX_RX_func.c **** #include "CAN.h"
  25:.\Generated_Source\PSoC5/CAN_TX_RX_func.c **** 
  26:.\Generated_Source\PSoC5/CAN_TX_RX_func.c **** /* `#START TX_RX_FUNCTION` */
  27:.\Generated_Source\PSoC5/CAN_TX_RX_func.c **** 
  28:.\Generated_Source\PSoC5/CAN_TX_RX_func.c **** /* `#END` */
  29:.\Generated_Source\PSoC5/CAN_TX_RX_func.c **** 
  30:.\Generated_Source\PSoC5/CAN_TX_RX_func.c **** 
  31:.\Generated_Source\PSoC5/CAN_TX_RX_func.c **** /*******************************************************************************
ARM GAS  C:\Users\CHAIYA~1\AppData\Local\Temp\ccrE7040.s 			page 2


  32:.\Generated_Source\PSoC5/CAN_TX_RX_func.c **** * FUNCTION NAME:   CAN_SendMsg
  33:.\Generated_Source\PSoC5/CAN_TX_RX_func.c **** ********************************************************************************
  34:.\Generated_Source\PSoC5/CAN_TX_RX_func.c **** *
  35:.\Generated_Source\PSoC5/CAN_TX_RX_func.c **** * Summary:
  36:.\Generated_Source\PSoC5/CAN_TX_RX_func.c **** *  This function Send Message from one of Basic mailboxes. Function loop through
  37:.\Generated_Source\PSoC5/CAN_TX_RX_func.c **** *  the transmit message buffer designed as Basic CAN mailboxes for first free
  38:.\Generated_Source\PSoC5/CAN_TX_RX_func.c **** *  available and send from it. The number of retries is limited.
  39:.\Generated_Source\PSoC5/CAN_TX_RX_func.c **** *
  40:.\Generated_Source\PSoC5/CAN_TX_RX_func.c **** * Parameters:
  41:.\Generated_Source\PSoC5/CAN_TX_RX_func.c **** *  message: Pointer to structure that contain all required data to send message.
  42:.\Generated_Source\PSoC5/CAN_TX_RX_func.c **** *
  43:.\Generated_Source\PSoC5/CAN_TX_RX_func.c **** * Return:
  44:.\Generated_Source\PSoC5/CAN_TX_RX_func.c **** *  Indication if message has been sent.
  45:.\Generated_Source\PSoC5/CAN_TX_RX_func.c **** *   Define                             Description
  46:.\Generated_Source\PSoC5/CAN_TX_RX_func.c **** *    CYRET_SUCCESS                      Function passed successfully
  47:.\Generated_Source\PSoC5/CAN_TX_RX_func.c **** *    CAN_FAIL              Function failed
  48:.\Generated_Source\PSoC5/CAN_TX_RX_func.c **** *
  49:.\Generated_Source\PSoC5/CAN_TX_RX_func.c **** *******************************************************************************/
  50:.\Generated_Source\PSoC5/CAN_TX_RX_func.c **** uint8 CAN_SendMsg(const CAN_TX_MSG *message) 
  51:.\Generated_Source\PSoC5/CAN_TX_RX_func.c **** {
  27              		.loc 1 51 0
  28              		.cfi_startproc
  29              		@ args = 0, pretend = 0, frame = 24
  30              		@ frame_needed = 1, uses_anonymous_args = 0
  31              		@ link register save eliminated.
  32 0000 80B4     		push	{r7}
  33              	.LCFI0:
  34              		.cfi_def_cfa_offset 4
  35              		.cfi_offset 7, -4
  36 0002 87B0     		sub	sp, sp, #28
  37              	.LCFI1:
  38              		.cfi_def_cfa_offset 32
  39 0004 00AF     		add	r7, sp, #0
  40              	.LCFI2:
  41              		.cfi_def_cfa_register 7
  42 0006 7860     		str	r0, [r7, #4]
  52:.\Generated_Source\PSoC5/CAN_TX_RX_func.c ****     uint8 i, j, shift;
  53:.\Generated_Source\PSoC5/CAN_TX_RX_func.c ****     uint8 retry = 0u;
  43              		.loc 1 53 0
  44 0008 4FF00003 		mov	r3, #0
  45 000c 3B75     		strb	r3, [r7, #20]
  54:.\Generated_Source\PSoC5/CAN_TX_RX_func.c ****     uint8 result = CAN_FAIL;
  46              		.loc 1 54 0
  47 000e 4FF00103 		mov	r3, #1
  48 0012 FB74     		strb	r3, [r7, #19]
  55:.\Generated_Source\PSoC5/CAN_TX_RX_func.c ****     uint32 regTemp;
  56:.\Generated_Source\PSoC5/CAN_TX_RX_func.c **** 
  57:.\Generated_Source\PSoC5/CAN_TX_RX_func.c ****     while (retry < CAN_RETRY_NUMBER)
  49              		.loc 1 57 0
  50 0014 C6E0     		b	.L2
  51              	.L20:
  58:.\Generated_Source\PSoC5/CAN_TX_RX_func.c ****     {
  59:.\Generated_Source\PSoC5/CAN_TX_RX_func.c ****         shift = 1u;
  52              		.loc 1 59 0
  53 0016 4FF00103 		mov	r3, #1
  54 001a 7B75     		strb	r3, [r7, #21]
  60:.\Generated_Source\PSoC5/CAN_TX_RX_func.c ****         for (i = 0u; i < CAN_NUMBER_OF_TX_MAILBOXES; i++)
ARM GAS  C:\Users\CHAIYA~1\AppData\Local\Temp\ccrE7040.s 			page 3


  55              		.loc 1 60 0
  56 001c 4FF00003 		mov	r3, #0
  57 0020 FB75     		strb	r3, [r7, #23]
  58 0022 B2E0     		b	.L3
  59              	.L17:
  61:.\Generated_Source\PSoC5/CAN_TX_RX_func.c ****         {
  62:.\Generated_Source\PSoC5/CAN_TX_RX_func.c ****             /* Find Basic TX mailboxes */
  63:.\Generated_Source\PSoC5/CAN_TX_RX_func.c ****             if ((CAN_TX_MAILBOX_TYPE & shift) == 0u)
  60              		.loc 1 63 0
  61 0024 7B7D     		ldrb	r3, [r7, #21]
  62 0026 03F00703 		and	r3, r3, #7
  63 002a DBB2     		uxtb	r3, r3
  64 002c 002B     		cmp	r3, #0
  65 002e 40F0A180 		bne	.L4
  64:.\Generated_Source\PSoC5/CAN_TX_RX_func.c ****             {
  65:.\Generated_Source\PSoC5/CAN_TX_RX_func.c ****                 /* Find free mailbox */
  66:.\Generated_Source\PSoC5/CAN_TX_RX_func.c ****                 if ((CAN_BUF_SR_REG.byte[2] & shift) == 0u)
  66              		.loc 1 66 0
  67 0032 4AF20803 		movw	r3, #40968
  68 0036 C4F20003 		movt	r3, 16384
  69 003a 9B78     		ldrb	r3, [r3, #2]
  70 003c DAB2     		uxtb	r2, r3
  71 003e 7B7D     		ldrb	r3, [r7, #21]
  72 0040 1340     		ands	r3, r3, r2
  73 0042 DBB2     		uxtb	r3, r3
  74 0044 002B     		cmp	r3, #0
  75 0046 40F09580 		bne	.L4
  67:.\Generated_Source\PSoC5/CAN_TX_RX_func.c ****                 {
  68:.\Generated_Source\PSoC5/CAN_TX_RX_func.c ****                     regTemp = 0u;
  76              		.loc 1 68 0
  77 004a 4FF00003 		mov	r3, #0
  78 004e FB60     		str	r3, [r7, #12]
  69:.\Generated_Source\PSoC5/CAN_TX_RX_func.c **** 
  70:.\Generated_Source\PSoC5/CAN_TX_RX_func.c ****                     /* Set message parameters */                   
  71:.\Generated_Source\PSoC5/CAN_TX_RX_func.c ****                     if ((message->ide) == CAN_STANDARD_MESSAGE)
  79              		.loc 1 71 0
  80 0050 7B68     		ldr	r3, [r7, #4]
  81 0052 5B79     		ldrb	r3, [r3, #5]	@ zero_extendqisi2
  82 0054 002B     		cmp	r3, #0
  83 0056 0FD1     		bne	.L5
  72:.\Generated_Source\PSoC5/CAN_TX_RX_func.c ****                     {
  73:.\Generated_Source\PSoC5/CAN_TX_RX_func.c ****                         CAN_SET_TX_ID_STANDARD_MSG(i, message->id);                        
  84              		.loc 1 73 0
  85 0058 FB7D     		ldrb	r3, [r7, #23]	@ zero_extendqisi2
  86 005a 4FEA0312 		lsl	r2, r3, #4
  87 005e 4AF22003 		movw	r3, #40992
  88 0062 C4F20003 		movt	r3, 16384
  89 0066 D318     		adds	r3, r2, r3
  90 0068 03F10403 		add	r3, r3, #4
  91 006c 7A68     		ldr	r2, [r7, #4]
  92 006e 1268     		ldr	r2, [r2, #0]
  93 0070 4FEA4252 		lsl	r2, r2, #21
  94 0074 1A60     		str	r2, [r3, #0]
  95 0076 11E0     		b	.L6
  96              	.L5:
  74:.\Generated_Source\PSoC5/CAN_TX_RX_func.c ****                     }
  75:.\Generated_Source\PSoC5/CAN_TX_RX_func.c ****                     else
ARM GAS  C:\Users\CHAIYA~1\AppData\Local\Temp\ccrE7040.s 			page 4


  76:.\Generated_Source\PSoC5/CAN_TX_RX_func.c ****                     {
  77:.\Generated_Source\PSoC5/CAN_TX_RX_func.c ****                         regTemp = CAN_TX_IDE_MASK;
  97              		.loc 1 77 0
  98 0078 4FF48013 		mov	r3, #1048576
  99 007c FB60     		str	r3, [r7, #12]
  78:.\Generated_Source\PSoC5/CAN_TX_RX_func.c ****                         CAN_SET_TX_ID_EXTENDED_MSG(i, message->id);
 100              		.loc 1 78 0
 101 007e FB7D     		ldrb	r3, [r7, #23]	@ zero_extendqisi2
 102 0080 4FEA0312 		lsl	r2, r3, #4
 103 0084 4AF22003 		movw	r3, #40992
 104 0088 C4F20003 		movt	r3, 16384
 105 008c D318     		adds	r3, r2, r3
 106 008e 03F10403 		add	r3, r3, #4
 107 0092 7A68     		ldr	r2, [r7, #4]
 108 0094 1268     		ldr	r2, [r2, #0]
 109 0096 4FEAC202 		lsl	r2, r2, #3
 110 009a 1A60     		str	r2, [r3, #0]
 111              	.L6:
  79:.\Generated_Source\PSoC5/CAN_TX_RX_func.c ****                     }
  80:.\Generated_Source\PSoC5/CAN_TX_RX_func.c ****                     if (message->dlc < CAN_TX_DLC_MAX_VALUE)
 112              		.loc 1 80 0
 113 009c 7B68     		ldr	r3, [r7, #4]
 114 009e 9B79     		ldrb	r3, [r3, #6]	@ zero_extendqisi2
 115 00a0 072B     		cmp	r3, #7
 116 00a2 07D8     		bhi	.L7
  81:.\Generated_Source\PSoC5/CAN_TX_RX_func.c ****                     {
  82:.\Generated_Source\PSoC5/CAN_TX_RX_func.c ****                         regTemp |= ((uint32) message->dlc) << CAN_TWO_BYTE_OFFSET;
 117              		.loc 1 82 0
 118 00a4 7B68     		ldr	r3, [r7, #4]
 119 00a6 9B79     		ldrb	r3, [r3, #6]	@ zero_extendqisi2
 120 00a8 4FEA0343 		lsl	r3, r3, #16
 121 00ac FA68     		ldr	r2, [r7, #12]
 122 00ae 1343     		orrs	r3, r3, r2
 123 00b0 FB60     		str	r3, [r7, #12]
 124 00b2 03E0     		b	.L8
 125              	.L7:
  83:.\Generated_Source\PSoC5/CAN_TX_RX_func.c ****                     }
  84:.\Generated_Source\PSoC5/CAN_TX_RX_func.c ****                     else
  85:.\Generated_Source\PSoC5/CAN_TX_RX_func.c ****                     {
  86:.\Generated_Source\PSoC5/CAN_TX_RX_func.c ****                         regTemp |= CAN_TX_DLC_UPPER_VALUE;
 126              		.loc 1 86 0
 127 00b4 FB68     		ldr	r3, [r7, #12]
 128 00b6 43F40023 		orr	r3, r3, #524288
 129 00ba FB60     		str	r3, [r7, #12]
 130              	.L8:
  87:.\Generated_Source\PSoC5/CAN_TX_RX_func.c ****                     }
  88:.\Generated_Source\PSoC5/CAN_TX_RX_func.c ****                     if ((message->irq) != CAN_TRANSMIT_INT_DISABLE)
 131              		.loc 1 88 0
 132 00bc 7B68     		ldr	r3, [r7, #4]
 133 00be DB79     		ldrb	r3, [r3, #7]	@ zero_extendqisi2
 134 00c0 002B     		cmp	r3, #0
 135 00c2 03D0     		beq	.L9
  89:.\Generated_Source\PSoC5/CAN_TX_RX_func.c ****                     {
  90:.\Generated_Source\PSoC5/CAN_TX_RX_func.c ****                         regTemp |= CAN_TX_INT_ENABLE_MASK;    /* Transmit Interrupt Enable */
 136              		.loc 1 90 0
 137 00c4 FB68     		ldr	r3, [r7, #12]
 138 00c6 43F00403 		orr	r3, r3, #4
ARM GAS  C:\Users\CHAIYA~1\AppData\Local\Temp\ccrE7040.s 			page 5


 139 00ca FB60     		str	r3, [r7, #12]
 140              	.L9:
  91:.\Generated_Source\PSoC5/CAN_TX_RX_func.c ****                     }
  92:.\Generated_Source\PSoC5/CAN_TX_RX_func.c **** 
  93:.\Generated_Source\PSoC5/CAN_TX_RX_func.c ****                     for (j = 0u; (j < message->dlc) && (j < CAN_TX_DLC_MAX_VALUE); j++)
 141              		.loc 1 93 0
 142 00cc 4FF00003 		mov	r3, #0
 143 00d0 BB75     		strb	r3, [r7, #22]
 144 00d2 1CE0     		b	.L10
 145              	.L14:
  94:.\Generated_Source\PSoC5/CAN_TX_RX_func.c ****                     {
  95:.\Generated_Source\PSoC5/CAN_TX_RX_func.c ****                         CAN_TX_DATA_BYTE(i, j) = message->msg->byte[j];
 146              		.loc 1 95 0
 147 00d4 FB7D     		ldrb	r3, [r7, #23]	@ zero_extendqisi2
 148 00d6 4FEA0312 		lsl	r2, r3, #4
 149 00da 4AF22003 		movw	r3, #40992
 150 00de C4F20003 		movt	r3, 16384
 151 00e2 D318     		adds	r3, r2, r3
 152 00e4 BA7D     		ldrb	r2, [r7, #22]	@ zero_extendqisi2
 153 00e6 032A     		cmp	r2, #3
 154 00e8 03D9     		bls	.L11
 155              		.loc 1 95 0 is_stmt 0 discriminator 1
 156 00ea BA7D     		ldrb	r2, [r7, #22]	@ zero_extendqisi2
 157 00ec C2F10B02 		rsb	r2, r2, #11
 158 00f0 02E0     		b	.L12
 159              	.L11:
 160              		.loc 1 95 0 discriminator 2
 161 00f2 BA7D     		ldrb	r2, [r7, #22]	@ zero_extendqisi2
 162 00f4 C2F10302 		rsb	r2, r2, #3
 163              	.L12:
 164              		.loc 1 95 0 discriminator 3
 165 00f8 7968     		ldr	r1, [r7, #4]
 166 00fa 8868     		ldr	r0, [r1, #8]
 167 00fc B97D     		ldrb	r1, [r7, #22]	@ zero_extendqisi2
 168 00fe 415C     		ldrb	r1, [r0, r1]	@ zero_extendqisi2
 169 0100 9B18     		adds	r3, r3, r2
 170 0102 0A46     		mov	r2, r1
 171 0104 1A72     		strb	r2, [r3, #8]
  93:.\Generated_Source\PSoC5/CAN_TX_RX_func.c ****                     for (j = 0u; (j < message->dlc) && (j < CAN_TX_DLC_MAX_VALUE); j++)
 172              		.loc 1 93 0 is_stmt 1 discriminator 3
 173 0106 BB7D     		ldrb	r3, [r7, #22]
 174 0108 03F10103 		add	r3, r3, #1
 175 010c BB75     		strb	r3, [r7, #22]
 176              	.L10:
  93:.\Generated_Source\PSoC5/CAN_TX_RX_func.c ****                     for (j = 0u; (j < message->dlc) && (j < CAN_TX_DLC_MAX_VALUE); j++)
 177              		.loc 1 93 0 is_stmt 0 discriminator 1
 178 010e 7B68     		ldr	r3, [r7, #4]
 179 0110 9B79     		ldrb	r3, [r3, #6]	@ zero_extendqisi2
 180 0112 BA7D     		ldrb	r2, [r7, #22]	@ zero_extendqisi2
 181 0114 9A42     		cmp	r2, r3
 182 0116 02D2     		bcs	.L13
  93:.\Generated_Source\PSoC5/CAN_TX_RX_func.c ****                     for (j = 0u; (j < message->dlc) && (j < CAN_TX_DLC_MAX_VALUE); j++)
 183              		.loc 1 93 0 discriminator 2
 184 0118 BB7D     		ldrb	r3, [r7, #22]	@ zero_extendqisi2
 185 011a 072B     		cmp	r3, #7
 186 011c DAD9     		bls	.L14
 187              	.L13:
ARM GAS  C:\Users\CHAIYA~1\AppData\Local\Temp\ccrE7040.s 			page 6


  96:.\Generated_Source\PSoC5/CAN_TX_RX_func.c ****                     }
  97:.\Generated_Source\PSoC5/CAN_TX_RX_func.c ****                     
  98:.\Generated_Source\PSoC5/CAN_TX_RX_func.c ****     /* Disable isr */
  99:.\Generated_Source\PSoC5/CAN_TX_RX_func.c ****     CyIntDisable(CAN_ISR_NUMBER);
 188              		.loc 1 99 0 is_stmt 1
 189 011e 4EF28013 		movw	r3, #57728
 190 0122 CEF20003 		movt	r3, 57344
 191 0126 4FF48032 		mov	r2, #65536
 192 012a 1A60     		str	r2, [r3, #0]
 100:.\Generated_Source\PSoC5/CAN_TX_RX_func.c **** 
 101:.\Generated_Source\PSoC5/CAN_TX_RX_func.c ****                     /* WPN[23] and WPN[3] set to 1 for write to CAN Control reg */
 102:.\Generated_Source\PSoC5/CAN_TX_RX_func.c ****                     CY_SET_REG32((reg32 *) &CAN_TX[i].txcmd, (regTemp | CAN_TX_WPN_SET));
 193              		.loc 1 102 0
 194 012c FB7D     		ldrb	r3, [r7, #23]	@ zero_extendqisi2
 195 012e 4FEA0312 		lsl	r2, r3, #4
 196 0132 4AF22003 		movw	r3, #40992
 197 0136 C4F20003 		movt	r3, 16384
 198 013a D318     		adds	r3, r2, r3
 199 013c 1A46     		mov	r2, r3
 200 013e FB68     		ldr	r3, [r7, #12]
 201 0140 43F40003 		orr	r3, r3, #8388608
 202 0144 43F00803 		orr	r3, r3, #8
 203 0148 1360     		str	r3, [r2, #0]
 103:.\Generated_Source\PSoC5/CAN_TX_RX_func.c ****                     CY_SET_REG32((reg32 *) &CAN_TX[i].txcmd, CAN_SEND_MESSAGE);
 204              		.loc 1 103 0
 205 014a FB7D     		ldrb	r3, [r7, #23]	@ zero_extendqisi2
 206 014c 4FEA0312 		lsl	r2, r3, #4
 207 0150 4AF22003 		movw	r3, #40992
 208 0154 C4F20003 		movt	r3, 16384
 209 0158 D318     		adds	r3, r2, r3
 210 015a 4FF00102 		mov	r2, #1
 211 015e 1A60     		str	r2, [r3, #0]
 104:.\Generated_Source\PSoC5/CAN_TX_RX_func.c ****                     
 105:.\Generated_Source\PSoC5/CAN_TX_RX_func.c ****     /* Enable isr */
 106:.\Generated_Source\PSoC5/CAN_TX_RX_func.c ****     CyIntEnable(CAN_ISR_NUMBER);
 212              		.loc 1 106 0
 213 0160 4FF46143 		mov	r3, #57600
 214 0164 CEF20003 		movt	r3, 57344
 215 0168 4FF48032 		mov	r2, #65536
 216 016c 1A60     		str	r2, [r3, #0]
 107:.\Generated_Source\PSoC5/CAN_TX_RX_func.c **** 
 108:.\Generated_Source\PSoC5/CAN_TX_RX_func.c ****                     result = CYRET_SUCCESS;
 217              		.loc 1 108 0
 218 016e 4FF00003 		mov	r3, #0
 219 0172 FB74     		strb	r3, [r7, #19]
 220              	.L4:
 109:.\Generated_Source\PSoC5/CAN_TX_RX_func.c ****                 }
 110:.\Generated_Source\PSoC5/CAN_TX_RX_func.c ****             }
 111:.\Generated_Source\PSoC5/CAN_TX_RX_func.c ****             shift <<= 1u;
 221              		.loc 1 111 0
 222 0174 7B7D     		ldrb	r3, [r7, #21]
 223 0176 4FEA4303 		lsl	r3, r3, #1
 224 017a 7B75     		strb	r3, [r7, #21]
 112:.\Generated_Source\PSoC5/CAN_TX_RX_func.c ****             if (result == CYRET_SUCCESS)
 225              		.loc 1 112 0
 226 017c FB7C     		ldrb	r3, [r7, #19]	@ zero_extendqisi2
 227 017e 002B     		cmp	r3, #0
ARM GAS  C:\Users\CHAIYA~1\AppData\Local\Temp\ccrE7040.s 			page 7


 228 0180 08D0     		beq	.L22
 229              	.L15:
  60:.\Generated_Source\PSoC5/CAN_TX_RX_func.c ****         for (i = 0u; i < CAN_NUMBER_OF_TX_MAILBOXES; i++)
 230              		.loc 1 60 0
 231 0182 FB7D     		ldrb	r3, [r7, #23]
 232 0184 03F10103 		add	r3, r3, #1
 233 0188 FB75     		strb	r3, [r7, #23]
 234              	.L3:
  60:.\Generated_Source\PSoC5/CAN_TX_RX_func.c ****         for (i = 0u; i < CAN_NUMBER_OF_TX_MAILBOXES; i++)
 235              		.loc 1 60 0 is_stmt 0 discriminator 1
 236 018a FB7D     		ldrb	r3, [r7, #23]	@ zero_extendqisi2
 237 018c 072B     		cmp	r3, #7
 238 018e 7FF649AF 		bls	.L17
 239 0192 00E0     		b	.L16
 240              	.L22:
 113:.\Generated_Source\PSoC5/CAN_TX_RX_func.c ****             {
 114:.\Generated_Source\PSoC5/CAN_TX_RX_func.c ****                 break;
 241              		.loc 1 114 0 is_stmt 1
 242 0194 00BF     		nop
 243              	.L16:
 115:.\Generated_Source\PSoC5/CAN_TX_RX_func.c ****             }
 116:.\Generated_Source\PSoC5/CAN_TX_RX_func.c ****         }
 117:.\Generated_Source\PSoC5/CAN_TX_RX_func.c ****         if (result == CYRET_SUCCESS)
 244              		.loc 1 117 0
 245 0196 FB7C     		ldrb	r3, [r7, #19]	@ zero_extendqisi2
 246 0198 002B     		cmp	r3, #0
 247 019a 08D0     		beq	.L23
 248              	.L18:
 118:.\Generated_Source\PSoC5/CAN_TX_RX_func.c ****         {
 119:.\Generated_Source\PSoC5/CAN_TX_RX_func.c ****             break;
 120:.\Generated_Source\PSoC5/CAN_TX_RX_func.c ****         }
 121:.\Generated_Source\PSoC5/CAN_TX_RX_func.c ****         else
 122:.\Generated_Source\PSoC5/CAN_TX_RX_func.c ****         {
 123:.\Generated_Source\PSoC5/CAN_TX_RX_func.c ****             retry++;
 249              		.loc 1 123 0
 250 019c 3B7D     		ldrb	r3, [r7, #20]
 251 019e 03F10103 		add	r3, r3, #1
 252 01a2 3B75     		strb	r3, [r7, #20]
 253              	.L2:
  57:.\Generated_Source\PSoC5/CAN_TX_RX_func.c ****     while (retry < CAN_RETRY_NUMBER)
 254              		.loc 1 57 0 discriminator 1
 255 01a4 3B7D     		ldrb	r3, [r7, #20]	@ zero_extendqisi2
 256 01a6 022B     		cmp	r3, #2
 257 01a8 7FF635AF 		bls	.L20
 258 01ac 00E0     		b	.L19
 259              	.L23:
 119:.\Generated_Source\PSoC5/CAN_TX_RX_func.c ****             break;
 260              		.loc 1 119 0
 261 01ae 00BF     		nop
 262              	.L19:
 124:.\Generated_Source\PSoC5/CAN_TX_RX_func.c ****         }
 125:.\Generated_Source\PSoC5/CAN_TX_RX_func.c ****     }
 126:.\Generated_Source\PSoC5/CAN_TX_RX_func.c **** 
 127:.\Generated_Source\PSoC5/CAN_TX_RX_func.c ****     return (result);
 263              		.loc 1 127 0
 264 01b0 FB7C     		ldrb	r3, [r7, #19]	@ zero_extendqisi2
 128:.\Generated_Source\PSoC5/CAN_TX_RX_func.c **** }
ARM GAS  C:\Users\CHAIYA~1\AppData\Local\Temp\ccrE7040.s 			page 8


 265              		.loc 1 128 0
 266 01b2 1846     		mov	r0, r3
 267 01b4 07F11C07 		add	r7, r7, #28
 268 01b8 BD46     		mov	sp, r7
 269 01ba 80BC     		pop	{r7}
 270 01bc 7047     		bx	lr
 271              		.cfi_endproc
 272              	.LFE0:
 273              		.size	CAN_SendMsg, .-CAN_SendMsg
 274 01be 00BF     		.section	.text.CAN_TxCancel,"ax",%progbits
 275              		.align	2
 276              		.global	CAN_TxCancel
 277              		.thumb
 278              		.thumb_func
 279              		.type	CAN_TxCancel, %function
 280              	CAN_TxCancel:
 281              	.LFB1:
 129:.\Generated_Source\PSoC5/CAN_TX_RX_func.c **** 
 130:.\Generated_Source\PSoC5/CAN_TX_RX_func.c **** 
 131:.\Generated_Source\PSoC5/CAN_TX_RX_func.c **** /*******************************************************************************
 132:.\Generated_Source\PSoC5/CAN_TX_RX_func.c **** * FUNCTION NAME:   CAN_TxCancel
 133:.\Generated_Source\PSoC5/CAN_TX_RX_func.c **** ********************************************************************************
 134:.\Generated_Source\PSoC5/CAN_TX_RX_func.c **** *
 135:.\Generated_Source\PSoC5/CAN_TX_RX_func.c **** * Summary:
 136:.\Generated_Source\PSoC5/CAN_TX_RX_func.c **** *  This function cancel transmission of a message that has been queued for
 137:.\Generated_Source\PSoC5/CAN_TX_RX_func.c **** *  transmitted. Values between 0 and 15 are valid.
 138:.\Generated_Source\PSoC5/CAN_TX_RX_func.c **** *
 139:.\Generated_Source\PSoC5/CAN_TX_RX_func.c **** * Parameters:
 140:.\Generated_Source\PSoC5/CAN_TX_RX_func.c **** *  bufferId: Mailbox number.
 141:.\Generated_Source\PSoC5/CAN_TX_RX_func.c **** *
 142:.\Generated_Source\PSoC5/CAN_TX_RX_func.c **** * Return:
 143:.\Generated_Source\PSoC5/CAN_TX_RX_func.c **** *  None.
 144:.\Generated_Source\PSoC5/CAN_TX_RX_func.c **** *
 145:.\Generated_Source\PSoC5/CAN_TX_RX_func.c **** *******************************************************************************/
 146:.\Generated_Source\PSoC5/CAN_TX_RX_func.c **** void CAN_TxCancel(uint8 bufferId) 
 147:.\Generated_Source\PSoC5/CAN_TX_RX_func.c **** {
 282              		.loc 1 147 0
 283              		.cfi_startproc
 284              		@ args = 0, pretend = 0, frame = 8
 285              		@ frame_needed = 1, uses_anonymous_args = 0
 286              		@ link register save eliminated.
 287 0000 80B4     		push	{r7}
 288              	.LCFI3:
 289              		.cfi_def_cfa_offset 4
 290              		.cfi_offset 7, -4
 291 0002 83B0     		sub	sp, sp, #12
 292              	.LCFI4:
 293              		.cfi_def_cfa_offset 16
 294 0004 00AF     		add	r7, sp, #0
 295              	.LCFI5:
 296              		.cfi_def_cfa_register 7
 297 0006 0346     		mov	r3, r0
 298 0008 FB71     		strb	r3, [r7, #7]
 148:.\Generated_Source\PSoC5/CAN_TX_RX_func.c ****     if (bufferId < CAN_NUMBER_OF_TX_MAILBOXES)
 299              		.loc 1 148 0
 300 000a FB79     		ldrb	r3, [r7, #7]	@ zero_extendqisi2
 301 000c 072B     		cmp	r3, #7
ARM GAS  C:\Users\CHAIYA~1\AppData\Local\Temp\ccrE7040.s 			page 9


 302 000e 15D8     		bhi	.L24
 149:.\Generated_Source\PSoC5/CAN_TX_RX_func.c ****     {
 150:.\Generated_Source\PSoC5/CAN_TX_RX_func.c ****         CAN_TX_ABORT_MESSAGE(bufferId);
 303              		.loc 1 150 0
 304 0010 FB79     		ldrb	r3, [r7, #7]	@ zero_extendqisi2
 305 0012 4FEA0312 		lsl	r2, r3, #4
 306 0016 4AF22003 		movw	r3, #40992
 307 001a C4F20003 		movt	r3, 16384
 308 001e D318     		adds	r3, r2, r3
 309 0020 FA79     		ldrb	r2, [r7, #7]	@ zero_extendqisi2
 310 0022 4FEA0211 		lsl	r1, r2, #4
 311 0026 4AF22002 		movw	r2, #40992
 312 002a C4F20002 		movt	r2, 16384
 313 002e 8A18     		adds	r2, r1, r2
 314 0030 1278     		ldrb	r2, [r2, #0]
 315 0032 D2B2     		uxtb	r2, r2
 316 0034 42F00202 		orr	r2, r2, #2
 317 0038 D2B2     		uxtb	r2, r2
 318 003a 1A70     		strb	r2, [r3, #0]
 319              	.L24:
 151:.\Generated_Source\PSoC5/CAN_TX_RX_func.c ****     }
 152:.\Generated_Source\PSoC5/CAN_TX_RX_func.c **** }
 320              		.loc 1 152 0
 321 003c 07F10C07 		add	r7, r7, #12
 322 0040 BD46     		mov	sp, r7
 323 0042 80BC     		pop	{r7}
 324 0044 7047     		bx	lr
 325              		.cfi_endproc
 326              	.LFE1:
 327              		.size	CAN_TxCancel, .-CAN_TxCancel
 328 0046 00BF     		.section	.text.CAN_SendMsg0,"ax",%progbits
 329              		.align	2
 330              		.global	CAN_SendMsg0
 331              		.thumb
 332              		.thumb_func
 333              		.type	CAN_SendMsg0, %function
 334              	CAN_SendMsg0:
 335              	.LFB2:
 153:.\Generated_Source\PSoC5/CAN_TX_RX_func.c **** 
 154:.\Generated_Source\PSoC5/CAN_TX_RX_func.c **** 
 155:.\Generated_Source\PSoC5/CAN_TX_RX_func.c **** #if (CAN_TX0_FUNC_ENABLE)
 156:.\Generated_Source\PSoC5/CAN_TX_RX_func.c ****     /*******************************************************************************
 157:.\Generated_Source\PSoC5/CAN_TX_RX_func.c ****     * FUNCTION NAME:   CAN_SendMsg0
 158:.\Generated_Source\PSoC5/CAN_TX_RX_func.c ****     ********************************************************************************
 159:.\Generated_Source\PSoC5/CAN_TX_RX_func.c ****     *
 160:.\Generated_Source\PSoC5/CAN_TX_RX_func.c ****     * Summary:
 161:.\Generated_Source\PSoC5/CAN_TX_RX_func.c ****     *  This function is entry point to Transmit Message 0. Function check
 162:.\Generated_Source\PSoC5/CAN_TX_RX_func.c ****     *  if mailbox 0 doesn't already have an un-transmitted messages waiting for
 163:.\Generated_Source\PSoC5/CAN_TX_RX_func.c ****     *  arbitration. If not initiate transmission of the message.
 164:.\Generated_Source\PSoC5/CAN_TX_RX_func.c ****     *  Only generated for Transmit mailbox designed as Full.
 165:.\Generated_Source\PSoC5/CAN_TX_RX_func.c ****     *
 166:.\Generated_Source\PSoC5/CAN_TX_RX_func.c ****     * Parameters:
 167:.\Generated_Source\PSoC5/CAN_TX_RX_func.c ****     *  None.
 168:.\Generated_Source\PSoC5/CAN_TX_RX_func.c ****     *
 169:.\Generated_Source\PSoC5/CAN_TX_RX_func.c ****     * Return:
 170:.\Generated_Source\PSoC5/CAN_TX_RX_func.c ****     *  Indication if Message has been sent.
 171:.\Generated_Source\PSoC5/CAN_TX_RX_func.c ****     *   Define                             Description
ARM GAS  C:\Users\CHAIYA~1\AppData\Local\Temp\ccrE7040.s 			page 10


 172:.\Generated_Source\PSoC5/CAN_TX_RX_func.c ****     *    CYRET_SUCCESS                      Function passed successfully
 173:.\Generated_Source\PSoC5/CAN_TX_RX_func.c ****     *    CAN_FAIL              Function failed
 174:.\Generated_Source\PSoC5/CAN_TX_RX_func.c ****     *
 175:.\Generated_Source\PSoC5/CAN_TX_RX_func.c ****     *******************************************************************************/
 176:.\Generated_Source\PSoC5/CAN_TX_RX_func.c ****     uint8 CAN_SendMsg0(void) 
 177:.\Generated_Source\PSoC5/CAN_TX_RX_func.c ****     {
 336              		.loc 1 177 0
 337              		.cfi_startproc
 338              		@ args = 0, pretend = 0, frame = 8
 339              		@ frame_needed = 1, uses_anonymous_args = 0
 340              		@ link register save eliminated.
 341 0000 80B4     		push	{r7}
 342              	.LCFI6:
 343              		.cfi_def_cfa_offset 4
 344              		.cfi_offset 7, -4
 345 0002 83B0     		sub	sp, sp, #12
 346              	.LCFI7:
 347              		.cfi_def_cfa_offset 16
 348 0004 00AF     		add	r7, sp, #0
 349              	.LCFI8:
 350              		.cfi_def_cfa_register 7
 178:.\Generated_Source\PSoC5/CAN_TX_RX_func.c ****         uint8 result = CYRET_SUCCESS;
 351              		.loc 1 178 0
 352 0006 4FF00003 		mov	r3, #0
 353 000a FB71     		strb	r3, [r7, #7]
 179:.\Generated_Source\PSoC5/CAN_TX_RX_func.c ****         
 180:.\Generated_Source\PSoC5/CAN_TX_RX_func.c ****         if ((CAN_TX[0u].txcmd.byte[0u] & CAN_TX_REQUEST_PENDING) ==
 354              		.loc 1 180 0
 355 000c 4AF22003 		movw	r3, #40992
 356 0010 C4F20003 		movt	r3, 16384
 357 0014 1B78     		ldrb	r3, [r3, #0]
 358 0016 DBB2     		uxtb	r3, r3
 359 0018 03F00103 		and	r3, r3, #1
 360 001c 002B     		cmp	r3, #0
 361 001e 03D0     		beq	.L27
 181:.\Generated_Source\PSoC5/CAN_TX_RX_func.c ****             CAN_TX_REQUEST_PENDING)
 182:.\Generated_Source\PSoC5/CAN_TX_RX_func.c ****         {
 183:.\Generated_Source\PSoC5/CAN_TX_RX_func.c ****             result = CAN_FAIL;
 362              		.loc 1 183 0
 363 0020 4FF00103 		mov	r3, #1
 364 0024 FB71     		strb	r3, [r7, #7]
 365 0026 06E0     		b	.L28
 366              	.L27:
 184:.\Generated_Source\PSoC5/CAN_TX_RX_func.c ****         }
 185:.\Generated_Source\PSoC5/CAN_TX_RX_func.c ****         else
 186:.\Generated_Source\PSoC5/CAN_TX_RX_func.c ****         {
 187:.\Generated_Source\PSoC5/CAN_TX_RX_func.c ****             /* `#START MESSAGE_0_TRASMITTED` */
 188:.\Generated_Source\PSoC5/CAN_TX_RX_func.c **** 
 189:.\Generated_Source\PSoC5/CAN_TX_RX_func.c ****             /* `#END` */
 190:.\Generated_Source\PSoC5/CAN_TX_RX_func.c ****             
 191:.\Generated_Source\PSoC5/CAN_TX_RX_func.c ****             CY_SET_REG32((reg32 *) &CAN_TX[0u].txcmd, CAN_SEND_MESSAGE);
 367              		.loc 1 191 0
 368 0028 4AF22003 		movw	r3, #40992
 369 002c C4F20003 		movt	r3, 16384
 370 0030 4FF00102 		mov	r2, #1
 371 0034 1A60     		str	r2, [r3, #0]
 372              	.L28:
ARM GAS  C:\Users\CHAIYA~1\AppData\Local\Temp\ccrE7040.s 			page 11


 192:.\Generated_Source\PSoC5/CAN_TX_RX_func.c ****         }
 193:.\Generated_Source\PSoC5/CAN_TX_RX_func.c ****     
 194:.\Generated_Source\PSoC5/CAN_TX_RX_func.c ****         return (result);
 373              		.loc 1 194 0
 374 0036 FB79     		ldrb	r3, [r7, #7]	@ zero_extendqisi2
 195:.\Generated_Source\PSoC5/CAN_TX_RX_func.c ****     }    
 375              		.loc 1 195 0
 376 0038 1846     		mov	r0, r3
 377 003a 07F10C07 		add	r7, r7, #12
 378 003e BD46     		mov	sp, r7
 379 0040 80BC     		pop	{r7}
 380 0042 7047     		bx	lr
 381              		.cfi_endproc
 382              	.LFE2:
 383              		.size	CAN_SendMsg0, .-CAN_SendMsg0
 384              		.section	.text.CAN_SendMsg1,"ax",%progbits
 385              		.align	2
 386              		.global	CAN_SendMsg1
 387              		.thumb
 388              		.thumb_func
 389              		.type	CAN_SendMsg1, %function
 390              	CAN_SendMsg1:
 391              	.LFB3:
 196:.\Generated_Source\PSoC5/CAN_TX_RX_func.c **** #endif /* CAN_TX0_FUNC_ENABLE */
 197:.\Generated_Source\PSoC5/CAN_TX_RX_func.c **** 
 198:.\Generated_Source\PSoC5/CAN_TX_RX_func.c **** 
 199:.\Generated_Source\PSoC5/CAN_TX_RX_func.c **** #if (CAN_TX1_FUNC_ENABLE)
 200:.\Generated_Source\PSoC5/CAN_TX_RX_func.c ****     /*******************************************************************************
 201:.\Generated_Source\PSoC5/CAN_TX_RX_func.c ****     * FUNCTION NAME:   CAN_SendMsg1
 202:.\Generated_Source\PSoC5/CAN_TX_RX_func.c ****     ********************************************************************************
 203:.\Generated_Source\PSoC5/CAN_TX_RX_func.c ****     *
 204:.\Generated_Source\PSoC5/CAN_TX_RX_func.c ****     * Summary:
 205:.\Generated_Source\PSoC5/CAN_TX_RX_func.c ****     *  This function is entry point to Transmit Message 1. Function check
 206:.\Generated_Source\PSoC5/CAN_TX_RX_func.c ****     *  if mailbox 1 doesn't already have an un-transmitted messages waiting for
 207:.\Generated_Source\PSoC5/CAN_TX_RX_func.c ****     *  arbitration. If not initiate transmission of the message.
 208:.\Generated_Source\PSoC5/CAN_TX_RX_func.c ****     *  Only generated for Transmit mailbox designed as Full.
 209:.\Generated_Source\PSoC5/CAN_TX_RX_func.c ****     *
 210:.\Generated_Source\PSoC5/CAN_TX_RX_func.c ****     * Parameters:
 211:.\Generated_Source\PSoC5/CAN_TX_RX_func.c ****     *  None.
 212:.\Generated_Source\PSoC5/CAN_TX_RX_func.c ****     *
 213:.\Generated_Source\PSoC5/CAN_TX_RX_func.c ****     * Return:
 214:.\Generated_Source\PSoC5/CAN_TX_RX_func.c ****     *  Indication if Message has been sent.
 215:.\Generated_Source\PSoC5/CAN_TX_RX_func.c ****     *   Define                             Description
 216:.\Generated_Source\PSoC5/CAN_TX_RX_func.c ****     *    CYRET_SUCCESS                      Function passed successfully
 217:.\Generated_Source\PSoC5/CAN_TX_RX_func.c ****     *    CAN_FAIL              Function failed
 218:.\Generated_Source\PSoC5/CAN_TX_RX_func.c ****     *
 219:.\Generated_Source\PSoC5/CAN_TX_RX_func.c ****     *******************************************************************************/
 220:.\Generated_Source\PSoC5/CAN_TX_RX_func.c ****     uint8 CAN_SendMsg1(void) 
 221:.\Generated_Source\PSoC5/CAN_TX_RX_func.c ****     {
 392              		.loc 1 221 0
 393              		.cfi_startproc
 394              		@ args = 0, pretend = 0, frame = 8
 395              		@ frame_needed = 1, uses_anonymous_args = 0
 396              		@ link register save eliminated.
 397 0000 80B4     		push	{r7}
 398              	.LCFI9:
 399              		.cfi_def_cfa_offset 4
ARM GAS  C:\Users\CHAIYA~1\AppData\Local\Temp\ccrE7040.s 			page 12


 400              		.cfi_offset 7, -4
 401 0002 83B0     		sub	sp, sp, #12
 402              	.LCFI10:
 403              		.cfi_def_cfa_offset 16
 404 0004 00AF     		add	r7, sp, #0
 405              	.LCFI11:
 406              		.cfi_def_cfa_register 7
 222:.\Generated_Source\PSoC5/CAN_TX_RX_func.c ****         uint8 result = CYRET_SUCCESS;
 407              		.loc 1 222 0
 408 0006 4FF00003 		mov	r3, #0
 409 000a FB71     		strb	r3, [r7, #7]
 223:.\Generated_Source\PSoC5/CAN_TX_RX_func.c ****         
 224:.\Generated_Source\PSoC5/CAN_TX_RX_func.c ****         if ((CAN_TX[1u].txcmd.byte[0u] & CAN_TX_REQUEST_PENDING) ==
 410              		.loc 1 224 0
 411 000c 4AF23003 		movw	r3, #41008
 412 0010 C4F20003 		movt	r3, 16384
 413 0014 1B78     		ldrb	r3, [r3, #0]
 414 0016 DBB2     		uxtb	r3, r3
 415 0018 03F00103 		and	r3, r3, #1
 416 001c 002B     		cmp	r3, #0
 417 001e 03D0     		beq	.L31
 225:.\Generated_Source\PSoC5/CAN_TX_RX_func.c ****             CAN_TX_REQUEST_PENDING)
 226:.\Generated_Source\PSoC5/CAN_TX_RX_func.c ****         {
 227:.\Generated_Source\PSoC5/CAN_TX_RX_func.c ****             result = CAN_FAIL;
 418              		.loc 1 227 0
 419 0020 4FF00103 		mov	r3, #1
 420 0024 FB71     		strb	r3, [r7, #7]
 421 0026 06E0     		b	.L32
 422              	.L31:
 228:.\Generated_Source\PSoC5/CAN_TX_RX_func.c ****         }
 229:.\Generated_Source\PSoC5/CAN_TX_RX_func.c ****         else
 230:.\Generated_Source\PSoC5/CAN_TX_RX_func.c ****         {
 231:.\Generated_Source\PSoC5/CAN_TX_RX_func.c ****             /* `#START MESSAGE_1_TRASMITTED` */
 232:.\Generated_Source\PSoC5/CAN_TX_RX_func.c **** 
 233:.\Generated_Source\PSoC5/CAN_TX_RX_func.c ****             /* `#END` */
 234:.\Generated_Source\PSoC5/CAN_TX_RX_func.c ****             
 235:.\Generated_Source\PSoC5/CAN_TX_RX_func.c ****             CY_SET_REG32((reg32 *) & CAN_TX[1u].txcmd, CAN_SEND_MESSAGE);
 423              		.loc 1 235 0
 424 0028 4AF23003 		movw	r3, #41008
 425 002c C4F20003 		movt	r3, 16384
 426 0030 4FF00102 		mov	r2, #1
 427 0034 1A60     		str	r2, [r3, #0]
 428              	.L32:
 236:.\Generated_Source\PSoC5/CAN_TX_RX_func.c ****         }
 237:.\Generated_Source\PSoC5/CAN_TX_RX_func.c ****     
 238:.\Generated_Source\PSoC5/CAN_TX_RX_func.c ****         return (result);
 429              		.loc 1 238 0
 430 0036 FB79     		ldrb	r3, [r7, #7]	@ zero_extendqisi2
 239:.\Generated_Source\PSoC5/CAN_TX_RX_func.c ****     }    
 431              		.loc 1 239 0
 432 0038 1846     		mov	r0, r3
 433 003a 07F10C07 		add	r7, r7, #12
 434 003e BD46     		mov	sp, r7
 435 0040 80BC     		pop	{r7}
 436 0042 7047     		bx	lr
 437              		.cfi_endproc
 438              	.LFE3:
ARM GAS  C:\Users\CHAIYA~1\AppData\Local\Temp\ccrE7040.s 			page 13


 439              		.size	CAN_SendMsg1, .-CAN_SendMsg1
 440              		.section	.text.CAN_SendMsg2,"ax",%progbits
 441              		.align	2
 442              		.global	CAN_SendMsg2
 443              		.thumb
 444              		.thumb_func
 445              		.type	CAN_SendMsg2, %function
 446              	CAN_SendMsg2:
 447              	.LFB4:
 240:.\Generated_Source\PSoC5/CAN_TX_RX_func.c **** #endif /* CAN_TX1_FUNC_ENABLE */
 241:.\Generated_Source\PSoC5/CAN_TX_RX_func.c **** 
 242:.\Generated_Source\PSoC5/CAN_TX_RX_func.c **** 
 243:.\Generated_Source\PSoC5/CAN_TX_RX_func.c **** #if (CAN_TX2_FUNC_ENABLE)
 244:.\Generated_Source\PSoC5/CAN_TX_RX_func.c ****     /*******************************************************************************
 245:.\Generated_Source\PSoC5/CAN_TX_RX_func.c ****     * FUNCTION NAME:   CAN_SendMsg2
 246:.\Generated_Source\PSoC5/CAN_TX_RX_func.c ****     ********************************************************************************
 247:.\Generated_Source\PSoC5/CAN_TX_RX_func.c ****     *
 248:.\Generated_Source\PSoC5/CAN_TX_RX_func.c ****     * Summary:
 249:.\Generated_Source\PSoC5/CAN_TX_RX_func.c ****     *  This function is entry point to Transmit Message 2. Function check
 250:.\Generated_Source\PSoC5/CAN_TX_RX_func.c ****     *  if mailbox 2 doesn't already have an un-transmitted messages waiting for
 251:.\Generated_Source\PSoC5/CAN_TX_RX_func.c ****     *  arbitration. If not initiate transmission of the message.
 252:.\Generated_Source\PSoC5/CAN_TX_RX_func.c ****     *  Only generated for Transmit mailbox designed as Full.
 253:.\Generated_Source\PSoC5/CAN_TX_RX_func.c ****     *
 254:.\Generated_Source\PSoC5/CAN_TX_RX_func.c ****     * Parameters:
 255:.\Generated_Source\PSoC5/CAN_TX_RX_func.c ****     *  None.
 256:.\Generated_Source\PSoC5/CAN_TX_RX_func.c ****     *
 257:.\Generated_Source\PSoC5/CAN_TX_RX_func.c ****     * Return:
 258:.\Generated_Source\PSoC5/CAN_TX_RX_func.c ****     *  Indication if Message has been sent.
 259:.\Generated_Source\PSoC5/CAN_TX_RX_func.c ****     *   Define                             Description
 260:.\Generated_Source\PSoC5/CAN_TX_RX_func.c ****     *    CYRET_SUCCESS                      Function passed successfully
 261:.\Generated_Source\PSoC5/CAN_TX_RX_func.c ****     *    CAN_FAIL              Function failed
 262:.\Generated_Source\PSoC5/CAN_TX_RX_func.c ****     *
 263:.\Generated_Source\PSoC5/CAN_TX_RX_func.c ****     *******************************************************************************/
 264:.\Generated_Source\PSoC5/CAN_TX_RX_func.c ****     uint8 CAN_SendMsg2(void) 
 265:.\Generated_Source\PSoC5/CAN_TX_RX_func.c ****     {
 448              		.loc 1 265 0
 449              		.cfi_startproc
 450              		@ args = 0, pretend = 0, frame = 8
 451              		@ frame_needed = 1, uses_anonymous_args = 0
 452              		@ link register save eliminated.
 453 0000 80B4     		push	{r7}
 454              	.LCFI12:
 455              		.cfi_def_cfa_offset 4
 456              		.cfi_offset 7, -4
 457 0002 83B0     		sub	sp, sp, #12
 458              	.LCFI13:
 459              		.cfi_def_cfa_offset 16
 460 0004 00AF     		add	r7, sp, #0
 461              	.LCFI14:
 462              		.cfi_def_cfa_register 7
 266:.\Generated_Source\PSoC5/CAN_TX_RX_func.c ****         uint8 result = CYRET_SUCCESS;
 463              		.loc 1 266 0
 464 0006 4FF00003 		mov	r3, #0
 465 000a FB71     		strb	r3, [r7, #7]
 267:.\Generated_Source\PSoC5/CAN_TX_RX_func.c ****         
 268:.\Generated_Source\PSoC5/CAN_TX_RX_func.c ****         if ((CAN_TX[2u].txcmd.byte[0u] & CAN_TX_REQUEST_PENDING) ==
 466              		.loc 1 268 0
ARM GAS  C:\Users\CHAIYA~1\AppData\Local\Temp\ccrE7040.s 			page 14


 467 000c 4AF24003 		movw	r3, #41024
 468 0010 C4F20003 		movt	r3, 16384
 469 0014 1B78     		ldrb	r3, [r3, #0]
 470 0016 DBB2     		uxtb	r3, r3
 471 0018 03F00103 		and	r3, r3, #1
 472 001c 002B     		cmp	r3, #0
 473 001e 03D0     		beq	.L35
 269:.\Generated_Source\PSoC5/CAN_TX_RX_func.c ****             CAN_TX_REQUEST_PENDING)
 270:.\Generated_Source\PSoC5/CAN_TX_RX_func.c ****         {
 271:.\Generated_Source\PSoC5/CAN_TX_RX_func.c ****             result = CAN_FAIL;
 474              		.loc 1 271 0
 475 0020 4FF00103 		mov	r3, #1
 476 0024 FB71     		strb	r3, [r7, #7]
 477 0026 06E0     		b	.L36
 478              	.L35:
 272:.\Generated_Source\PSoC5/CAN_TX_RX_func.c ****         }
 273:.\Generated_Source\PSoC5/CAN_TX_RX_func.c ****         else
 274:.\Generated_Source\PSoC5/CAN_TX_RX_func.c ****         {
 275:.\Generated_Source\PSoC5/CAN_TX_RX_func.c ****             /* `#START MESSAGE_2_TRASMITTED` */
 276:.\Generated_Source\PSoC5/CAN_TX_RX_func.c **** 
 277:.\Generated_Source\PSoC5/CAN_TX_RX_func.c ****             /* `#END` */
 278:.\Generated_Source\PSoC5/CAN_TX_RX_func.c ****             
 279:.\Generated_Source\PSoC5/CAN_TX_RX_func.c ****             CY_SET_REG32((reg32 *) & CAN_TX[2u].txcmd, CAN_SEND_MESSAGE);
 479              		.loc 1 279 0
 480 0028 4AF24003 		movw	r3, #41024
 481 002c C4F20003 		movt	r3, 16384
 482 0030 4FF00102 		mov	r2, #1
 483 0034 1A60     		str	r2, [r3, #0]
 484              	.L36:
 280:.\Generated_Source\PSoC5/CAN_TX_RX_func.c ****         }
 281:.\Generated_Source\PSoC5/CAN_TX_RX_func.c ****     
 282:.\Generated_Source\PSoC5/CAN_TX_RX_func.c ****         return (result);
 485              		.loc 1 282 0
 486 0036 FB79     		ldrb	r3, [r7, #7]	@ zero_extendqisi2
 283:.\Generated_Source\PSoC5/CAN_TX_RX_func.c ****     }
 487              		.loc 1 283 0
 488 0038 1846     		mov	r0, r3
 489 003a 07F10C07 		add	r7, r7, #12
 490 003e BD46     		mov	sp, r7
 491 0040 80BC     		pop	{r7}
 492 0042 7047     		bx	lr
 493              		.cfi_endproc
 494              	.LFE4:
 495              		.size	CAN_SendMsg2, .-CAN_SendMsg2
 496              		.section	.text.CAN_ReceiveMsg,"ax",%progbits
 497              		.align	2
 498              		.global	CAN_ReceiveMsg
 499              		.thumb
 500              		.thumb_func
 501              		.type	CAN_ReceiveMsg, %function
 502              	CAN_ReceiveMsg:
 503              	.LFB5:
 284:.\Generated_Source\PSoC5/CAN_TX_RX_func.c **** #endif /* CAN_TX2_FUNC_ENABLE */
 285:.\Generated_Source\PSoC5/CAN_TX_RX_func.c **** 
 286:.\Generated_Source\PSoC5/CAN_TX_RX_func.c **** 
 287:.\Generated_Source\PSoC5/CAN_TX_RX_func.c **** #if (CAN_TX3_FUNC_ENABLE)
 288:.\Generated_Source\PSoC5/CAN_TX_RX_func.c ****     /*******************************************************************************
ARM GAS  C:\Users\CHAIYA~1\AppData\Local\Temp\ccrE7040.s 			page 15


 289:.\Generated_Source\PSoC5/CAN_TX_RX_func.c ****     * FUNCTION NAME:   CAN_SendMsg3
 290:.\Generated_Source\PSoC5/CAN_TX_RX_func.c ****     ********************************************************************************
 291:.\Generated_Source\PSoC5/CAN_TX_RX_func.c ****     *
 292:.\Generated_Source\PSoC5/CAN_TX_RX_func.c ****     * Summary:
 293:.\Generated_Source\PSoC5/CAN_TX_RX_func.c ****     *  This function is entry point to Transmit Message 3. Function check
 294:.\Generated_Source\PSoC5/CAN_TX_RX_func.c ****     *  if mailbox 3 doesn't already have an un-transmitted messages waiting for
 295:.\Generated_Source\PSoC5/CAN_TX_RX_func.c ****     *  arbitration. If not initiate transmission of the message.
 296:.\Generated_Source\PSoC5/CAN_TX_RX_func.c ****     *  Only generated for Transmit mailbox designed as Full.
 297:.\Generated_Source\PSoC5/CAN_TX_RX_func.c ****     *
 298:.\Generated_Source\PSoC5/CAN_TX_RX_func.c ****     * Parameters:
 299:.\Generated_Source\PSoC5/CAN_TX_RX_func.c ****     *  None.
 300:.\Generated_Source\PSoC5/CAN_TX_RX_func.c ****     *
 301:.\Generated_Source\PSoC5/CAN_TX_RX_func.c ****     * Return:
 302:.\Generated_Source\PSoC5/CAN_TX_RX_func.c ****     *  Indication if Message has been sent.
 303:.\Generated_Source\PSoC5/CAN_TX_RX_func.c ****     *   Define                             Description
 304:.\Generated_Source\PSoC5/CAN_TX_RX_func.c ****     *    CYRET_SUCCESS                      Function passed successfully
 305:.\Generated_Source\PSoC5/CAN_TX_RX_func.c ****     *    CAN_FAIL              Function failed
 306:.\Generated_Source\PSoC5/CAN_TX_RX_func.c ****     *
 307:.\Generated_Source\PSoC5/CAN_TX_RX_func.c ****     *******************************************************************************/
 308:.\Generated_Source\PSoC5/CAN_TX_RX_func.c ****     uint8 CAN_SendMsg3(void) 
 309:.\Generated_Source\PSoC5/CAN_TX_RX_func.c ****     {
 310:.\Generated_Source\PSoC5/CAN_TX_RX_func.c ****         uint8 result = CYRET_SUCCESS;
 311:.\Generated_Source\PSoC5/CAN_TX_RX_func.c ****         
 312:.\Generated_Source\PSoC5/CAN_TX_RX_func.c ****         if ((CAN_TX[3u].txcmd.byte[0u] & CAN_TX_REQUEST_PENDING) ==
 313:.\Generated_Source\PSoC5/CAN_TX_RX_func.c ****             CAN_TX_REQUEST_PENDING)
 314:.\Generated_Source\PSoC5/CAN_TX_RX_func.c ****         {
 315:.\Generated_Source\PSoC5/CAN_TX_RX_func.c ****             result = CAN_FAIL;
 316:.\Generated_Source\PSoC5/CAN_TX_RX_func.c ****         }
 317:.\Generated_Source\PSoC5/CAN_TX_RX_func.c ****         else
 318:.\Generated_Source\PSoC5/CAN_TX_RX_func.c ****         {
 319:.\Generated_Source\PSoC5/CAN_TX_RX_func.c ****             /* `#START MESSAGE_3_TRASMITTED` */
 320:.\Generated_Source\PSoC5/CAN_TX_RX_func.c **** 
 321:.\Generated_Source\PSoC5/CAN_TX_RX_func.c ****             /* `#END` */
 322:.\Generated_Source\PSoC5/CAN_TX_RX_func.c ****             
 323:.\Generated_Source\PSoC5/CAN_TX_RX_func.c ****             CY_SET_REG32((reg32 *) & CAN_TX[3u].txcmd, CAN_SEND_MESSAGE);
 324:.\Generated_Source\PSoC5/CAN_TX_RX_func.c ****         }
 325:.\Generated_Source\PSoC5/CAN_TX_RX_func.c ****     
 326:.\Generated_Source\PSoC5/CAN_TX_RX_func.c ****         return (result);
 327:.\Generated_Source\PSoC5/CAN_TX_RX_func.c ****     }    
 328:.\Generated_Source\PSoC5/CAN_TX_RX_func.c **** #endif /* CAN_TX3_FUNC_ENABLE */
 329:.\Generated_Source\PSoC5/CAN_TX_RX_func.c **** 
 330:.\Generated_Source\PSoC5/CAN_TX_RX_func.c **** 
 331:.\Generated_Source\PSoC5/CAN_TX_RX_func.c **** #if (CAN_TX4_FUNC_ENABLE)
 332:.\Generated_Source\PSoC5/CAN_TX_RX_func.c ****     /*******************************************************************************
 333:.\Generated_Source\PSoC5/CAN_TX_RX_func.c ****     * FUNCTION NAME:   CAN_SendMsg4
 334:.\Generated_Source\PSoC5/CAN_TX_RX_func.c ****     ********************************************************************************
 335:.\Generated_Source\PSoC5/CAN_TX_RX_func.c ****     *
 336:.\Generated_Source\PSoC5/CAN_TX_RX_func.c ****     * Summary:
 337:.\Generated_Source\PSoC5/CAN_TX_RX_func.c ****     *  This function is entry point to Transmit Message 4. Function check if mailbox
 338:.\Generated_Source\PSoC5/CAN_TX_RX_func.c ****     *  4 doesn't already have an un-transmitted messages waiting for arbitration. 
 339:.\Generated_Source\PSoC5/CAN_TX_RX_func.c ****     *  If not initiate transmission of the message. Only generated for Transmit 
 340:.\Generated_Source\PSoC5/CAN_TX_RX_func.c ****     *  mailbox designed as Full.
 341:.\Generated_Source\PSoC5/CAN_TX_RX_func.c ****     *
 342:.\Generated_Source\PSoC5/CAN_TX_RX_func.c ****     * Parameters:
 343:.\Generated_Source\PSoC5/CAN_TX_RX_func.c ****     *  None.
 344:.\Generated_Source\PSoC5/CAN_TX_RX_func.c ****     *
 345:.\Generated_Source\PSoC5/CAN_TX_RX_func.c ****     * Return:
ARM GAS  C:\Users\CHAIYA~1\AppData\Local\Temp\ccrE7040.s 			page 16


 346:.\Generated_Source\PSoC5/CAN_TX_RX_func.c ****     *  Indication if Message has been sent.
 347:.\Generated_Source\PSoC5/CAN_TX_RX_func.c ****     *   Define                             Description
 348:.\Generated_Source\PSoC5/CAN_TX_RX_func.c ****     *    CYRET_SUCCESS                      Function passed successfully
 349:.\Generated_Source\PSoC5/CAN_TX_RX_func.c ****     *    CAN_FAIL              Function failed
 350:.\Generated_Source\PSoC5/CAN_TX_RX_func.c ****     *
 351:.\Generated_Source\PSoC5/CAN_TX_RX_func.c ****     *******************************************************************************/
 352:.\Generated_Source\PSoC5/CAN_TX_RX_func.c ****     uint8 CAN_SendMsg4(void) 
 353:.\Generated_Source\PSoC5/CAN_TX_RX_func.c ****     {
 354:.\Generated_Source\PSoC5/CAN_TX_RX_func.c ****         uint8 result = CYRET_SUCCESS;
 355:.\Generated_Source\PSoC5/CAN_TX_RX_func.c ****         
 356:.\Generated_Source\PSoC5/CAN_TX_RX_func.c ****         if ((CAN_TX[4u].txcmd.byte[0u] & CAN_TX_REQUEST_PENDING) ==
 357:.\Generated_Source\PSoC5/CAN_TX_RX_func.c ****             CAN_TX_REQUEST_PENDING)
 358:.\Generated_Source\PSoC5/CAN_TX_RX_func.c ****         {
 359:.\Generated_Source\PSoC5/CAN_TX_RX_func.c ****             result = CAN_FAIL;
 360:.\Generated_Source\PSoC5/CAN_TX_RX_func.c ****         }
 361:.\Generated_Source\PSoC5/CAN_TX_RX_func.c ****         else
 362:.\Generated_Source\PSoC5/CAN_TX_RX_func.c ****         {
 363:.\Generated_Source\PSoC5/CAN_TX_RX_func.c ****             /* `#START MESSAGE_4_TRASMITTED` */
 364:.\Generated_Source\PSoC5/CAN_TX_RX_func.c **** 
 365:.\Generated_Source\PSoC5/CAN_TX_RX_func.c ****             /* `#END` */
 366:.\Generated_Source\PSoC5/CAN_TX_RX_func.c ****             
 367:.\Generated_Source\PSoC5/CAN_TX_RX_func.c ****             CY_SET_REG32((reg32 *) & CAN_TX[4u].txcmd, CAN_SEND_MESSAGE);
 368:.\Generated_Source\PSoC5/CAN_TX_RX_func.c ****         }
 369:.\Generated_Source\PSoC5/CAN_TX_RX_func.c ****     
 370:.\Generated_Source\PSoC5/CAN_TX_RX_func.c ****         return (result);
 371:.\Generated_Source\PSoC5/CAN_TX_RX_func.c ****     }    
 372:.\Generated_Source\PSoC5/CAN_TX_RX_func.c **** #endif /* CAN_TX4_FUNC_ENABLE */
 373:.\Generated_Source\PSoC5/CAN_TX_RX_func.c **** 
 374:.\Generated_Source\PSoC5/CAN_TX_RX_func.c **** 
 375:.\Generated_Source\PSoC5/CAN_TX_RX_func.c **** #if (CAN_TX5_FUNC_ENABLE)
 376:.\Generated_Source\PSoC5/CAN_TX_RX_func.c ****     /*******************************************************************************
 377:.\Generated_Source\PSoC5/CAN_TX_RX_func.c ****     * FUNCTION NAME:   CAN_SendMsg5
 378:.\Generated_Source\PSoC5/CAN_TX_RX_func.c ****     ********************************************************************************
 379:.\Generated_Source\PSoC5/CAN_TX_RX_func.c ****     *
 380:.\Generated_Source\PSoC5/CAN_TX_RX_func.c ****     * Summary:
 381:.\Generated_Source\PSoC5/CAN_TX_RX_func.c ****     *  This function is entry point to Transmit Message 5. Function check
 382:.\Generated_Source\PSoC5/CAN_TX_RX_func.c ****     *  if mailbox 5 doesn't already have an un-transmitted messages waiting for
 383:.\Generated_Source\PSoC5/CAN_TX_RX_func.c ****     *  arbitration. If not initiate transmission of the message. Only generated for
 384:.\Generated_Source\PSoC5/CAN_TX_RX_func.c ****     *  Transmit mailbox designed as Full.
 385:.\Generated_Source\PSoC5/CAN_TX_RX_func.c ****     *
 386:.\Generated_Source\PSoC5/CAN_TX_RX_func.c ****     * Parameters:
 387:.\Generated_Source\PSoC5/CAN_TX_RX_func.c ****     *  None.
 388:.\Generated_Source\PSoC5/CAN_TX_RX_func.c ****     *
 389:.\Generated_Source\PSoC5/CAN_TX_RX_func.c ****     * Return:
 390:.\Generated_Source\PSoC5/CAN_TX_RX_func.c ****     *  Indication if Message has been sent.
 391:.\Generated_Source\PSoC5/CAN_TX_RX_func.c ****     *   Define                             Description
 392:.\Generated_Source\PSoC5/CAN_TX_RX_func.c ****     *    CYRET_SUCCESS                      Function passed successfully
 393:.\Generated_Source\PSoC5/CAN_TX_RX_func.c ****     *    CAN_FAIL              Function failed
 394:.\Generated_Source\PSoC5/CAN_TX_RX_func.c ****     *
 395:.\Generated_Source\PSoC5/CAN_TX_RX_func.c ****     *******************************************************************************/
 396:.\Generated_Source\PSoC5/CAN_TX_RX_func.c ****     uint8 CAN_SendMsg5(void) 
 397:.\Generated_Source\PSoC5/CAN_TX_RX_func.c ****     {
 398:.\Generated_Source\PSoC5/CAN_TX_RX_func.c ****         uint8 result = CYRET_SUCCESS;
 399:.\Generated_Source\PSoC5/CAN_TX_RX_func.c ****         
 400:.\Generated_Source\PSoC5/CAN_TX_RX_func.c ****         if ((CAN_TX[5u].txcmd.byte[0u] & CAN_TX_REQUEST_PENDING) ==
 401:.\Generated_Source\PSoC5/CAN_TX_RX_func.c ****             CAN_TX_REQUEST_PENDING)
 402:.\Generated_Source\PSoC5/CAN_TX_RX_func.c ****         {
ARM GAS  C:\Users\CHAIYA~1\AppData\Local\Temp\ccrE7040.s 			page 17


 403:.\Generated_Source\PSoC5/CAN_TX_RX_func.c ****             result = CAN_FAIL;
 404:.\Generated_Source\PSoC5/CAN_TX_RX_func.c ****         }
 405:.\Generated_Source\PSoC5/CAN_TX_RX_func.c ****         else
 406:.\Generated_Source\PSoC5/CAN_TX_RX_func.c ****         {
 407:.\Generated_Source\PSoC5/CAN_TX_RX_func.c ****             /* `#START MESSAGE_5_TRASMITTED` */
 408:.\Generated_Source\PSoC5/CAN_TX_RX_func.c **** 
 409:.\Generated_Source\PSoC5/CAN_TX_RX_func.c ****             /* `#END` */
 410:.\Generated_Source\PSoC5/CAN_TX_RX_func.c ****             
 411:.\Generated_Source\PSoC5/CAN_TX_RX_func.c ****             CY_SET_REG32((reg32 *) & CAN_TX[5u].txcmd, CAN_SEND_MESSAGE);
 412:.\Generated_Source\PSoC5/CAN_TX_RX_func.c ****         }
 413:.\Generated_Source\PSoC5/CAN_TX_RX_func.c ****     
 414:.\Generated_Source\PSoC5/CAN_TX_RX_func.c ****         return (result);
 415:.\Generated_Source\PSoC5/CAN_TX_RX_func.c ****     }    
 416:.\Generated_Source\PSoC5/CAN_TX_RX_func.c **** #endif /* CAN_TX5_FUNC_ENABLE */
 417:.\Generated_Source\PSoC5/CAN_TX_RX_func.c **** 
 418:.\Generated_Source\PSoC5/CAN_TX_RX_func.c **** 
 419:.\Generated_Source\PSoC5/CAN_TX_RX_func.c **** #if (CAN_TX6_FUNC_ENABLE)
 420:.\Generated_Source\PSoC5/CAN_TX_RX_func.c ****     /*******************************************************************************
 421:.\Generated_Source\PSoC5/CAN_TX_RX_func.c ****     * FUNCTION NAME:   CAN_SendMsg6
 422:.\Generated_Source\PSoC5/CAN_TX_RX_func.c ****     ********************************************************************************
 423:.\Generated_Source\PSoC5/CAN_TX_RX_func.c ****     *
 424:.\Generated_Source\PSoC5/CAN_TX_RX_func.c ****     * Summary:
 425:.\Generated_Source\PSoC5/CAN_TX_RX_func.c ****     *  This function is entry point to Transmit Message 6. Function check
 426:.\Generated_Source\PSoC5/CAN_TX_RX_func.c ****     *  if mailbox 6 doesn't already have an un-transmitted messages waiting for
 427:.\Generated_Source\PSoC5/CAN_TX_RX_func.c ****     *  arbitration. If not initiate transmission of the message. Only generated for
 428:.\Generated_Source\PSoC5/CAN_TX_RX_func.c ****     *  Transmit mailbox designed as Full.
 429:.\Generated_Source\PSoC5/CAN_TX_RX_func.c ****     *
 430:.\Generated_Source\PSoC5/CAN_TX_RX_func.c ****     * Parameters:
 431:.\Generated_Source\PSoC5/CAN_TX_RX_func.c ****     *  None.
 432:.\Generated_Source\PSoC5/CAN_TX_RX_func.c ****     *
 433:.\Generated_Source\PSoC5/CAN_TX_RX_func.c ****     * Return:
 434:.\Generated_Source\PSoC5/CAN_TX_RX_func.c ****     *  Indication if Message has been sent.
 435:.\Generated_Source\PSoC5/CAN_TX_RX_func.c ****     *   Define                             Description
 436:.\Generated_Source\PSoC5/CAN_TX_RX_func.c ****     *    CYRET_SUCCESS                      Function passed successfully
 437:.\Generated_Source\PSoC5/CAN_TX_RX_func.c ****     *    CAN_FAIL              Function failed
 438:.\Generated_Source\PSoC5/CAN_TX_RX_func.c ****     *
 439:.\Generated_Source\PSoC5/CAN_TX_RX_func.c ****     *******************************************************************************/
 440:.\Generated_Source\PSoC5/CAN_TX_RX_func.c ****     uint8 CAN_SendMsg6(void) 
 441:.\Generated_Source\PSoC5/CAN_TX_RX_func.c ****     {
 442:.\Generated_Source\PSoC5/CAN_TX_RX_func.c ****         uint8 result = CYRET_SUCCESS;
 443:.\Generated_Source\PSoC5/CAN_TX_RX_func.c ****         
 444:.\Generated_Source\PSoC5/CAN_TX_RX_func.c ****         if ((CAN_TX[6u].txcmd.byte[0u] & CAN_TX_REQUEST_PENDING) ==
 445:.\Generated_Source\PSoC5/CAN_TX_RX_func.c ****             CAN_TX_REQUEST_PENDING)
 446:.\Generated_Source\PSoC5/CAN_TX_RX_func.c ****         {
 447:.\Generated_Source\PSoC5/CAN_TX_RX_func.c ****             result = CAN_FAIL;
 448:.\Generated_Source\PSoC5/CAN_TX_RX_func.c ****         }
 449:.\Generated_Source\PSoC5/CAN_TX_RX_func.c ****         else
 450:.\Generated_Source\PSoC5/CAN_TX_RX_func.c ****         {
 451:.\Generated_Source\PSoC5/CAN_TX_RX_func.c ****             /* `#START MESSAGE_6_TRASMITTED` */
 452:.\Generated_Source\PSoC5/CAN_TX_RX_func.c **** 
 453:.\Generated_Source\PSoC5/CAN_TX_RX_func.c ****             /* `#END` */
 454:.\Generated_Source\PSoC5/CAN_TX_RX_func.c ****             
 455:.\Generated_Source\PSoC5/CAN_TX_RX_func.c ****             CY_SET_REG32((reg32 *) & CAN_TX[6u].txcmd, CAN_SEND_MESSAGE);
 456:.\Generated_Source\PSoC5/CAN_TX_RX_func.c ****         }
 457:.\Generated_Source\PSoC5/CAN_TX_RX_func.c ****     
 458:.\Generated_Source\PSoC5/CAN_TX_RX_func.c ****         return (result);
 459:.\Generated_Source\PSoC5/CAN_TX_RX_func.c ****     }    
ARM GAS  C:\Users\CHAIYA~1\AppData\Local\Temp\ccrE7040.s 			page 18


 460:.\Generated_Source\PSoC5/CAN_TX_RX_func.c **** #endif /* CAN_TX6_FUNC_ENABLE */
 461:.\Generated_Source\PSoC5/CAN_TX_RX_func.c **** 
 462:.\Generated_Source\PSoC5/CAN_TX_RX_func.c **** 
 463:.\Generated_Source\PSoC5/CAN_TX_RX_func.c **** #if (CAN_TX7_FUNC_ENABLE)
 464:.\Generated_Source\PSoC5/CAN_TX_RX_func.c ****     /*******************************************************************************
 465:.\Generated_Source\PSoC5/CAN_TX_RX_func.c ****     * FUNCTION NAME:   CAN_SendMsg7)
 466:.\Generated_Source\PSoC5/CAN_TX_RX_func.c ****     ********************************************************************************
 467:.\Generated_Source\PSoC5/CAN_TX_RX_func.c ****     *
 468:.\Generated_Source\PSoC5/CAN_TX_RX_func.c ****     * Summary:
 469:.\Generated_Source\PSoC5/CAN_TX_RX_func.c ****     *  This function is entry point to Transmit Message 7. Function check
 470:.\Generated_Source\PSoC5/CAN_TX_RX_func.c ****     *  if mailbox 7 doesn't already have an un-transmitted messages waiting for
 471:.\Generated_Source\PSoC5/CAN_TX_RX_func.c ****     *  arbitration. If not initiate transmission of the message. Only generated for
 472:.\Generated_Source\PSoC5/CAN_TX_RX_func.c ****     *  Transmit mailbox designed as Full.
 473:.\Generated_Source\PSoC5/CAN_TX_RX_func.c ****     *
 474:.\Generated_Source\PSoC5/CAN_TX_RX_func.c ****     * Parameters:
 475:.\Generated_Source\PSoC5/CAN_TX_RX_func.c ****     *  None.
 476:.\Generated_Source\PSoC5/CAN_TX_RX_func.c ****     *
 477:.\Generated_Source\PSoC5/CAN_TX_RX_func.c ****     * Return:
 478:.\Generated_Source\PSoC5/CAN_TX_RX_func.c ****     *  Indication if Message has been sent.
 479:.\Generated_Source\PSoC5/CAN_TX_RX_func.c ****     *   Define                             Description
 480:.\Generated_Source\PSoC5/CAN_TX_RX_func.c ****     *    CYRET_SUCCESS                      Function passed successfully
 481:.\Generated_Source\PSoC5/CAN_TX_RX_func.c ****     *    CAN_FAIL              Function failed
 482:.\Generated_Source\PSoC5/CAN_TX_RX_func.c ****     *
 483:.\Generated_Source\PSoC5/CAN_TX_RX_func.c ****     *******************************************************************************/
 484:.\Generated_Source\PSoC5/CAN_TX_RX_func.c ****     uint8 CAN_SendMsg7(void) 
 485:.\Generated_Source\PSoC5/CAN_TX_RX_func.c ****     {
 486:.\Generated_Source\PSoC5/CAN_TX_RX_func.c ****         uint8 result = CYRET_SUCCESS;
 487:.\Generated_Source\PSoC5/CAN_TX_RX_func.c ****         
 488:.\Generated_Source\PSoC5/CAN_TX_RX_func.c ****         if ((CAN_TX[7u].txcmd.byte[0u] & CAN_TX_REQUEST_PENDING) ==
 489:.\Generated_Source\PSoC5/CAN_TX_RX_func.c ****             CAN_TX_REQUEST_PENDING)
 490:.\Generated_Source\PSoC5/CAN_TX_RX_func.c ****         {
 491:.\Generated_Source\PSoC5/CAN_TX_RX_func.c ****             result = CAN_FAIL;
 492:.\Generated_Source\PSoC5/CAN_TX_RX_func.c ****         }
 493:.\Generated_Source\PSoC5/CAN_TX_RX_func.c ****         else
 494:.\Generated_Source\PSoC5/CAN_TX_RX_func.c ****         {
 495:.\Generated_Source\PSoC5/CAN_TX_RX_func.c ****             /* `#START MESSAGE_7_TRASMITTED` */
 496:.\Generated_Source\PSoC5/CAN_TX_RX_func.c **** 
 497:.\Generated_Source\PSoC5/CAN_TX_RX_func.c ****             /* `#END` */
 498:.\Generated_Source\PSoC5/CAN_TX_RX_func.c ****             
 499:.\Generated_Source\PSoC5/CAN_TX_RX_func.c ****             CY_SET_REG32((reg32 *) & CAN_TX[7u].txcmd, CAN_SEND_MESSAGE);
 500:.\Generated_Source\PSoC5/CAN_TX_RX_func.c ****         }
 501:.\Generated_Source\PSoC5/CAN_TX_RX_func.c ****     
 502:.\Generated_Source\PSoC5/CAN_TX_RX_func.c ****         return (result);
 503:.\Generated_Source\PSoC5/CAN_TX_RX_func.c ****     }    
 504:.\Generated_Source\PSoC5/CAN_TX_RX_func.c **** #endif /* CAN_TX7_FUNC_ENABLE */
 505:.\Generated_Source\PSoC5/CAN_TX_RX_func.c **** 
 506:.\Generated_Source\PSoC5/CAN_TX_RX_func.c **** 
 507:.\Generated_Source\PSoC5/CAN_TX_RX_func.c **** /*******************************************************************************
 508:.\Generated_Source\PSoC5/CAN_TX_RX_func.c **** * FUNCTION NAME:   CAN_ReceiveMsg
 509:.\Generated_Source\PSoC5/CAN_TX_RX_func.c **** ********************************************************************************
 510:.\Generated_Source\PSoC5/CAN_TX_RX_func.c **** *
 511:.\Generated_Source\PSoC5/CAN_TX_RX_func.c **** * Summary:
 512:.\Generated_Source\PSoC5/CAN_TX_RX_func.c **** *  This function is entry point to Receive Message Interrupt for Basic 
 513:.\Generated_Source\PSoC5/CAN_TX_RX_func.c **** *  mailboxes. Clears Receive particular Message interrupt flag. Only generated 
 514:.\Generated_Source\PSoC5/CAN_TX_RX_func.c **** *  if one of Receive mailboxes designed as Basic.
 515:.\Generated_Source\PSoC5/CAN_TX_RX_func.c **** *
 516:.\Generated_Source\PSoC5/CAN_TX_RX_func.c **** * Parameters:
ARM GAS  C:\Users\CHAIYA~1\AppData\Local\Temp\ccrE7040.s 			page 19


 517:.\Generated_Source\PSoC5/CAN_TX_RX_func.c **** *  rxMailbox: Mailbox number that trig Receive Message Interrupt.
 518:.\Generated_Source\PSoC5/CAN_TX_RX_func.c **** *
 519:.\Generated_Source\PSoC5/CAN_TX_RX_func.c **** * Return:
 520:.\Generated_Source\PSoC5/CAN_TX_RX_func.c **** *  None.
 521:.\Generated_Source\PSoC5/CAN_TX_RX_func.c **** *
 522:.\Generated_Source\PSoC5/CAN_TX_RX_func.c **** * Reentrant:
 523:.\Generated_Source\PSoC5/CAN_TX_RX_func.c **** *  Depends on Customer code.
 524:.\Generated_Source\PSoC5/CAN_TX_RX_func.c **** *
 525:.\Generated_Source\PSoC5/CAN_TX_RX_func.c **** *******************************************************************************/
 526:.\Generated_Source\PSoC5/CAN_TX_RX_func.c **** void CAN_ReceiveMsg(uint8 rxMailbox) 
 527:.\Generated_Source\PSoC5/CAN_TX_RX_func.c **** {
 504              		.loc 1 527 0
 505              		.cfi_startproc
 506              		@ args = 0, pretend = 0, frame = 8
 507              		@ frame_needed = 1, uses_anonymous_args = 0
 508              		@ link register save eliminated.
 509 0000 80B4     		push	{r7}
 510              	.LCFI15:
 511              		.cfi_def_cfa_offset 4
 512              		.cfi_offset 7, -4
 513 0002 83B0     		sub	sp, sp, #12
 514              	.LCFI16:
 515              		.cfi_def_cfa_offset 16
 516 0004 00AF     		add	r7, sp, #0
 517              	.LCFI17:
 518              		.cfi_def_cfa_register 7
 519 0006 0346     		mov	r3, r0
 520 0008 FB71     		strb	r3, [r7, #7]
 528:.\Generated_Source\PSoC5/CAN_TX_RX_func.c ****     if ((CAN_RX[rxMailbox].rxcmd.byte[0u] & CAN_RX_ACK_MSG) == CAN_RX_ACK_MSG)
 521              		.loc 1 528 0
 522 000a FB79     		ldrb	r3, [r7, #7]	@ zero_extendqisi2
 523 000c 4FEA4312 		lsl	r2, r3, #5
 524 0010 4AF2A003 		movw	r3, #41120
 525 0014 C4F20003 		movt	r3, 16384
 526 0018 D318     		adds	r3, r2, r3
 527 001a 1B78     		ldrb	r3, [r3, #0]
 528 001c DBB2     		uxtb	r3, r3
 529 001e 03F00103 		and	r3, r3, #1
 530 0022 002B     		cmp	r3, #0
 531 0024 15D0     		beq	.L38
 529:.\Generated_Source\PSoC5/CAN_TX_RX_func.c ****     {
 530:.\Generated_Source\PSoC5/CAN_TX_RX_func.c ****         /* `#START MESSAGE_BASIC_RECEIVED` */
 531:.\Generated_Source\PSoC5/CAN_TX_RX_func.c **** 
 532:.\Generated_Source\PSoC5/CAN_TX_RX_func.c ****         /* `#END` */
 533:.\Generated_Source\PSoC5/CAN_TX_RX_func.c ****         
 534:.\Generated_Source\PSoC5/CAN_TX_RX_func.c ****         CAN_RX[rxMailbox].rxcmd.byte[0u] |= CAN_RX_ACK_MSG;
 532              		.loc 1 534 0
 533 0026 FB79     		ldrb	r3, [r7, #7]	@ zero_extendqisi2
 534 0028 4FEA4312 		lsl	r2, r3, #5
 535 002c 4AF2A003 		movw	r3, #41120
 536 0030 C4F20003 		movt	r3, 16384
 537 0034 D318     		adds	r3, r2, r3
 538 0036 FA79     		ldrb	r2, [r7, #7]	@ zero_extendqisi2
 539 0038 4FEA4211 		lsl	r1, r2, #5
 540 003c 4AF2A002 		movw	r2, #41120
 541 0040 C4F20002 		movt	r2, 16384
 542 0044 8A18     		adds	r2, r1, r2
ARM GAS  C:\Users\CHAIYA~1\AppData\Local\Temp\ccrE7040.s 			page 20


 543 0046 1278     		ldrb	r2, [r2, #0]
 544 0048 D2B2     		uxtb	r2, r2
 545 004a 42F00102 		orr	r2, r2, #1
 546 004e D2B2     		uxtb	r2, r2
 547 0050 1A70     		strb	r2, [r3, #0]
 548              	.L38:
 535:.\Generated_Source\PSoC5/CAN_TX_RX_func.c ****     }
 536:.\Generated_Source\PSoC5/CAN_TX_RX_func.c **** }
 549              		.loc 1 536 0
 550 0052 07F10C07 		add	r7, r7, #12
 551 0056 BD46     		mov	sp, r7
 552 0058 80BC     		pop	{r7}
 553 005a 7047     		bx	lr
 554              		.cfi_endproc
 555              	.LFE5:
 556              		.size	CAN_ReceiveMsg, .-CAN_ReceiveMsg
 557              		.section	.text.CAN_ReceiveMsg0,"ax",%progbits
 558              		.align	2
 559              		.global	CAN_ReceiveMsg0
 560              		.thumb
 561              		.thumb_func
 562              		.type	CAN_ReceiveMsg0, %function
 563              	CAN_ReceiveMsg0:
 564              	.LFB6:
 537:.\Generated_Source\PSoC5/CAN_TX_RX_func.c **** 
 538:.\Generated_Source\PSoC5/CAN_TX_RX_func.c **** 
 539:.\Generated_Source\PSoC5/CAN_TX_RX_func.c **** #if (CAN_RX0_FUNC_ENABLE)
 540:.\Generated_Source\PSoC5/CAN_TX_RX_func.c ****     /*******************************************************************************
 541:.\Generated_Source\PSoC5/CAN_TX_RX_func.c ****     * FUNCTION NAME:   CAN_ReceiveMsg0
 542:.\Generated_Source\PSoC5/CAN_TX_RX_func.c ****     ********************************************************************************
 543:.\Generated_Source\PSoC5/CAN_TX_RX_func.c ****     *
 544:.\Generated_Source\PSoC5/CAN_TX_RX_func.c ****     * Summary:
 545:.\Generated_Source\PSoC5/CAN_TX_RX_func.c ****     *  This function is entry point to Receive Message 0 Interrupt. Clears Receive
 546:.\Generated_Source\PSoC5/CAN_TX_RX_func.c ****     *  Message 0 interrupt flag. Only generated for Receive mailbox designed as 
 547:.\Generated_Source\PSoC5/CAN_TX_RX_func.c ****     *  Full.
 548:.\Generated_Source\PSoC5/CAN_TX_RX_func.c ****     *
 549:.\Generated_Source\PSoC5/CAN_TX_RX_func.c ****     * Parameters:
 550:.\Generated_Source\PSoC5/CAN_TX_RX_func.c ****     *  None.
 551:.\Generated_Source\PSoC5/CAN_TX_RX_func.c ****     *
 552:.\Generated_Source\PSoC5/CAN_TX_RX_func.c ****     * Return:
 553:.\Generated_Source\PSoC5/CAN_TX_RX_func.c ****     *  None.
 554:.\Generated_Source\PSoC5/CAN_TX_RX_func.c ****     *
 555:.\Generated_Source\PSoC5/CAN_TX_RX_func.c ****     * Reentrant:
 556:.\Generated_Source\PSoC5/CAN_TX_RX_func.c ****     *  Depends on Customer code.
 557:.\Generated_Source\PSoC5/CAN_TX_RX_func.c ****     *
 558:.\Generated_Source\PSoC5/CAN_TX_RX_func.c ****     *******************************************************************************/
 559:.\Generated_Source\PSoC5/CAN_TX_RX_func.c ****     void CAN_ReceiveMsg0(void) 
 560:.\Generated_Source\PSoC5/CAN_TX_RX_func.c ****     {
 565              		.loc 1 560 0
 566              		.cfi_startproc
 567              		@ args = 0, pretend = 0, frame = 0
 568              		@ frame_needed = 1, uses_anonymous_args = 0
 569              		@ link register save eliminated.
 570 0000 80B4     		push	{r7}
 571              	.LCFI18:
 572              		.cfi_def_cfa_offset 4
 573              		.cfi_offset 7, -4
ARM GAS  C:\Users\CHAIYA~1\AppData\Local\Temp\ccrE7040.s 			page 21


 574 0002 00AF     		add	r7, sp, #0
 575              	.LCFI19:
 576              		.cfi_def_cfa_register 7
 561:.\Generated_Source\PSoC5/CAN_TX_RX_func.c ****         /* `#START MESSAGE_0_RECEIVED` */
 562:.\Generated_Source\PSoC5/CAN_TX_RX_func.c **** 
 563:.\Generated_Source\PSoC5/CAN_TX_RX_func.c ****         /* `#END` */
 564:.\Generated_Source\PSoC5/CAN_TX_RX_func.c ****     
 565:.\Generated_Source\PSoC5/CAN_TX_RX_func.c ****         CAN_RX[0u].rxcmd.byte[0u] |= CAN_RX_ACK_MSG;
 577              		.loc 1 565 0
 578 0004 4AF2A003 		movw	r3, #41120
 579 0008 C4F20003 		movt	r3, 16384
 580 000c 4AF2A002 		movw	r2, #41120
 581 0010 C4F20002 		movt	r2, 16384
 582 0014 1278     		ldrb	r2, [r2, #0]
 583 0016 D2B2     		uxtb	r2, r2
 584 0018 42F00102 		orr	r2, r2, #1
 585 001c D2B2     		uxtb	r2, r2
 586 001e 1A70     		strb	r2, [r3, #0]
 566:.\Generated_Source\PSoC5/CAN_TX_RX_func.c **** 
 567:.\Generated_Source\PSoC5/CAN_TX_RX_func.c ****     }
 587              		.loc 1 567 0
 588 0020 BD46     		mov	sp, r7
 589 0022 80BC     		pop	{r7}
 590 0024 7047     		bx	lr
 591              		.cfi_endproc
 592              	.LFE6:
 593              		.size	CAN_ReceiveMsg0, .-CAN_ReceiveMsg0
 594 0026 00BF     		.text
 595              	.Letext0:
 596              		.file 2 ".\\Generated_Source\\PSoC5\\cytypes.h"
 597              		.file 3 ".\\Generated_Source\\PSoC5\\CAN.h"