ARM GAS  C:\Users\CHAIYA~1\AppData\Local\Temp\ccqfhVqa.s 			page 1


   1              		.syntax unified
   2              		.cpu cortex-m3
   3              		.fpu softvfp
   4              		.eabi_attribute 20, 1
   5              		.eabi_attribute 21, 1
   6              		.eabi_attribute 23, 3
   7              		.eabi_attribute 24, 1
   8              		.eabi_attribute 25, 1
   9              		.eabi_attribute 26, 1
  10              		.eabi_attribute 30, 6
  11              		.eabi_attribute 34, 1
  12              		.eabi_attribute 18, 4
  13              		.thumb
  14              		.file	"isr_filter.c"
  15              		.text
  16              	.Ltext0:
  17              		.cfi_sections	.debug_frame
  18              		.global	toggle_flag2
  19              		.bss
  20              		.type	toggle_flag2, %object
  21              		.size	toggle_flag2, 1
  22              	toggle_flag2:
  23 0000 00       		.space	1
  24              		.section	.text.isr_filter_Start,"ax",%progbits
  25              		.align	2
  26              		.global	isr_filter_Start
  27              		.thumb
  28              		.thumb_func
  29              		.type	isr_filter_Start, %function
  30              	isr_filter_Start:
  31              	.LFB0:
  32              		.file 1 ".\\Generated_Source\\PSoC5\\isr_filter.c"
   1:.\Generated_Source\PSoC5/isr_filter.c **** /*******************************************************************************
   2:.\Generated_Source\PSoC5/isr_filter.c **** * File Name: isr_filter.c  
   3:.\Generated_Source\PSoC5/isr_filter.c **** * Version 1.70
   4:.\Generated_Source\PSoC5/isr_filter.c **** *
   5:.\Generated_Source\PSoC5/isr_filter.c **** *  Description:
   6:.\Generated_Source\PSoC5/isr_filter.c **** *   API for controlling the state of an interrupt.
   7:.\Generated_Source\PSoC5/isr_filter.c **** *
   8:.\Generated_Source\PSoC5/isr_filter.c **** *
   9:.\Generated_Source\PSoC5/isr_filter.c **** *  Note:
  10:.\Generated_Source\PSoC5/isr_filter.c **** *
  11:.\Generated_Source\PSoC5/isr_filter.c **** ********************************************************************************
  12:.\Generated_Source\PSoC5/isr_filter.c **** * Copyright 2008-2012, Cypress Semiconductor Corporation.  All rights reserved.
  13:.\Generated_Source\PSoC5/isr_filter.c **** * You may use this file only in accordance with the license, terms, conditions, 
  14:.\Generated_Source\PSoC5/isr_filter.c **** * disclaimers, and limitations in the end user license agreement accompanying 
  15:.\Generated_Source\PSoC5/isr_filter.c **** * the software package with which this file was provided.
  16:.\Generated_Source\PSoC5/isr_filter.c **** *******************************************************************************/
  17:.\Generated_Source\PSoC5/isr_filter.c **** 
  18:.\Generated_Source\PSoC5/isr_filter.c **** 
  19:.\Generated_Source\PSoC5/isr_filter.c **** #include <cydevice_trm.h>
  20:.\Generated_Source\PSoC5/isr_filter.c **** #include <CyLib.h>
  21:.\Generated_Source\PSoC5/isr_filter.c **** #include <isr_filter.h>
  22:.\Generated_Source\PSoC5/isr_filter.c **** 
  23:.\Generated_Source\PSoC5/isr_filter.c **** #if !defined(isr_filter__REMOVED) /* Check for removal by optimization */
  24:.\Generated_Source\PSoC5/isr_filter.c **** 
  25:.\Generated_Source\PSoC5/isr_filter.c **** /*******************************************************************************
ARM GAS  C:\Users\CHAIYA~1\AppData\Local\Temp\ccqfhVqa.s 			page 2


  26:.\Generated_Source\PSoC5/isr_filter.c **** *  Place your includes, defines and code here 
  27:.\Generated_Source\PSoC5/isr_filter.c **** ********************************************************************************/
  28:.\Generated_Source\PSoC5/isr_filter.c **** /* `#START isr_filter_intc` */
  29:.\Generated_Source\PSoC5/isr_filter.c **** #include <Filter.h>
  30:.\Generated_Source\PSoC5/isr_filter.c **** volatile uint8 toggle_flag2 = 0;
  31:.\Generated_Source\PSoC5/isr_filter.c **** /* `#END` */
  32:.\Generated_Source\PSoC5/isr_filter.c **** 
  33:.\Generated_Source\PSoC5/isr_filter.c **** #ifndef CYINT_IRQ_BASE
  34:.\Generated_Source\PSoC5/isr_filter.c **** #define CYINT_IRQ_BASE      16
  35:.\Generated_Source\PSoC5/isr_filter.c **** #endif /* CYINT_IRQ_BASE */
  36:.\Generated_Source\PSoC5/isr_filter.c **** #ifndef CYINT_VECT_TABLE
  37:.\Generated_Source\PSoC5/isr_filter.c **** #define CYINT_VECT_TABLE    ((cyisraddress **) CYREG_NVIC_VECT_OFFSET)
  38:.\Generated_Source\PSoC5/isr_filter.c **** #endif /* CYINT_VECT_TABLE */
  39:.\Generated_Source\PSoC5/isr_filter.c **** 
  40:.\Generated_Source\PSoC5/isr_filter.c **** /* Declared in startup, used to set unused interrupts to. */
  41:.\Generated_Source\PSoC5/isr_filter.c **** CY_ISR_PROTO(IntDefaultHandler);
  42:.\Generated_Source\PSoC5/isr_filter.c **** 
  43:.\Generated_Source\PSoC5/isr_filter.c **** 
  44:.\Generated_Source\PSoC5/isr_filter.c **** /*******************************************************************************
  45:.\Generated_Source\PSoC5/isr_filter.c **** * Function Name: isr_filter_Start
  46:.\Generated_Source\PSoC5/isr_filter.c **** ********************************************************************************
  47:.\Generated_Source\PSoC5/isr_filter.c **** *
  48:.\Generated_Source\PSoC5/isr_filter.c **** * Summary:
  49:.\Generated_Source\PSoC5/isr_filter.c **** *  Set up the interrupt and enable it.
  50:.\Generated_Source\PSoC5/isr_filter.c **** *
  51:.\Generated_Source\PSoC5/isr_filter.c **** * Parameters:  
  52:.\Generated_Source\PSoC5/isr_filter.c **** *   None
  53:.\Generated_Source\PSoC5/isr_filter.c **** *
  54:.\Generated_Source\PSoC5/isr_filter.c **** * Return:
  55:.\Generated_Source\PSoC5/isr_filter.c **** *   None
  56:.\Generated_Source\PSoC5/isr_filter.c **** *
  57:.\Generated_Source\PSoC5/isr_filter.c **** *******************************************************************************/
  58:.\Generated_Source\PSoC5/isr_filter.c **** void isr_filter_Start(void)
  59:.\Generated_Source\PSoC5/isr_filter.c **** {
  33              		.loc 1 59 0
  34              		.cfi_startproc
  35              		@ args = 0, pretend = 0, frame = 0
  36              		@ frame_needed = 1, uses_anonymous_args = 0
  37 0000 80B5     		push	{r7, lr}
  38              	.LCFI0:
  39              		.cfi_def_cfa_offset 8
  40              		.cfi_offset 7, -8
  41              		.cfi_offset 14, -4
  42 0002 00AF     		add	r7, sp, #0
  43              	.LCFI1:
  44              		.cfi_def_cfa_register 7
  60:.\Generated_Source\PSoC5/isr_filter.c ****     /* For all we know the interrupt is active. */
  61:.\Generated_Source\PSoC5/isr_filter.c ****     isr_filter_Disable();
  45              		.loc 1 61 0
  46 0004 FFF7FEFF 		bl	isr_filter_Disable
  62:.\Generated_Source\PSoC5/isr_filter.c **** 
  63:.\Generated_Source\PSoC5/isr_filter.c ****     /* Set the ISR to point to the isr_filter Interrupt. */
  64:.\Generated_Source\PSoC5/isr_filter.c ****     isr_filter_SetVector(&isr_filter_Interrupt);
  47              		.loc 1 64 0
  48 0008 40F20000 		movw	r0, #:lower16:isr_filter_Interrupt
  49 000c C0F20000 		movt	r0, #:upper16:isr_filter_Interrupt
  50 0010 FFF7FEFF 		bl	isr_filter_SetVector
ARM GAS  C:\Users\CHAIYA~1\AppData\Local\Temp\ccqfhVqa.s 			page 3


  65:.\Generated_Source\PSoC5/isr_filter.c **** 
  66:.\Generated_Source\PSoC5/isr_filter.c ****     /* Set the priority. */
  67:.\Generated_Source\PSoC5/isr_filter.c ****     isr_filter_SetPriority((uint8)isr_filter_INTC_PRIOR_NUMBER);
  51              		.loc 1 67 0
  52 0014 4FF00700 		mov	r0, #7
  53 0018 FFF7FEFF 		bl	isr_filter_SetPriority
  68:.\Generated_Source\PSoC5/isr_filter.c **** 
  69:.\Generated_Source\PSoC5/isr_filter.c ****     /* Enable it. */
  70:.\Generated_Source\PSoC5/isr_filter.c ****     isr_filter_Enable();
  54              		.loc 1 70 0
  55 001c FFF7FEFF 		bl	isr_filter_Enable
  71:.\Generated_Source\PSoC5/isr_filter.c **** }
  56              		.loc 1 71 0
  57 0020 80BD     		pop	{r7, pc}
  58              		.cfi_endproc
  59              	.LFE0:
  60              		.size	isr_filter_Start, .-isr_filter_Start
  61 0022 00BF     		.section	.text.isr_filter_StartEx,"ax",%progbits
  62              		.align	2
  63              		.global	isr_filter_StartEx
  64              		.thumb
  65              		.thumb_func
  66              		.type	isr_filter_StartEx, %function
  67              	isr_filter_StartEx:
  68              	.LFB1:
  72:.\Generated_Source\PSoC5/isr_filter.c **** 
  73:.\Generated_Source\PSoC5/isr_filter.c **** 
  74:.\Generated_Source\PSoC5/isr_filter.c **** /*******************************************************************************
  75:.\Generated_Source\PSoC5/isr_filter.c **** * Function Name: isr_filter_StartEx
  76:.\Generated_Source\PSoC5/isr_filter.c **** ********************************************************************************
  77:.\Generated_Source\PSoC5/isr_filter.c **** *
  78:.\Generated_Source\PSoC5/isr_filter.c **** * Summary:
  79:.\Generated_Source\PSoC5/isr_filter.c **** *  Set up the interrupt and enable it.
  80:.\Generated_Source\PSoC5/isr_filter.c **** *
  81:.\Generated_Source\PSoC5/isr_filter.c **** * Parameters:  
  82:.\Generated_Source\PSoC5/isr_filter.c **** *   address: Address of the ISR to set in the interrupt vector table.
  83:.\Generated_Source\PSoC5/isr_filter.c **** *
  84:.\Generated_Source\PSoC5/isr_filter.c **** * Return:
  85:.\Generated_Source\PSoC5/isr_filter.c **** *   None
  86:.\Generated_Source\PSoC5/isr_filter.c **** *
  87:.\Generated_Source\PSoC5/isr_filter.c **** *******************************************************************************/
  88:.\Generated_Source\PSoC5/isr_filter.c **** void isr_filter_StartEx(cyisraddress address)
  89:.\Generated_Source\PSoC5/isr_filter.c **** {
  69              		.loc 1 89 0
  70              		.cfi_startproc
  71              		@ args = 0, pretend = 0, frame = 8
  72              		@ frame_needed = 1, uses_anonymous_args = 0
  73 0000 80B5     		push	{r7, lr}
  74              	.LCFI2:
  75              		.cfi_def_cfa_offset 8
  76              		.cfi_offset 7, -8
  77              		.cfi_offset 14, -4
  78 0002 82B0     		sub	sp, sp, #8
  79              	.LCFI3:
  80              		.cfi_def_cfa_offset 16
  81 0004 00AF     		add	r7, sp, #0
  82              	.LCFI4:
ARM GAS  C:\Users\CHAIYA~1\AppData\Local\Temp\ccqfhVqa.s 			page 4


  83              		.cfi_def_cfa_register 7
  84 0006 7860     		str	r0, [r7, #4]
  90:.\Generated_Source\PSoC5/isr_filter.c ****     /* For all we know the interrupt is active. */
  91:.\Generated_Source\PSoC5/isr_filter.c ****     isr_filter_Disable();
  85              		.loc 1 91 0
  86 0008 FFF7FEFF 		bl	isr_filter_Disable
  92:.\Generated_Source\PSoC5/isr_filter.c **** 
  93:.\Generated_Source\PSoC5/isr_filter.c ****     /* Set the ISR to point to the isr_filter Interrupt. */
  94:.\Generated_Source\PSoC5/isr_filter.c ****     isr_filter_SetVector(address);
  87              		.loc 1 94 0
  88 000c 7868     		ldr	r0, [r7, #4]
  89 000e FFF7FEFF 		bl	isr_filter_SetVector
  95:.\Generated_Source\PSoC5/isr_filter.c **** 
  96:.\Generated_Source\PSoC5/isr_filter.c ****     /* Set the priority. */
  97:.\Generated_Source\PSoC5/isr_filter.c ****     isr_filter_SetPriority((uint8)isr_filter_INTC_PRIOR_NUMBER);
  90              		.loc 1 97 0
  91 0012 4FF00700 		mov	r0, #7
  92 0016 FFF7FEFF 		bl	isr_filter_SetPriority
  98:.\Generated_Source\PSoC5/isr_filter.c **** 
  99:.\Generated_Source\PSoC5/isr_filter.c ****     /* Enable it. */
 100:.\Generated_Source\PSoC5/isr_filter.c ****     isr_filter_Enable();
  93              		.loc 1 100 0
  94 001a FFF7FEFF 		bl	isr_filter_Enable
 101:.\Generated_Source\PSoC5/isr_filter.c **** }
  95              		.loc 1 101 0
  96 001e 07F10807 		add	r7, r7, #8
  97 0022 BD46     		mov	sp, r7
  98 0024 80BD     		pop	{r7, pc}
  99              		.cfi_endproc
 100              	.LFE1:
 101              		.size	isr_filter_StartEx, .-isr_filter_StartEx
 102 0026 00BF     		.section	.text.isr_filter_Stop,"ax",%progbits
 103              		.align	2
 104              		.global	isr_filter_Stop
 105              		.thumb
 106              		.thumb_func
 107              		.type	isr_filter_Stop, %function
 108              	isr_filter_Stop:
 109              	.LFB2:
 102:.\Generated_Source\PSoC5/isr_filter.c **** 
 103:.\Generated_Source\PSoC5/isr_filter.c **** 
 104:.\Generated_Source\PSoC5/isr_filter.c **** /*******************************************************************************
 105:.\Generated_Source\PSoC5/isr_filter.c **** * Function Name: isr_filter_Stop
 106:.\Generated_Source\PSoC5/isr_filter.c **** ********************************************************************************
 107:.\Generated_Source\PSoC5/isr_filter.c **** *
 108:.\Generated_Source\PSoC5/isr_filter.c **** * Summary:
 109:.\Generated_Source\PSoC5/isr_filter.c **** *   Disables and removes the interrupt.
 110:.\Generated_Source\PSoC5/isr_filter.c **** *
 111:.\Generated_Source\PSoC5/isr_filter.c **** * Parameters:  
 112:.\Generated_Source\PSoC5/isr_filter.c **** *
 113:.\Generated_Source\PSoC5/isr_filter.c **** * Return:
 114:.\Generated_Source\PSoC5/isr_filter.c **** *   None
 115:.\Generated_Source\PSoC5/isr_filter.c **** *
 116:.\Generated_Source\PSoC5/isr_filter.c **** *******************************************************************************/
 117:.\Generated_Source\PSoC5/isr_filter.c **** void isr_filter_Stop(void)
 118:.\Generated_Source\PSoC5/isr_filter.c **** {
 110              		.loc 1 118 0
ARM GAS  C:\Users\CHAIYA~1\AppData\Local\Temp\ccqfhVqa.s 			page 5


 111              		.cfi_startproc
 112              		@ args = 0, pretend = 0, frame = 0
 113              		@ frame_needed = 1, uses_anonymous_args = 0
 114 0000 80B5     		push	{r7, lr}
 115              	.LCFI5:
 116              		.cfi_def_cfa_offset 8
 117              		.cfi_offset 7, -8
 118              		.cfi_offset 14, -4
 119 0002 00AF     		add	r7, sp, #0
 120              	.LCFI6:
 121              		.cfi_def_cfa_register 7
 119:.\Generated_Source\PSoC5/isr_filter.c ****     /* Disable this interrupt. */
 120:.\Generated_Source\PSoC5/isr_filter.c ****     isr_filter_Disable();
 122              		.loc 1 120 0
 123 0004 FFF7FEFF 		bl	isr_filter_Disable
 121:.\Generated_Source\PSoC5/isr_filter.c **** 
 122:.\Generated_Source\PSoC5/isr_filter.c ****     /* Set the ISR to point to the passive one. */
 123:.\Generated_Source\PSoC5/isr_filter.c ****     isr_filter_SetVector(&IntDefaultHandler);
 124              		.loc 1 123 0
 125 0008 40F20000 		movw	r0, #:lower16:IntDefaultHandler
 126 000c C0F20000 		movt	r0, #:upper16:IntDefaultHandler
 127 0010 FFF7FEFF 		bl	isr_filter_SetVector
 124:.\Generated_Source\PSoC5/isr_filter.c **** }
 128              		.loc 1 124 0
 129 0014 80BD     		pop	{r7, pc}
 130              		.cfi_endproc
 131              	.LFE2:
 132              		.size	isr_filter_Stop, .-isr_filter_Stop
 133 0016 00BF     		.section	.text.isr_filter_Interrupt,"ax",%progbits
 134              		.align	2
 135              		.global	isr_filter_Interrupt
 136              		.thumb
 137              		.thumb_func
 138              		.type	isr_filter_Interrupt, %function
 139              	isr_filter_Interrupt:
 140              	.LFB3:
 125:.\Generated_Source\PSoC5/isr_filter.c **** 
 126:.\Generated_Source\PSoC5/isr_filter.c **** 
 127:.\Generated_Source\PSoC5/isr_filter.c **** /*******************************************************************************
 128:.\Generated_Source\PSoC5/isr_filter.c **** * Function Name: isr_filter_Interrupt
 129:.\Generated_Source\PSoC5/isr_filter.c **** ********************************************************************************
 130:.\Generated_Source\PSoC5/isr_filter.c **** *
 131:.\Generated_Source\PSoC5/isr_filter.c **** * Summary:
 132:.\Generated_Source\PSoC5/isr_filter.c **** *   The default Interrupt Service Routine for isr_filter.
 133:.\Generated_Source\PSoC5/isr_filter.c **** *
 134:.\Generated_Source\PSoC5/isr_filter.c **** *   Add custom code between the coments to keep the next version of this file
 135:.\Generated_Source\PSoC5/isr_filter.c **** *   from over writting your code.
 136:.\Generated_Source\PSoC5/isr_filter.c **** *
 137:.\Generated_Source\PSoC5/isr_filter.c **** * Parameters:  
 138:.\Generated_Source\PSoC5/isr_filter.c **** *
 139:.\Generated_Source\PSoC5/isr_filter.c **** * Return:
 140:.\Generated_Source\PSoC5/isr_filter.c **** *   None
 141:.\Generated_Source\PSoC5/isr_filter.c **** *
 142:.\Generated_Source\PSoC5/isr_filter.c **** *******************************************************************************/
 143:.\Generated_Source\PSoC5/isr_filter.c **** CY_ISR(isr_filter_Interrupt)
 144:.\Generated_Source\PSoC5/isr_filter.c **** {
 141              		.loc 1 144 0
ARM GAS  C:\Users\CHAIYA~1\AppData\Local\Temp\ccqfhVqa.s 			page 6


 142              		.cfi_startproc
 143              		@ args = 0, pretend = 0, frame = 0
 144              		@ frame_needed = 1, uses_anonymous_args = 0
 145              		@ link register save eliminated.
 146 0000 80B4     		push	{r7}
 147              	.LCFI7:
 148              		.cfi_def_cfa_offset 4
 149              		.cfi_offset 7, -4
 150 0002 00AF     		add	r7, sp, #0
 151              	.LCFI8:
 152              		.cfi_def_cfa_register 7
 145:.\Generated_Source\PSoC5/isr_filter.c ****     /*  Place your Interrupt code here. */
 146:.\Generated_Source\PSoC5/isr_filter.c ****     /* `#START isr_filter_Interrupt` */
 147:.\Generated_Source\PSoC5/isr_filter.c **** 
 148:.\Generated_Source\PSoC5/isr_filter.c ****     if(Filter_IsInterruptChannelA());
 153              		.loc 1 148 0
 154 0004 4CF28473 		movw	r3, #51076
 155 0008 C4F20003 		movt	r3, 16384
 156 000c 1B78     		ldrb	r3, [r3, #0]
 149:.\Generated_Source\PSoC5/isr_filter.c ****     {
 150:.\Generated_Source\PSoC5/isr_filter.c ****         Filter_ClearInterruptSource();
 157              		.loc 1 150 0
 158 000e 4CF28473 		movw	r3, #51076
 159 0012 C4F20003 		movt	r3, 16384
 160 0016 4FF0F802 		mov	r2, #248
 161 001a 1A70     		strb	r2, [r3, #0]
 151:.\Generated_Source\PSoC5/isr_filter.c ****         toggle_flag2 = 1;
 162              		.loc 1 151 0
 163 001c 40F20003 		movw	r3, #:lower16:toggle_flag2
 164 0020 C0F20003 		movt	r3, #:upper16:toggle_flag2
 165 0024 4FF00102 		mov	r2, #1
 166 0028 1A70     		strb	r2, [r3, #0]
 152:.\Generated_Source\PSoC5/isr_filter.c ****     }
 153:.\Generated_Source\PSoC5/isr_filter.c ****         
 154:.\Generated_Source\PSoC5/isr_filter.c ****     /* `#END` */
 155:.\Generated_Source\PSoC5/isr_filter.c **** }
 167              		.loc 1 155 0
 168 002a BD46     		mov	sp, r7
 169 002c 80BC     		pop	{r7}
 170 002e 7047     		bx	lr
 171              		.cfi_endproc
 172              	.LFE3:
 173              		.size	isr_filter_Interrupt, .-isr_filter_Interrupt
 174              		.section	.text.isr_filter_SetVector,"ax",%progbits
 175              		.align	2
 176              		.global	isr_filter_SetVector
 177              		.thumb
 178              		.thumb_func
 179              		.type	isr_filter_SetVector, %function
 180              	isr_filter_SetVector:
 181              	.LFB4:
 156:.\Generated_Source\PSoC5/isr_filter.c **** 
 157:.\Generated_Source\PSoC5/isr_filter.c **** 
 158:.\Generated_Source\PSoC5/isr_filter.c **** /*******************************************************************************
 159:.\Generated_Source\PSoC5/isr_filter.c **** * Function Name: isr_filter_SetVector
 160:.\Generated_Source\PSoC5/isr_filter.c **** ********************************************************************************
 161:.\Generated_Source\PSoC5/isr_filter.c **** *
ARM GAS  C:\Users\CHAIYA~1\AppData\Local\Temp\ccqfhVqa.s 			page 7


 162:.\Generated_Source\PSoC5/isr_filter.c **** * Summary:
 163:.\Generated_Source\PSoC5/isr_filter.c **** *   Change the ISR vector for the Interrupt. Note calling isr_filter_Start
 164:.\Generated_Source\PSoC5/isr_filter.c **** *   will override any effect this method would have had. To set the vector 
 165:.\Generated_Source\PSoC5/isr_filter.c **** *   before the component has been started use isr_filter_StartEx instead.
 166:.\Generated_Source\PSoC5/isr_filter.c **** *
 167:.\Generated_Source\PSoC5/isr_filter.c **** * Parameters:
 168:.\Generated_Source\PSoC5/isr_filter.c **** *   address: Address of the ISR to set in the interrupt vector table.
 169:.\Generated_Source\PSoC5/isr_filter.c **** *
 170:.\Generated_Source\PSoC5/isr_filter.c **** * Return:
 171:.\Generated_Source\PSoC5/isr_filter.c **** *   None
 172:.\Generated_Source\PSoC5/isr_filter.c **** *
 173:.\Generated_Source\PSoC5/isr_filter.c **** *******************************************************************************/
 174:.\Generated_Source\PSoC5/isr_filter.c **** void isr_filter_SetVector(cyisraddress address)
 175:.\Generated_Source\PSoC5/isr_filter.c **** {
 182              		.loc 1 175 0
 183              		.cfi_startproc
 184              		@ args = 0, pretend = 0, frame = 16
 185              		@ frame_needed = 1, uses_anonymous_args = 0
 186              		@ link register save eliminated.
 187 0000 80B4     		push	{r7}
 188              	.LCFI9:
 189              		.cfi_def_cfa_offset 4
 190              		.cfi_offset 7, -4
 191 0002 85B0     		sub	sp, sp, #20
 192              	.LCFI10:
 193              		.cfi_def_cfa_offset 24
 194 0004 00AF     		add	r7, sp, #0
 195              	.LCFI11:
 196              		.cfi_def_cfa_register 7
 197 0006 7860     		str	r0, [r7, #4]
 176:.\Generated_Source\PSoC5/isr_filter.c ****     cyisraddress * ramVectorTable;
 177:.\Generated_Source\PSoC5/isr_filter.c **** 
 178:.\Generated_Source\PSoC5/isr_filter.c ****     ramVectorTable = (cyisraddress *) *CYINT_VECT_TABLE;
 198              		.loc 1 178 0
 199 0008 4EF60853 		movw	r3, #60680
 200 000c CEF20003 		movt	r3, 57344
 201 0010 1B68     		ldr	r3, [r3, #0]
 202 0012 FB60     		str	r3, [r7, #12]
 179:.\Generated_Source\PSoC5/isr_filter.c **** 
 180:.\Generated_Source\PSoC5/isr_filter.c ****     ramVectorTable[CYINT_IRQ_BASE + (uint32)isr_filter__INTC_NUMBER] = address;
 203              		.loc 1 180 0
 204 0014 FB68     		ldr	r3, [r7, #12]
 205 0016 03F14803 		add	r3, r3, #72
 206 001a 7A68     		ldr	r2, [r7, #4]
 207 001c 1A60     		str	r2, [r3, #0]
 181:.\Generated_Source\PSoC5/isr_filter.c **** }
 208              		.loc 1 181 0
 209 001e 07F11407 		add	r7, r7, #20
 210 0022 BD46     		mov	sp, r7
 211 0024 80BC     		pop	{r7}
 212 0026 7047     		bx	lr
 213              		.cfi_endproc
 214              	.LFE4:
 215              		.size	isr_filter_SetVector, .-isr_filter_SetVector
 216              		.section	.text.isr_filter_GetVector,"ax",%progbits
 217              		.align	2
 218              		.global	isr_filter_GetVector
ARM GAS  C:\Users\CHAIYA~1\AppData\Local\Temp\ccqfhVqa.s 			page 8


 219              		.thumb
 220              		.thumb_func
 221              		.type	isr_filter_GetVector, %function
 222              	isr_filter_GetVector:
 223              	.LFB5:
 182:.\Generated_Source\PSoC5/isr_filter.c **** 
 183:.\Generated_Source\PSoC5/isr_filter.c **** 
 184:.\Generated_Source\PSoC5/isr_filter.c **** /*******************************************************************************
 185:.\Generated_Source\PSoC5/isr_filter.c **** * Function Name: isr_filter_GetVector
 186:.\Generated_Source\PSoC5/isr_filter.c **** ********************************************************************************
 187:.\Generated_Source\PSoC5/isr_filter.c **** *
 188:.\Generated_Source\PSoC5/isr_filter.c **** * Summary:
 189:.\Generated_Source\PSoC5/isr_filter.c **** *   Gets the "address" of the current ISR vector for the Interrupt.
 190:.\Generated_Source\PSoC5/isr_filter.c **** *
 191:.\Generated_Source\PSoC5/isr_filter.c **** * Parameters:
 192:.\Generated_Source\PSoC5/isr_filter.c **** *   None
 193:.\Generated_Source\PSoC5/isr_filter.c **** *
 194:.\Generated_Source\PSoC5/isr_filter.c **** * Return:
 195:.\Generated_Source\PSoC5/isr_filter.c **** *   Address of the ISR in the interrupt vector table.
 196:.\Generated_Source\PSoC5/isr_filter.c **** *
 197:.\Generated_Source\PSoC5/isr_filter.c **** *******************************************************************************/
 198:.\Generated_Source\PSoC5/isr_filter.c **** cyisraddress isr_filter_GetVector(void)
 199:.\Generated_Source\PSoC5/isr_filter.c **** {
 224              		.loc 1 199 0
 225              		.cfi_startproc
 226              		@ args = 0, pretend = 0, frame = 8
 227              		@ frame_needed = 1, uses_anonymous_args = 0
 228              		@ link register save eliminated.
 229 0000 80B4     		push	{r7}
 230              	.LCFI12:
 231              		.cfi_def_cfa_offset 4
 232              		.cfi_offset 7, -4
 233 0002 83B0     		sub	sp, sp, #12
 234              	.LCFI13:
 235              		.cfi_def_cfa_offset 16
 236 0004 00AF     		add	r7, sp, #0
 237              	.LCFI14:
 238              		.cfi_def_cfa_register 7
 200:.\Generated_Source\PSoC5/isr_filter.c ****     cyisraddress * ramVectorTable;
 201:.\Generated_Source\PSoC5/isr_filter.c **** 
 202:.\Generated_Source\PSoC5/isr_filter.c ****     ramVectorTable = (cyisraddress *) *CYINT_VECT_TABLE;
 239              		.loc 1 202 0
 240 0006 4EF60853 		movw	r3, #60680
 241 000a CEF20003 		movt	r3, 57344
 242 000e 1B68     		ldr	r3, [r3, #0]
 243 0010 7B60     		str	r3, [r7, #4]
 203:.\Generated_Source\PSoC5/isr_filter.c **** 
 204:.\Generated_Source\PSoC5/isr_filter.c ****     return ramVectorTable[CYINT_IRQ_BASE + (uint32)isr_filter__INTC_NUMBER];
 244              		.loc 1 204 0
 245 0012 7B68     		ldr	r3, [r7, #4]
 246 0014 9B6C     		ldr	r3, [r3, #72]
 205:.\Generated_Source\PSoC5/isr_filter.c **** }
 247              		.loc 1 205 0
 248 0016 1846     		mov	r0, r3
 249 0018 07F10C07 		add	r7, r7, #12
 250 001c BD46     		mov	sp, r7
 251 001e 80BC     		pop	{r7}
ARM GAS  C:\Users\CHAIYA~1\AppData\Local\Temp\ccqfhVqa.s 			page 9


 252 0020 7047     		bx	lr
 253              		.cfi_endproc
 254              	.LFE5:
 255              		.size	isr_filter_GetVector, .-isr_filter_GetVector
 256 0022 00BF     		.section	.text.isr_filter_SetPriority,"ax",%progbits
 257              		.align	2
 258              		.global	isr_filter_SetPriority
 259              		.thumb
 260              		.thumb_func
 261              		.type	isr_filter_SetPriority, %function
 262              	isr_filter_SetPriority:
 263              	.LFB6:
 206:.\Generated_Source\PSoC5/isr_filter.c **** 
 207:.\Generated_Source\PSoC5/isr_filter.c **** 
 208:.\Generated_Source\PSoC5/isr_filter.c **** /*******************************************************************************
 209:.\Generated_Source\PSoC5/isr_filter.c **** * Function Name: isr_filter_SetPriority
 210:.\Generated_Source\PSoC5/isr_filter.c **** ********************************************************************************
 211:.\Generated_Source\PSoC5/isr_filter.c **** *
 212:.\Generated_Source\PSoC5/isr_filter.c **** * Summary:
 213:.\Generated_Source\PSoC5/isr_filter.c **** *   Sets the Priority of the Interrupt. Note calling isr_filter_Start
 214:.\Generated_Source\PSoC5/isr_filter.c **** *   or isr_filter_StartEx will override any effect this method 
 215:.\Generated_Source\PSoC5/isr_filter.c **** *   would have had. This method should only be called after 
 216:.\Generated_Source\PSoC5/isr_filter.c **** *   isr_filter_Start or isr_filter_StartEx has been called. To set 
 217:.\Generated_Source\PSoC5/isr_filter.c **** *   the initial priority for the component use the cydwr file in the tool.
 218:.\Generated_Source\PSoC5/isr_filter.c **** *
 219:.\Generated_Source\PSoC5/isr_filter.c **** * Parameters:
 220:.\Generated_Source\PSoC5/isr_filter.c **** *   priority: Priority of the interrupt. 0 - 7, 0 being the highest.
 221:.\Generated_Source\PSoC5/isr_filter.c **** *
 222:.\Generated_Source\PSoC5/isr_filter.c **** * Return:
 223:.\Generated_Source\PSoC5/isr_filter.c **** *   None
 224:.\Generated_Source\PSoC5/isr_filter.c **** *
 225:.\Generated_Source\PSoC5/isr_filter.c **** *******************************************************************************/
 226:.\Generated_Source\PSoC5/isr_filter.c **** void isr_filter_SetPriority(uint8 priority)
 227:.\Generated_Source\PSoC5/isr_filter.c **** {
 264              		.loc 1 227 0
 265              		.cfi_startproc
 266              		@ args = 0, pretend = 0, frame = 8
 267              		@ frame_needed = 1, uses_anonymous_args = 0
 268              		@ link register save eliminated.
 269 0000 80B4     		push	{r7}
 270              	.LCFI15:
 271              		.cfi_def_cfa_offset 4
 272              		.cfi_offset 7, -4
 273 0002 83B0     		sub	sp, sp, #12
 274              	.LCFI16:
 275              		.cfi_def_cfa_offset 16
 276 0004 00AF     		add	r7, sp, #0
 277              	.LCFI17:
 278              		.cfi_def_cfa_register 7
 279 0006 0346     		mov	r3, r0
 280 0008 FB71     		strb	r3, [r7, #7]
 228:.\Generated_Source\PSoC5/isr_filter.c ****     *isr_filter_INTC_PRIOR = priority << 5;
 281              		.loc 1 228 0
 282 000a 4EF20243 		movw	r3, #58370
 283 000e CEF20003 		movt	r3, 57344
 284 0012 FA79     		ldrb	r2, [r7, #7]
 285 0014 4FEA4212 		lsl	r2, r2, #5
ARM GAS  C:\Users\CHAIYA~1\AppData\Local\Temp\ccqfhVqa.s 			page 10


 286 0018 D2B2     		uxtb	r2, r2
 287 001a 1A70     		strb	r2, [r3, #0]
 229:.\Generated_Source\PSoC5/isr_filter.c **** }
 288              		.loc 1 229 0
 289 001c 07F10C07 		add	r7, r7, #12
 290 0020 BD46     		mov	sp, r7
 291 0022 80BC     		pop	{r7}
 292 0024 7047     		bx	lr
 293              		.cfi_endproc
 294              	.LFE6:
 295              		.size	isr_filter_SetPriority, .-isr_filter_SetPriority
 296 0026 00BF     		.section	.text.isr_filter_GetPriority,"ax",%progbits
 297              		.align	2
 298              		.global	isr_filter_GetPriority
 299              		.thumb
 300              		.thumb_func
 301              		.type	isr_filter_GetPriority, %function
 302              	isr_filter_GetPriority:
 303              	.LFB7:
 230:.\Generated_Source\PSoC5/isr_filter.c **** 
 231:.\Generated_Source\PSoC5/isr_filter.c **** 
 232:.\Generated_Source\PSoC5/isr_filter.c **** /*******************************************************************************
 233:.\Generated_Source\PSoC5/isr_filter.c **** * Function Name: isr_filter_GetPriority
 234:.\Generated_Source\PSoC5/isr_filter.c **** ********************************************************************************
 235:.\Generated_Source\PSoC5/isr_filter.c **** *
 236:.\Generated_Source\PSoC5/isr_filter.c **** * Summary:
 237:.\Generated_Source\PSoC5/isr_filter.c **** *   Gets the Priority of the Interrupt.
 238:.\Generated_Source\PSoC5/isr_filter.c **** *
 239:.\Generated_Source\PSoC5/isr_filter.c **** * Parameters:
 240:.\Generated_Source\PSoC5/isr_filter.c **** *   None
 241:.\Generated_Source\PSoC5/isr_filter.c **** *
 242:.\Generated_Source\PSoC5/isr_filter.c **** * Return:
 243:.\Generated_Source\PSoC5/isr_filter.c **** *   Priority of the interrupt. 0 - 7, 0 being the highest.
 244:.\Generated_Source\PSoC5/isr_filter.c **** *
 245:.\Generated_Source\PSoC5/isr_filter.c **** *******************************************************************************/
 246:.\Generated_Source\PSoC5/isr_filter.c **** uint8 isr_filter_GetPriority(void)
 247:.\Generated_Source\PSoC5/isr_filter.c **** {
 304              		.loc 1 247 0
 305              		.cfi_startproc
 306              		@ args = 0, pretend = 0, frame = 8
 307              		@ frame_needed = 1, uses_anonymous_args = 0
 308              		@ link register save eliminated.
 309 0000 80B4     		push	{r7}
 310              	.LCFI18:
 311              		.cfi_def_cfa_offset 4
 312              		.cfi_offset 7, -4
 313 0002 83B0     		sub	sp, sp, #12
 314              	.LCFI19:
 315              		.cfi_def_cfa_offset 16
 316 0004 00AF     		add	r7, sp, #0
 317              	.LCFI20:
 318              		.cfi_def_cfa_register 7
 248:.\Generated_Source\PSoC5/isr_filter.c ****     uint8 priority;
 249:.\Generated_Source\PSoC5/isr_filter.c **** 
 250:.\Generated_Source\PSoC5/isr_filter.c **** 
 251:.\Generated_Source\PSoC5/isr_filter.c ****     priority = *isr_filter_INTC_PRIOR >> 5;
 319              		.loc 1 251 0
ARM GAS  C:\Users\CHAIYA~1\AppData\Local\Temp\ccqfhVqa.s 			page 11


 320 0006 4EF20243 		movw	r3, #58370
 321 000a CEF20003 		movt	r3, 57344
 322 000e 1B78     		ldrb	r3, [r3, #0]
 323 0010 DBB2     		uxtb	r3, r3
 324 0012 4FEA5313 		lsr	r3, r3, #5
 325 0016 FB71     		strb	r3, [r7, #7]
 252:.\Generated_Source\PSoC5/isr_filter.c **** 
 253:.\Generated_Source\PSoC5/isr_filter.c ****     return priority;
 326              		.loc 1 253 0
 327 0018 FB79     		ldrb	r3, [r7, #7]	@ zero_extendqisi2
 254:.\Generated_Source\PSoC5/isr_filter.c **** }
 328              		.loc 1 254 0
 329 001a 1846     		mov	r0, r3
 330 001c 07F10C07 		add	r7, r7, #12
 331 0020 BD46     		mov	sp, r7
 332 0022 80BC     		pop	{r7}
 333 0024 7047     		bx	lr
 334              		.cfi_endproc
 335              	.LFE7:
 336              		.size	isr_filter_GetPriority, .-isr_filter_GetPriority
 337 0026 00BF     		.section	.text.isr_filter_Enable,"ax",%progbits
 338              		.align	2
 339              		.global	isr_filter_Enable
 340              		.thumb
 341              		.thumb_func
 342              		.type	isr_filter_Enable, %function
 343              	isr_filter_Enable:
 344              	.LFB8:
 255:.\Generated_Source\PSoC5/isr_filter.c **** 
 256:.\Generated_Source\PSoC5/isr_filter.c **** 
 257:.\Generated_Source\PSoC5/isr_filter.c **** /*******************************************************************************
 258:.\Generated_Source\PSoC5/isr_filter.c **** * Function Name: isr_filter_Enable
 259:.\Generated_Source\PSoC5/isr_filter.c **** ********************************************************************************
 260:.\Generated_Source\PSoC5/isr_filter.c **** *
 261:.\Generated_Source\PSoC5/isr_filter.c **** * Summary:
 262:.\Generated_Source\PSoC5/isr_filter.c **** *   Enables the interrupt.
 263:.\Generated_Source\PSoC5/isr_filter.c **** *
 264:.\Generated_Source\PSoC5/isr_filter.c **** * Parameters:
 265:.\Generated_Source\PSoC5/isr_filter.c **** *   None
 266:.\Generated_Source\PSoC5/isr_filter.c **** *
 267:.\Generated_Source\PSoC5/isr_filter.c **** * Return:
 268:.\Generated_Source\PSoC5/isr_filter.c **** *   None
 269:.\Generated_Source\PSoC5/isr_filter.c **** *
 270:.\Generated_Source\PSoC5/isr_filter.c **** *******************************************************************************/
 271:.\Generated_Source\PSoC5/isr_filter.c **** void isr_filter_Enable(void)
 272:.\Generated_Source\PSoC5/isr_filter.c **** {
 345              		.loc 1 272 0
 346              		.cfi_startproc
 347              		@ args = 0, pretend = 0, frame = 0
 348              		@ frame_needed = 1, uses_anonymous_args = 0
 349              		@ link register save eliminated.
 350 0000 80B4     		push	{r7}
 351              	.LCFI21:
 352              		.cfi_def_cfa_offset 4
 353              		.cfi_offset 7, -4
 354 0002 00AF     		add	r7, sp, #0
 355              	.LCFI22:
ARM GAS  C:\Users\CHAIYA~1\AppData\Local\Temp\ccqfhVqa.s 			page 12


 356              		.cfi_def_cfa_register 7
 273:.\Generated_Source\PSoC5/isr_filter.c ****     /* Enable the general interrupt. */
 274:.\Generated_Source\PSoC5/isr_filter.c ****     *isr_filter_INTC_SET_EN = isr_filter__INTC_MASK;
 357              		.loc 1 274 0
 358 0004 4FF46143 		mov	r3, #57600
 359 0008 CEF20003 		movt	r3, 57344
 360 000c 4FF00402 		mov	r2, #4
 361 0010 1A60     		str	r2, [r3, #0]
 275:.\Generated_Source\PSoC5/isr_filter.c **** }
 362              		.loc 1 275 0
 363 0012 BD46     		mov	sp, r7
 364 0014 80BC     		pop	{r7}
 365 0016 7047     		bx	lr
 366              		.cfi_endproc
 367              	.LFE8:
 368              		.size	isr_filter_Enable, .-isr_filter_Enable
 369              		.section	.text.isr_filter_GetState,"ax",%progbits
 370              		.align	2
 371              		.global	isr_filter_GetState
 372              		.thumb
 373              		.thumb_func
 374              		.type	isr_filter_GetState, %function
 375              	isr_filter_GetState:
 376              	.LFB9:
 276:.\Generated_Source\PSoC5/isr_filter.c **** 
 277:.\Generated_Source\PSoC5/isr_filter.c **** 
 278:.\Generated_Source\PSoC5/isr_filter.c **** /*******************************************************************************
 279:.\Generated_Source\PSoC5/isr_filter.c **** * Function Name: isr_filter_GetState
 280:.\Generated_Source\PSoC5/isr_filter.c **** ********************************************************************************
 281:.\Generated_Source\PSoC5/isr_filter.c **** *
 282:.\Generated_Source\PSoC5/isr_filter.c **** * Summary:
 283:.\Generated_Source\PSoC5/isr_filter.c **** *   Gets the state (enabled, disabled) of the Interrupt.
 284:.\Generated_Source\PSoC5/isr_filter.c **** *
 285:.\Generated_Source\PSoC5/isr_filter.c **** * Parameters:
 286:.\Generated_Source\PSoC5/isr_filter.c **** *   None
 287:.\Generated_Source\PSoC5/isr_filter.c **** *
 288:.\Generated_Source\PSoC5/isr_filter.c **** * Return:
 289:.\Generated_Source\PSoC5/isr_filter.c **** *   1 if enabled, 0 if disabled.
 290:.\Generated_Source\PSoC5/isr_filter.c **** *
 291:.\Generated_Source\PSoC5/isr_filter.c **** *******************************************************************************/
 292:.\Generated_Source\PSoC5/isr_filter.c **** uint8 isr_filter_GetState(void)
 293:.\Generated_Source\PSoC5/isr_filter.c **** {
 377              		.loc 1 293 0
 378              		.cfi_startproc
 379              		@ args = 0, pretend = 0, frame = 0
 380              		@ frame_needed = 1, uses_anonymous_args = 0
 381              		@ link register save eliminated.
 382 0000 80B4     		push	{r7}
 383              	.LCFI23:
 384              		.cfi_def_cfa_offset 4
 385              		.cfi_offset 7, -4
 386 0002 00AF     		add	r7, sp, #0
 387              	.LCFI24:
 388              		.cfi_def_cfa_register 7
 294:.\Generated_Source\PSoC5/isr_filter.c ****     /* Get the state of the general interrupt. */
 295:.\Generated_Source\PSoC5/isr_filter.c ****     return ((*isr_filter_INTC_SET_EN & (uint32)isr_filter__INTC_MASK) != 0u) ? 1u:0u;
 389              		.loc 1 295 0
ARM GAS  C:\Users\CHAIYA~1\AppData\Local\Temp\ccqfhVqa.s 			page 13


 390 0004 4FF46143 		mov	r3, #57600
 391 0008 CEF20003 		movt	r3, 57344
 392 000c 1B68     		ldr	r3, [r3, #0]
 393 000e 03F00403 		and	r3, r3, #4
 394 0012 002B     		cmp	r3, #0
 395 0014 02D0     		beq	.L13
 396              		.loc 1 295 0 is_stmt 0 discriminator 1
 397 0016 4FF00103 		mov	r3, #1
 398 001a 01E0     		b	.L14
 399              	.L13:
 400              		.loc 1 295 0 discriminator 2
 401 001c 4FF00003 		mov	r3, #0
 402              	.L14:
 296:.\Generated_Source\PSoC5/isr_filter.c **** }
 403              		.loc 1 296 0 is_stmt 1 discriminator 3
 404 0020 1846     		mov	r0, r3
 405 0022 BD46     		mov	sp, r7
 406 0024 80BC     		pop	{r7}
 407 0026 7047     		bx	lr
 408              		.cfi_endproc
 409              	.LFE9:
 410              		.size	isr_filter_GetState, .-isr_filter_GetState
 411              		.section	.text.isr_filter_Disable,"ax",%progbits
 412              		.align	2
 413              		.global	isr_filter_Disable
 414              		.thumb
 415              		.thumb_func
 416              		.type	isr_filter_Disable, %function
 417              	isr_filter_Disable:
 418              	.LFB10:
 297:.\Generated_Source\PSoC5/isr_filter.c **** 
 298:.\Generated_Source\PSoC5/isr_filter.c **** 
 299:.\Generated_Source\PSoC5/isr_filter.c **** /*******************************************************************************
 300:.\Generated_Source\PSoC5/isr_filter.c **** * Function Name: isr_filter_Disable
 301:.\Generated_Source\PSoC5/isr_filter.c **** ********************************************************************************
 302:.\Generated_Source\PSoC5/isr_filter.c **** *
 303:.\Generated_Source\PSoC5/isr_filter.c **** * Summary:
 304:.\Generated_Source\PSoC5/isr_filter.c **** *   Disables the Interrupt.
 305:.\Generated_Source\PSoC5/isr_filter.c **** *
 306:.\Generated_Source\PSoC5/isr_filter.c **** * Parameters:
 307:.\Generated_Source\PSoC5/isr_filter.c **** *   None
 308:.\Generated_Source\PSoC5/isr_filter.c **** *
 309:.\Generated_Source\PSoC5/isr_filter.c **** * Return:
 310:.\Generated_Source\PSoC5/isr_filter.c **** *   None
 311:.\Generated_Source\PSoC5/isr_filter.c **** *
 312:.\Generated_Source\PSoC5/isr_filter.c **** *******************************************************************************/
 313:.\Generated_Source\PSoC5/isr_filter.c **** void isr_filter_Disable(void)
 314:.\Generated_Source\PSoC5/isr_filter.c **** {
 419              		.loc 1 314 0
 420              		.cfi_startproc
 421              		@ args = 0, pretend = 0, frame = 0
 422              		@ frame_needed = 1, uses_anonymous_args = 0
 423              		@ link register save eliminated.
 424 0000 80B4     		push	{r7}
 425              	.LCFI25:
 426              		.cfi_def_cfa_offset 4
 427              		.cfi_offset 7, -4
ARM GAS  C:\Users\CHAIYA~1\AppData\Local\Temp\ccqfhVqa.s 			page 14


 428 0002 00AF     		add	r7, sp, #0
 429              	.LCFI26:
 430              		.cfi_def_cfa_register 7
 315:.\Generated_Source\PSoC5/isr_filter.c ****     /* Disable the general interrupt. */
 316:.\Generated_Source\PSoC5/isr_filter.c ****     *isr_filter_INTC_CLR_EN = isr_filter__INTC_MASK;
 431              		.loc 1 316 0
 432 0004 4EF28013 		movw	r3, #57728
 433 0008 CEF20003 		movt	r3, 57344
 434 000c 4FF00402 		mov	r2, #4
 435 0010 1A60     		str	r2, [r3, #0]
 317:.\Generated_Source\PSoC5/isr_filter.c **** }
 436              		.loc 1 317 0
 437 0012 BD46     		mov	sp, r7
 438 0014 80BC     		pop	{r7}
 439 0016 7047     		bx	lr
 440              		.cfi_endproc
 441              	.LFE10:
 442              		.size	isr_filter_Disable, .-isr_filter_Disable
 443              		.section	.text.isr_filter_SetPending,"ax",%progbits
 444              		.align	2
 445              		.global	isr_filter_SetPending
 446              		.thumb
 447              		.thumb_func
 448              		.type	isr_filter_SetPending, %function
 449              	isr_filter_SetPending:
 450              	.LFB11:
 318:.\Generated_Source\PSoC5/isr_filter.c **** 
 319:.\Generated_Source\PSoC5/isr_filter.c **** 
 320:.\Generated_Source\PSoC5/isr_filter.c **** /*******************************************************************************
 321:.\Generated_Source\PSoC5/isr_filter.c **** * Function Name: isr_filter_SetPending
 322:.\Generated_Source\PSoC5/isr_filter.c **** ********************************************************************************
 323:.\Generated_Source\PSoC5/isr_filter.c **** *
 324:.\Generated_Source\PSoC5/isr_filter.c **** * Summary:
 325:.\Generated_Source\PSoC5/isr_filter.c **** *   Causes the Interrupt to enter the pending state, a software method of
 326:.\Generated_Source\PSoC5/isr_filter.c **** *   generating the interrupt.
 327:.\Generated_Source\PSoC5/isr_filter.c **** *
 328:.\Generated_Source\PSoC5/isr_filter.c **** * Parameters:
 329:.\Generated_Source\PSoC5/isr_filter.c **** *   None
 330:.\Generated_Source\PSoC5/isr_filter.c **** *
 331:.\Generated_Source\PSoC5/isr_filter.c **** * Return:
 332:.\Generated_Source\PSoC5/isr_filter.c **** *   None
 333:.\Generated_Source\PSoC5/isr_filter.c **** *
 334:.\Generated_Source\PSoC5/isr_filter.c **** *******************************************************************************/
 335:.\Generated_Source\PSoC5/isr_filter.c **** void isr_filter_SetPending(void)
 336:.\Generated_Source\PSoC5/isr_filter.c **** {
 451              		.loc 1 336 0
 452              		.cfi_startproc
 453              		@ args = 0, pretend = 0, frame = 0
 454              		@ frame_needed = 1, uses_anonymous_args = 0
 455              		@ link register save eliminated.
 456 0000 80B4     		push	{r7}
 457              	.LCFI27:
 458              		.cfi_def_cfa_offset 4
 459              		.cfi_offset 7, -4
 460 0002 00AF     		add	r7, sp, #0
 461              	.LCFI28:
 462              		.cfi_def_cfa_register 7
ARM GAS  C:\Users\CHAIYA~1\AppData\Local\Temp\ccqfhVqa.s 			page 15


 337:.\Generated_Source\PSoC5/isr_filter.c ****     *isr_filter_INTC_SET_PD = isr_filter__INTC_MASK;
 463              		.loc 1 337 0
 464 0004 4FF46243 		mov	r3, #57856
 465 0008 CEF20003 		movt	r3, 57344
 466 000c 4FF00402 		mov	r2, #4
 467 0010 1A60     		str	r2, [r3, #0]
 338:.\Generated_Source\PSoC5/isr_filter.c **** }
 468              		.loc 1 338 0
 469 0012 BD46     		mov	sp, r7
 470 0014 80BC     		pop	{r7}
 471 0016 7047     		bx	lr
 472              		.cfi_endproc
 473              	.LFE11:
 474              		.size	isr_filter_SetPending, .-isr_filter_SetPending
 475              		.section	.text.isr_filter_ClearPending,"ax",%progbits
 476              		.align	2
 477              		.global	isr_filter_ClearPending
 478              		.thumb
 479              		.thumb_func
 480              		.type	isr_filter_ClearPending, %function
 481              	isr_filter_ClearPending:
 482              	.LFB12:
 339:.\Generated_Source\PSoC5/isr_filter.c **** 
 340:.\Generated_Source\PSoC5/isr_filter.c **** 
 341:.\Generated_Source\PSoC5/isr_filter.c **** /*******************************************************************************
 342:.\Generated_Source\PSoC5/isr_filter.c **** * Function Name: isr_filter_ClearPending
 343:.\Generated_Source\PSoC5/isr_filter.c **** ********************************************************************************
 344:.\Generated_Source\PSoC5/isr_filter.c **** *
 345:.\Generated_Source\PSoC5/isr_filter.c **** * Summary:
 346:.\Generated_Source\PSoC5/isr_filter.c **** *   Clears a pending interrupt.
 347:.\Generated_Source\PSoC5/isr_filter.c **** *
 348:.\Generated_Source\PSoC5/isr_filter.c **** * Parameters:
 349:.\Generated_Source\PSoC5/isr_filter.c **** *   None
 350:.\Generated_Source\PSoC5/isr_filter.c **** *
 351:.\Generated_Source\PSoC5/isr_filter.c **** * Return:
 352:.\Generated_Source\PSoC5/isr_filter.c **** *   None
 353:.\Generated_Source\PSoC5/isr_filter.c **** *
 354:.\Generated_Source\PSoC5/isr_filter.c **** *******************************************************************************/
 355:.\Generated_Source\PSoC5/isr_filter.c **** void isr_filter_ClearPending(void)
 356:.\Generated_Source\PSoC5/isr_filter.c **** {
 483              		.loc 1 356 0
 484              		.cfi_startproc
 485              		@ args = 0, pretend = 0, frame = 0
 486              		@ frame_needed = 1, uses_anonymous_args = 0
 487              		@ link register save eliminated.
 488 0000 80B4     		push	{r7}
 489              	.LCFI29:
 490              		.cfi_def_cfa_offset 4
 491              		.cfi_offset 7, -4
 492 0002 00AF     		add	r7, sp, #0
 493              	.LCFI30:
 494              		.cfi_def_cfa_register 7
 357:.\Generated_Source\PSoC5/isr_filter.c ****     *isr_filter_INTC_CLR_PD = isr_filter__INTC_MASK;
 495              		.loc 1 357 0
 496 0004 4EF28023 		movw	r3, #57984
 497 0008 CEF20003 		movt	r3, 57344
 498 000c 4FF00402 		mov	r2, #4
ARM GAS  C:\Users\CHAIYA~1\AppData\Local\Temp\ccqfhVqa.s 			page 16


 499 0010 1A60     		str	r2, [r3, #0]
 358:.\Generated_Source\PSoC5/isr_filter.c **** }
 500              		.loc 1 358 0
 501 0012 BD46     		mov	sp, r7
 502 0014 80BC     		pop	{r7}
 503 0016 7047     		bx	lr
 504              		.cfi_endproc
 505              	.LFE12:
 506              		.size	isr_filter_ClearPending, .-isr_filter_ClearPending
 507              		.text
 508              	.Letext0:
 509              		.file 2 "./Generated_Source/PSoC5/cytypes.h"