ARM GAS  C:\Users\CHAIYA~1\AppData\Local\Temp\ccm5HVqs.s 			page 1


   1              		.syntax unified
   2              		.cpu cortex-m3
   3              		.fpu softvfp
   4              		.eabi_attribute 20, 1
   5              		.eabi_attribute 21, 1
   6              		.eabi_attribute 23, 3
   7              		.eabi_attribute 24, 1
   8              		.eabi_attribute 25, 1
   9              		.eabi_attribute 26, 1
  10              		.eabi_attribute 30, 6
  11              		.eabi_attribute 34, 1
  12              		.eabi_attribute 18, 4
  13              		.thumb
  14              		.file	"main.c"
  15              		.text
  16              	.Ltext0:
  17              		.cfi_sections	.debug_frame
  18              		.section	.text.main,"ax",%progbits
  19              		.align	2
  20              		.global	main
  21              		.thumb
  22              		.thumb_func
  23              		.type	main, %function
  24              	main:
  25              	.LFB56:
  26              		.file 1 ".\\main.c"
   1:.\main.c      **** /* ========================================
   2:.\main.c      ****  *
   3:.\main.c      ****  * Copyright YOUR COMPANY, THE YEAR
   4:.\main.c      ****  * All Rights Reserved
   5:.\main.c      ****  * UNPUBLISHED, LICENSED SOFTWARE.
   6:.\main.c      ****  *
   7:.\main.c      ****  * CONFIDENTIAL AND PROPRIETARY INFORMATION
   8:.\main.c      ****  * WHICH IS THE PROPERTY OF your company.
   9:.\main.c      ****  *
  10:.\main.c      ****  * 
  11:.\main.c      ****  * ========================================
  12:.\main.c      **** */
  13:.\main.c      **** 
  14:.\main.c      **** #include <project.h>
  15:.\main.c      **** #include <stdio.h>
  16:.\main.c      **** #include "calibrate.h"
  17:.\main.c      **** 
  18:.\main.c      **** void calAll(void);          //calibrate all sensors
  19:.\main.c      **** 
  20:.\main.c      **** extern volatile uint8 toggle_flag;      //external variable declared in isr.c for triggering interr
  21:.\main.c      **** 
  22:.\main.c      **** int main()
  23:.\main.c      **** {
  27              		.loc 1 23 0
  28              		.cfi_startproc
  29              		@ args = 0, pretend = 0, frame = 24
  30              		@ frame_needed = 1, uses_anonymous_args = 0
  31 0000 80B5     		push	{r7, lr}
  32              	.LCFI0:
  33              		.cfi_def_cfa_offset 8
  34              		.cfi_offset 7, -8
ARM GAS  C:\Users\CHAIYA~1\AppData\Local\Temp\ccm5HVqs.s 			page 2


  35              		.cfi_offset 14, -4
  36 0002 86B0     		sub	sp, sp, #24
  37              	.LCFI1:
  38              		.cfi_def_cfa_offset 32
  39 0004 00AF     		add	r7, sp, #0
  40              	.LCFI2:
  41              		.cfi_def_cfa_register 7
  24:.\main.c      ****     LCD_Start();
  42              		.loc 1 24 0
  43 0006 FFF7FEFF 		bl	LCD_Start
  25:.\main.c      ****     ADC_SAR_Start();
  44              		.loc 1 25 0
  45 000a FFF7FEFF 		bl	ADC_SAR_Start
  26:.\main.c      ****     ADC_SAR_StartConvert();
  46              		.loc 1 26 0
  47 000e FFF7FEFF 		bl	ADC_SAR_StartConvert
  27:.\main.c      ****     EEPROM_Start();
  48              		.loc 1 27 0
  49 0012 FFF7FEFF 		bl	EEPROM_Start
  28:.\main.c      ****     isr_Start();
  50              		.loc 1 28 0
  51 0016 FFF7FEFF 		bl	isr_Start
  29:.\main.c      ****     Timer_Start();
  52              		.loc 1 29 0
  53 001a FFF7FEFF 		bl	Timer_Start
  30:.\main.c      ****     CyGlobalIntEnable;          //enable global interrupts 
  54              		.loc 1 30 0
  55              	@ 30 ".\main.c" 1
  56 001e 62B6     		CPSIE   i
  57              	@ 0 "" 2
  31:.\main.c      ****     
  32:.\main.c      ****     uint32 throttle1 = 0;            //declared 32 bits for calculation, will cast to 16 bit when p
  58              		.loc 1 32 0
  59              		.thumb
  60 0020 4FF00003 		mov	r3, #0
  61 0024 7B61     		str	r3, [r7, #20]
  33:.\main.c      ****     uint32 throttle2 = 0;
  62              		.loc 1 33 0
  63 0026 4FF00003 		mov	r3, #0
  64 002a 3B61     		str	r3, [r7, #16]
  34:.\main.c      ****     uint32 brake1 = 0;
  65              		.loc 1 34 0
  66 002c 4FF00003 		mov	r3, #0
  67 0030 FB60     		str	r3, [r7, #12]
  35:.\main.c      ****     uint32 brake2 = 0;
  68              		.loc 1 35 0
  69 0032 4FF00003 		mov	r3, #0
  70 0036 BB60     		str	r3, [r7, #8]
  36:.\main.c      ****     uint32 steering = 0;
  71              		.loc 1 36 0
  72 0038 4FF00003 		mov	r3, #0
  73 003c 7B60     		str	r3, [r7, #4]
  37:.\main.c      ****     uint32 averager = 0;         //counts number of times adc gets a result and used as divisor for
  74              		.loc 1 37 0
  75 003e 4FF00003 		mov	r3, #0
  76 0042 3B60     		str	r3, [r7, #0]
  77              	.L2:
ARM GAS  C:\Users\CHAIYA~1\AppData\Local\Temp\ccm5HVqs.s 			page 3


  38:.\main.c      ****     
  39:.\main.c      **** //    for(;;)
  40:.\main.c      **** //    {                  
  41:.\main.c      **** //        if(toggle_flag == 1)            //if interrupt fired
  42:.\main.c      **** //        {
  43:.\main.c      **** //            throttle = (float)(throttle1/averager) + 0.5;           //gets rounded average value 
  44:.\main.c      **** //            throttle2 =(float)(throttle2/averager) + 0.5;
  45:.\main.c      **** //            brake1 = (float)(brake1/averager) + 0.5;
  46:.\main.c      **** //            brake2 = (float)(brake2/averager) + 0.5;
  47:.\main.c      **** //            steering = (float)(steering/averager) + 0.5;
  48:.\main.c      **** //            
  49:.\main.c      **** //            LED_Write(~LED_Read());             //visual check is interrupt is running
  50:.\main.c      **** //            
  51:.\main.c      **** //            LCD_ClearDisplay();
  52:.\main.c      **** //            LCD_Position(0,0);              //displaying number of times values were retrieved 
  53:.\main.c      **** //            LCD_PrintNumber(averager);
  54:.\main.c      **** //            LCD_Position(1,0);              //displaying number of times values were retrieved 
  55:.\main.c      **** //            LCD_PrintNumber(throttle1);
  56:.\main.c      **** //            //CyDelay(2000);
  57:.\main.c      **** //            LCD_Position(0,7);              //displaying number of times values were retrieved 
  58:.\main.c      **** //            LCD_PrintNumber(throttle);
  59:.\main.c      **** //            averager = 0;
  60:.\main.c      **** //            toggle_flag = 0;
  61:.\main.c      **** //            throttle = 0;
  62:.\main.c      **** //            throttle1 = 0;
  63:.\main.c      **** //            throttle2 = 0;
  64:.\main.c      **** //            brake1 = 0;
  65:.\main.c      **** //            brake2 = 0;
  66:.\main.c      **** //            steering = 0;
  67:.\main.c      **** //            averager = 0;
  68:.\main.c      **** //        }
  69:.\main.c      **** //        
  70:.\main.c      **** //        if(ADC_SAR_IsEndConversion(ADC_SAR_WAIT_FOR_RESULT))
  71:.\main.c      **** //        {
  72:.\main.c      **** //            throttle1 = throttle1 + ADC_SAR_GetResult16(0);         //summing values over the tim
  73:.\main.c      **** //            throttle2 = throttle2 + ADC_SAR_GetResult16(1);
  74:.\main.c      **** //            brake1 = brake1 + ADC_SAR_GetResult16(2);
  75:.\main.c      **** //            brake2 = brake2 + ADC_SAR_GetResult16(3);
  76:.\main.c      **** //            steering = steering + ADC_SAR_GetResult16(4);
  77:.\main.c      **** ////            LCD_Position(1,5);              //displaying number of times values were retrieved 
  78:.\main.c      **** ////            LCD_PrintNumber(averager);
  79:.\main.c      **** //            averager++;
  80:.\main.c      **** //            //CyDelay(2000);
  81:.\main.c      **** //        }
  82:.\main.c      **** //    }
  83:.\main.c      ****     
  84:.\main.c      ****     for(;;)
  85:.\main.c      ****     {
  86:.\main.c      ****         if(ADC_SAR_IsEndConversion(ADC_SAR_WAIT_FOR_RESULT))
  78              		.loc 1 86 0
  79 0044 4FF00000 		mov	r0, #0
  80 0048 FFF7FEFF 		bl	ADC_SAR_IsEndConversion
  87:.\main.c      ****         {
  88:.\main.c      ****                
  89:.\main.c      ****         }
  90:.\main.c      ****     }
  81              		.loc 1 90 0
ARM GAS  C:\Users\CHAIYA~1\AppData\Local\Temp\ccm5HVqs.s 			page 4


  82 004c FAE7     		b	.L2
  83              		.cfi_endproc
  84              	.LFE56:
  85              		.size	main, .-main
  86 004e 00BF     		.text
  87              	.Letext0:
  88              		.file 2 "c:\\program files (x86)\\cypress\\psoc creator\\3.0\\psoc creator\\import\\gnu_cs\\arm\\4
  89              		.file 3 "./Generated_Source/PSoC5/cytypes.h"
  90              		.file 4 "./Generated_Source/PSoC5/core_cm3.h"